
main:     file format elf64-littleriscv


Disassembly of section .text:

ffffffc050400000 <_start>:
ffffffc050400000:	10401073          	csrw	sie,zero
ffffffc050400004:	14401073          	csrw	sip,zero
ffffffc050400008:	6299                	lui	t0,0x6
ffffffc05040000a:	1002b073          	csrc	sstatus,t0
ffffffc05040000e:	000402b7          	lui	t0,0x40
ffffffc050400012:	1002a073          	csrs	sstatus,t0
ffffffc050400016:	00056197          	auipc	gp,0x56
ffffffc05040001a:	bb218193          	addi	gp,gp,-1102 # ffffffc050455bc8 <__global_pointer$>
ffffffc05040001e:	f14022f3          	csrr	t0,mhartid
ffffffc050400022:	02029863          	bnez	t0,ffffffc050400052 <secondary>
ffffffc050400026:	84018693          	addi	a3,gp,-1984 # ffffffc050455408 <_edata>
ffffffc05040002a:	000a1717          	auipc	a4,0xa1
ffffffc05040002e:	fae70713          	addi	a4,a4,-82 # ffffffc0504a0fd8 <__BSS_END__>
ffffffc050400032:	00e6d763          	bge	a3,a4,ffffffc050400040 <clear_bss_done>

ffffffc050400036 <clear_bss>:
ffffffc050400036:	0006b023          	sd	zero,0(a3)
ffffffc05040003a:	06a1                	addi	a3,a3,8
ffffffc05040003c:	fee6cde3          	blt	a3,a4,ffffffc050400036 <clear_bss>

ffffffc050400040 <clear_bss_done>:
ffffffc050400040:	00007217          	auipc	tp,0x7
ffffffc050400044:	7e020213          	addi	tp,tp,2016 # ffffffc050407820 <pid0_pcb_0>
ffffffc050400048:	00055117          	auipc	sp,0x55
ffffffc05040004c:	38013103          	ld	sp,896(sp) # ffffffc0504553c8 <pid0_stack_0>
ffffffc050400050:	a809                	j	ffffffc050400062 <all_done>

ffffffc050400052 <secondary>:
ffffffc050400052:	00008217          	auipc	tp,0x8
ffffffc050400056:	86e20213          	addi	tp,tp,-1938 # ffffffc0504078c0 <pid0_pcb_1>
ffffffc05040005a:	00055117          	auipc	sp,0x55
ffffffc05040005e:	37613103          	ld	sp,886(sp) # ffffffc0504553d0 <pid0_stack_1>

ffffffc050400062 <all_done>:
ffffffc050400062:	14001073          	csrw	sscratch,zero
ffffffc050400066:	627000ef          	jal	ra,ffffffc050400e8c <main>

ffffffc05040006a <loop>:
ffffffc05040006a:	10500073          	wfi
ffffffc05040006e:	bff5                	j	ffffffc05040006a <loop>
ffffffc050400070:	0000                	unimp
	...

ffffffc050400074 <setup_exception>:
ffffffc050400074:	00000417          	auipc	s0,0x0
ffffffc050400078:	1a840413          	addi	s0,s0,424 # ffffffc05040021c <exception_handler_entry>
ffffffc05040007c:	10541073          	csrw	stvec,s0
ffffffc050400080:	4489                	li	s1,2
ffffffc050400082:	10049073          	csrw	sstatus,s1
ffffffc050400086:	22200913          	li	s2,546
ffffffc05040008a:	10491073          	csrw	sie,s2
ffffffc05040008e:	8082                	ret
ffffffc050400090:	0000                	unimp
	...

ffffffc050400094 <enable_preempt>:
ffffffc050400094:	f14022f3          	csrr	t0,mhartid
ffffffc050400098:	02029563          	bnez	t0,ffffffc0504000c2 <enable_1>
ffffffc05040009c:	0009f317          	auipc	t1,0x9f
ffffffc0504000a0:	10433303          	ld	t1,260(t1) # ffffffc05049f1a0 <current_running_0>

ffffffc0504000a4 <enable_chk>:
ffffffc0504000a4:	01033283          	ld	t0,16(t1)
ffffffc0504000a8:	00028863          	beqz	t0,ffffffc0504000b8 <do_enable>
ffffffc0504000ac:	12fd                	addi	t0,t0,-1
ffffffc0504000ae:	00533823          	sd	t0,16(t1)
ffffffc0504000b2:	00028363          	beqz	t0,ffffffc0504000b8 <do_enable>
ffffffc0504000b6:	8082                	ret

ffffffc0504000b8 <do_enable>:
ffffffc0504000b8:	fff04293          	not	t0,zero
ffffffc0504000bc:	1042a073          	csrs	sie,t0
ffffffc0504000c0:	8082                	ret

ffffffc0504000c2 <enable_1>:
ffffffc0504000c2:	000a0317          	auipc	t1,0xa0
ffffffc0504000c6:	afe33303          	ld	t1,-1282(t1) # ffffffc05049fbc0 <current_running_1>
ffffffc0504000ca:	bfe9                	j	ffffffc0504000a4 <enable_chk>

ffffffc0504000cc <disable_preempt>:
ffffffc0504000cc:	10401073          	csrw	sie,zero
ffffffc0504000d0:	f14022f3          	csrr	t0,mhartid
ffffffc0504000d4:	00029c63          	bnez	t0,ffffffc0504000ec <disable_1>
ffffffc0504000d8:	0009f317          	auipc	t1,0x9f
ffffffc0504000dc:	0c833303          	ld	t1,200(t1) # ffffffc05049f1a0 <current_running_0>

ffffffc0504000e0 <do_disable>:
ffffffc0504000e0:	01033283          	ld	t0,16(t1)
ffffffc0504000e4:	0285                	addi	t0,t0,1
ffffffc0504000e6:	00533823          	sd	t0,16(t1)
ffffffc0504000ea:	8082                	ret

ffffffc0504000ec <disable_1>:
ffffffc0504000ec:	000a0317          	auipc	t1,0xa0
ffffffc0504000f0:	ad433303          	ld	t1,-1324(t1) # ffffffc05049fbc0 <current_running_1>
ffffffc0504000f4:	b7f5                	j	ffffffc0504000e0 <do_disable>
ffffffc0504000f6:	0001                	nop

ffffffc0504000f8 <enable_interrupt>:
ffffffc0504000f8:	4289                	li	t0,2
ffffffc0504000fa:	1002a073          	csrs	sstatus,t0
ffffffc0504000fe:	8082                	ret

ffffffc050400100 <disable_interrupt>:
ffffffc050400100:	4289                	li	t0,2
ffffffc050400102:	1002b073          	csrc	sstatus,t0
ffffffc050400106:	8082                	ret

ffffffc050400108 <enable_softwareint>:
ffffffc050400108:	4289                	li	t0,2
ffffffc05040010a:	1002a073          	csrs	sstatus,t0
ffffffc05040010e:	8082                	ret

ffffffc050400110 <disable_softwareint>:
ffffffc050400110:	4289                	li	t0,2
ffffffc050400112:	1042b073          	csrc	sie,t0
ffffffc050400116:	8082                	ret

ffffffc050400118 <clear_softwareint>:
ffffffc050400118:	4289                	li	t0,2
ffffffc05040011a:	1442b073          	csrc	sip,t0
ffffffc05040011e:	8082                	ret

ffffffc050400120 <clear_interrupt>:
ffffffc050400120:	00000293          	li	t0,0
ffffffc050400124:	1442a073          	csrs	sip,t0
ffffffc050400128:	8082                	ret
ffffffc05040012a:	0001                	nop

ffffffc05040012c <switch_to>:
ffffffc05040012c:	e221                	bnez	a2,ffffffc05040016c <no_store>
ffffffc05040012e:	822a                	mv	tp,a0
ffffffc050400130:	00023203          	ld	tp,0(tp) # 0 <_start-0xffffffc050400000>
ffffffc050400134:	00123023          	sd	ra,0(tp) # 0 <_start-0xffffffc050400000>
ffffffc050400138:	00223423          	sd	sp,8(tp) # 8 <_start-0xffffffc0503ffff8>
ffffffc05040013c:	00823823          	sd	s0,16(tp) # 10 <_start-0xffffffc0503ffff0>
ffffffc050400140:	00923c23          	sd	s1,24(tp) # 18 <_start-0xffffffc0503fffe8>
ffffffc050400144:	03223023          	sd	s2,32(tp) # 20 <_start-0xffffffc0503fffe0>
ffffffc050400148:	03323423          	sd	s3,40(tp) # 28 <_start-0xffffffc0503fffd8>
ffffffc05040014c:	03423823          	sd	s4,48(tp) # 30 <_start-0xffffffc0503fffd0>
ffffffc050400150:	03523c23          	sd	s5,56(tp) # 38 <_start-0xffffffc0503fffc8>
ffffffc050400154:	05623023          	sd	s6,64(tp) # 40 <_start-0xffffffc0503fffc0>
ffffffc050400158:	05723423          	sd	s7,72(tp) # 48 <_start-0xffffffc0503fffb8>
ffffffc05040015c:	05823823          	sd	s8,80(tp) # 50 <_start-0xffffffc0503fffb0>
ffffffc050400160:	05923c23          	sd	s9,88(tp) # 58 <_start-0xffffffc0503fffa8>
ffffffc050400164:	07a23023          	sd	s10,96(tp) # 60 <_start-0xffffffc0503fffa0>
ffffffc050400168:	07b23423          	sd	s11,104(tp) # 68 <_start-0xffffffc0503fff98>

ffffffc05040016c <no_store>:
ffffffc05040016c:	822e                	mv	tp,a1
ffffffc05040016e:	00023203          	ld	tp,0(tp) # 0 <_start-0xffffffc050400000>
ffffffc050400172:	00023083          	ld	ra,0(tp) # 0 <_start-0xffffffc050400000>
ffffffc050400176:	00823103          	ld	sp,8(tp) # 8 <_start-0xffffffc0503ffff8>
ffffffc05040017a:	01023403          	ld	s0,16(tp) # 10 <_start-0xffffffc0503ffff0>
ffffffc05040017e:	01823483          	ld	s1,24(tp) # 18 <_start-0xffffffc0503fffe8>
ffffffc050400182:	02023903          	ld	s2,32(tp) # 20 <_start-0xffffffc0503fffe0>
ffffffc050400186:	02823983          	ld	s3,40(tp) # 28 <_start-0xffffffc0503fffd8>
ffffffc05040018a:	03023a03          	ld	s4,48(tp) # 30 <_start-0xffffffc0503fffd0>
ffffffc05040018e:	03823a83          	ld	s5,56(tp) # 38 <_start-0xffffffc0503fffc8>
ffffffc050400192:	04023b03          	ld	s6,64(tp) # 40 <_start-0xffffffc0503fffc0>
ffffffc050400196:	04823b83          	ld	s7,72(tp) # 48 <_start-0xffffffc0503fffb8>
ffffffc05040019a:	05023c03          	ld	s8,80(tp) # 50 <_start-0xffffffc0503fffb0>
ffffffc05040019e:	05823c83          	ld	s9,88(tp) # 58 <_start-0xffffffc0503fffa8>
ffffffc0504001a2:	06023d03          	ld	s10,96(tp) # 60 <_start-0xffffffc0503fffa0>
ffffffc0504001a6:	06823d83          	ld	s11,104(tp) # 68 <_start-0xffffffc0503fff98>
ffffffc0504001aa:	822e                	mv	tp,a1
ffffffc0504001ac:	14021073          	csrw	sscratch,tp
ffffffc0504001b0:	000402b7          	lui	t0,0x40
ffffffc0504001b4:	1002a073          	csrs	sstatus,t0
ffffffc0504001b8:	8082                	ret
ffffffc0504001ba:	0001                	nop

ffffffc0504001bc <ret_from_exception>:
ffffffc0504001bc:	00023103          	ld	sp,0(tp) # 0 <_start-0xffffffc050400000>
ffffffc0504001c0:	6165                	addi	sp,sp,112
ffffffc0504001c2:	6432                	ld	s0,264(sp)
ffffffc0504001c4:	14141073          	csrw	sepc,s0
ffffffc0504001c8:	6492                	ld	s1,256(sp)
ffffffc0504001ca:	10049073          	csrw	sstatus,s1
ffffffc0504001ce:	60a2                	ld	ra,8(sp)
ffffffc0504001d0:	61e2                	ld	gp,24(sp)
ffffffc0504001d2:	7202                	ld	tp,32(sp)
ffffffc0504001d4:	72a2                	ld	t0,40(sp)
ffffffc0504001d6:	7342                	ld	t1,48(sp)
ffffffc0504001d8:	73e2                	ld	t2,56(sp)
ffffffc0504001da:	6406                	ld	s0,64(sp)
ffffffc0504001dc:	64a6                	ld	s1,72(sp)
ffffffc0504001de:	6546                	ld	a0,80(sp)
ffffffc0504001e0:	65e6                	ld	a1,88(sp)
ffffffc0504001e2:	7606                	ld	a2,96(sp)
ffffffc0504001e4:	76a6                	ld	a3,104(sp)
ffffffc0504001e6:	7746                	ld	a4,112(sp)
ffffffc0504001e8:	77e6                	ld	a5,120(sp)
ffffffc0504001ea:	680a                	ld	a6,128(sp)
ffffffc0504001ec:	68aa                	ld	a7,136(sp)
ffffffc0504001ee:	694a                	ld	s2,144(sp)
ffffffc0504001f0:	69ea                	ld	s3,152(sp)
ffffffc0504001f2:	7a0a                	ld	s4,160(sp)
ffffffc0504001f4:	7aaa                	ld	s5,168(sp)
ffffffc0504001f6:	7b4a                	ld	s6,176(sp)
ffffffc0504001f8:	7bea                	ld	s7,184(sp)
ffffffc0504001fa:	6c0e                	ld	s8,192(sp)
ffffffc0504001fc:	6cae                	ld	s9,200(sp)
ffffffc0504001fe:	6d4e                	ld	s10,208(sp)
ffffffc050400200:	6dee                	ld	s11,216(sp)
ffffffc050400202:	7e0e                	ld	t3,224(sp)
ffffffc050400204:	7eae                	ld	t4,232(sp)
ffffffc050400206:	7f4e                	ld	t5,240(sp)
ffffffc050400208:	7fee                	ld	t6,248(sp)
ffffffc05040020a:	6142                	ld	sp,16(sp)
ffffffc05040020c:	14021073          	csrw	sscratch,tp
ffffffc050400210:	000402b7          	lui	t0,0x40
ffffffc050400214:	1002a073          	csrs	sstatus,t0
ffffffc050400218:	10200073          	sret

ffffffc05040021c <exception_handler_entry>:
ffffffc05040021c:	14021273          	csrrw	tp,sscratch,tp
ffffffc050400220:	00021663          	bnez	tp,ffffffc05040022c <_save_context>

ffffffc050400224 <_restore_kernel_tpsp>:
ffffffc050400224:	14002273          	csrr	tp,sscratch
ffffffc050400228:	00223023          	sd	sp,0(tp) # 0 <_start-0xffffffc050400000>

ffffffc05040022c <_save_context>:
ffffffc05040022c:	00223423          	sd	sp,8(tp) # 8 <_start-0xffffffc0503ffff8>
ffffffc050400230:	00023103          	ld	sp,0(tp) # 0 <_start-0xffffffc050400000>
ffffffc050400234:	6165                	addi	sp,sp,112
ffffffc050400236:	e406                	sd	ra,8(sp)
ffffffc050400238:	ec0e                	sd	gp,24(sp)
ffffffc05040023a:	f416                	sd	t0,40(sp)
ffffffc05040023c:	f81a                	sd	t1,48(sp)
ffffffc05040023e:	fc1e                	sd	t2,56(sp)
ffffffc050400240:	e0a2                	sd	s0,64(sp)
ffffffc050400242:	e4a6                	sd	s1,72(sp)
ffffffc050400244:	e8aa                	sd	a0,80(sp)
ffffffc050400246:	ecae                	sd	a1,88(sp)
ffffffc050400248:	f0b2                	sd	a2,96(sp)
ffffffc05040024a:	f4b6                	sd	a3,104(sp)
ffffffc05040024c:	f8ba                	sd	a4,112(sp)
ffffffc05040024e:	fcbe                	sd	a5,120(sp)
ffffffc050400250:	e142                	sd	a6,128(sp)
ffffffc050400252:	e546                	sd	a7,136(sp)
ffffffc050400254:	e94a                	sd	s2,144(sp)
ffffffc050400256:	ed4e                	sd	s3,152(sp)
ffffffc050400258:	f152                	sd	s4,160(sp)
ffffffc05040025a:	f556                	sd	s5,168(sp)
ffffffc05040025c:	f95a                	sd	s6,176(sp)
ffffffc05040025e:	fd5e                	sd	s7,184(sp)
ffffffc050400260:	e1e2                	sd	s8,192(sp)
ffffffc050400262:	e5e6                	sd	s9,200(sp)
ffffffc050400264:	e9ea                	sd	s10,208(sp)
ffffffc050400266:	edee                	sd	s11,216(sp)
ffffffc050400268:	f1f2                	sd	t3,224(sp)
ffffffc05040026a:	f5f6                	sd	t4,232(sp)
ffffffc05040026c:	f9fa                	sd	t5,240(sp)
ffffffc05040026e:	fdfe                	sd	t6,248(sp)
ffffffc050400270:	00823403          	ld	s0,8(tp) # 8 <_start-0xffffffc0503ffff8>
ffffffc050400274:	e822                	sd	s0,16(sp)
ffffffc050400276:	140024f3          	csrr	s1,sscratch
ffffffc05040027a:	f026                	sd	s1,32(sp)
ffffffc05040027c:	000462b7          	lui	t0,0x46
ffffffc050400280:	1002b973          	csrrc	s2,sstatus,t0
ffffffc050400284:	e24a                	sd	s2,256(sp)
ffffffc050400286:	141029f3          	csrr	s3,sepc
ffffffc05040028a:	e64e                	sd	s3,264(sp)
ffffffc05040028c:	14302a73          	csrr	s4,stval
ffffffc050400290:	ea52                	sd	s4,272(sp)
ffffffc050400292:	14202af3          	csrr	s5,scause
ffffffc050400296:	ee56                	sd	s5,280(sp)
ffffffc050400298:	7159                	addi	sp,sp,-112
ffffffc05040029a:	00056197          	auipc	gp,0x56
ffffffc05040029e:	92e18193          	addi	gp,gp,-1746 # ffffffc050455bc8 <__global_pointer$>
ffffffc0504002a2:	14001073          	csrw	sscratch,zero
ffffffc0504002a6:	000402b7          	lui	t0,0x40
ffffffc0504002aa:	1002a073          	csrs	sstatus,t0
ffffffc0504002ae:	00000097          	auipc	ra,0x0
ffffffc0504002b2:	f0e08093          	addi	ra,ra,-242 # ffffffc0504001bc <ret_from_exception>
ffffffc0504002b6:	00023503          	ld	a0,0(tp) # 0 <_start-0xffffffc050400000>
ffffffc0504002ba:	07050513          	addi	a0,a0,112
ffffffc0504002be:	143025f3          	csrr	a1,stval
ffffffc0504002c2:	14202673          	csrr	a2,scause
ffffffc0504002c6:	5d70006f          	j	ffffffc05040109c <interrupt_helper>
	...

ffffffc0504002cc <get_current_cpu_id>:
ffffffc0504002cc:	f1402573          	csrr	a0,mhartid
ffffffc0504002d0:	8082                	ret

ffffffc0504002d2 <sbi_console_putstr>:
ffffffc0504002d2:	1101                	addi	sp,sp,-32
ffffffc0504002d4:	ec22                	sd	s0,24(sp)
ffffffc0504002d6:	1000                	addi	s0,sp,32
ffffffc0504002d8:	fea43423          	sd	a0,-24(s0)
ffffffc0504002dc:	a839                	j	ffffffc0504002fa <sbi_console_putstr+0x28>
ffffffc0504002de:	fe843783          	ld	a5,-24(s0)
ffffffc0504002e2:	00178713          	addi	a4,a5,1
ffffffc0504002e6:	fee43423          	sd	a4,-24(s0)
ffffffc0504002ea:	0007c783          	lbu	a5,0(a5)
ffffffc0504002ee:	853e                	mv	a0,a5
ffffffc0504002f0:	4581                	li	a1,0
ffffffc0504002f2:	4601                	li	a2,0
ffffffc0504002f4:	4885                	li	a7,1
ffffffc0504002f6:	00000073          	ecall
ffffffc0504002fa:	fe843783          	ld	a5,-24(s0)
ffffffc0504002fe:	0007c783          	lbu	a5,0(a5)
ffffffc050400302:	fff1                	bnez	a5,ffffffc0504002de <sbi_console_putstr+0xc>
ffffffc050400304:	0001                	nop
ffffffc050400306:	0001                	nop
ffffffc050400308:	6462                	ld	s0,24(sp)
ffffffc05040030a:	6105                	addi	sp,sp,32
ffffffc05040030c:	8082                	ret

ffffffc05040030e <sbi_console_putchar>:
ffffffc05040030e:	1101                	addi	sp,sp,-32
ffffffc050400310:	ec22                	sd	s0,24(sp)
ffffffc050400312:	1000                	addi	s0,sp,32
ffffffc050400314:	87aa                	mv	a5,a0
ffffffc050400316:	fef42623          	sw	a5,-20(s0)
ffffffc05040031a:	fec42783          	lw	a5,-20(s0)
ffffffc05040031e:	853e                	mv	a0,a5
ffffffc050400320:	4581                	li	a1,0
ffffffc050400322:	4601                	li	a2,0
ffffffc050400324:	4885                	li	a7,1
ffffffc050400326:	00000073          	ecall
ffffffc05040032a:	0001                	nop
ffffffc05040032c:	6462                	ld	s0,24(sp)
ffffffc05040032e:	6105                	addi	sp,sp,32
ffffffc050400330:	8082                	ret

ffffffc050400332 <port_write_ch>:
ffffffc050400332:	1101                	addi	sp,sp,-32
ffffffc050400334:	ec06                	sd	ra,24(sp)
ffffffc050400336:	e822                	sd	s0,16(sp)
ffffffc050400338:	1000                	addi	s0,sp,32
ffffffc05040033a:	87aa                	mv	a5,a0
ffffffc05040033c:	fef407a3          	sb	a5,-17(s0)
ffffffc050400340:	fef44783          	lbu	a5,-17(s0)
ffffffc050400344:	2781                	sext.w	a5,a5
ffffffc050400346:	853e                	mv	a0,a5
ffffffc050400348:	fc7ff0ef          	jal	ra,ffffffc05040030e <sbi_console_putchar>
ffffffc05040034c:	0001                	nop
ffffffc05040034e:	60e2                	ld	ra,24(sp)
ffffffc050400350:	6442                	ld	s0,16(sp)
ffffffc050400352:	6105                	addi	sp,sp,32
ffffffc050400354:	8082                	ret

ffffffc050400356 <port_write>:
ffffffc050400356:	1101                	addi	sp,sp,-32
ffffffc050400358:	ec06                	sd	ra,24(sp)
ffffffc05040035a:	e822                	sd	s0,16(sp)
ffffffc05040035c:	1000                	addi	s0,sp,32
ffffffc05040035e:	fea43423          	sd	a0,-24(s0)
ffffffc050400362:	fe843503          	ld	a0,-24(s0)
ffffffc050400366:	f6dff0ef          	jal	ra,ffffffc0504002d2 <sbi_console_putstr>
ffffffc05040036a:	0001                	nop
ffffffc05040036c:	60e2                	ld	ra,24(sp)
ffffffc05040036e:	6442                	ld	s0,16(sp)
ffffffc050400370:	6105                	addi	sp,sp,32
ffffffc050400372:	8082                	ret

ffffffc050400374 <init_list_head>:
ffffffc050400374:	1101                	addi	sp,sp,-32
ffffffc050400376:	ec22                	sd	s0,24(sp)
ffffffc050400378:	1000                	addi	s0,sp,32
ffffffc05040037a:	fea43423          	sd	a0,-24(s0)
ffffffc05040037e:	fe843783          	ld	a5,-24(s0)
ffffffc050400382:	fe843703          	ld	a4,-24(s0)
ffffffc050400386:	e398                	sd	a4,0(a5)
ffffffc050400388:	fe843783          	ld	a5,-24(s0)
ffffffc05040038c:	fe843703          	ld	a4,-24(s0)
ffffffc050400390:	e798                	sd	a4,8(a5)
ffffffc050400392:	0001                	nop
ffffffc050400394:	6462                	ld	s0,24(sp)
ffffffc050400396:	6105                	addi	sp,sp,32
ffffffc050400398:	8082                	ret

ffffffc05040039a <list_add>:
ffffffc05040039a:	1101                	addi	sp,sp,-32
ffffffc05040039c:	ec22                	sd	s0,24(sp)
ffffffc05040039e:	1000                	addi	s0,sp,32
ffffffc0504003a0:	fea43423          	sd	a0,-24(s0)
ffffffc0504003a4:	feb43023          	sd	a1,-32(s0)
ffffffc0504003a8:	fe043783          	ld	a5,-32(s0)
ffffffc0504003ac:	639c                	ld	a5,0(a5)
ffffffc0504003ae:	fe843703          	ld	a4,-24(s0)
ffffffc0504003b2:	e798                	sd	a4,8(a5)
ffffffc0504003b4:	fe043783          	ld	a5,-32(s0)
ffffffc0504003b8:	6398                	ld	a4,0(a5)
ffffffc0504003ba:	fe843783          	ld	a5,-24(s0)
ffffffc0504003be:	e398                	sd	a4,0(a5)
ffffffc0504003c0:	fe843783          	ld	a5,-24(s0)
ffffffc0504003c4:	fe043703          	ld	a4,-32(s0)
ffffffc0504003c8:	e798                	sd	a4,8(a5)
ffffffc0504003ca:	fe043783          	ld	a5,-32(s0)
ffffffc0504003ce:	fe843703          	ld	a4,-24(s0)
ffffffc0504003d2:	e398                	sd	a4,0(a5)
ffffffc0504003d4:	0001                	nop
ffffffc0504003d6:	6462                	ld	s0,24(sp)
ffffffc0504003d8:	6105                	addi	sp,sp,32
ffffffc0504003da:	8082                	ret

ffffffc0504003dc <sbi_console_getchar>:
ffffffc0504003dc:	1141                	addi	sp,sp,-16
ffffffc0504003de:	e422                	sd	s0,8(sp)
ffffffc0504003e0:	0800                	addi	s0,sp,16
ffffffc0504003e2:	4501                	li	a0,0
ffffffc0504003e4:	4581                	li	a1,0
ffffffc0504003e6:	4601                	li	a2,0
ffffffc0504003e8:	4889                	li	a7,2
ffffffc0504003ea:	00000073          	ecall
ffffffc0504003ee:	87aa                	mv	a5,a0
ffffffc0504003f0:	2781                	sext.w	a5,a5
ffffffc0504003f2:	853e                	mv	a0,a5
ffffffc0504003f4:	6422                	ld	s0,8(sp)
ffffffc0504003f6:	0141                	addi	sp,sp,16
ffffffc0504003f8:	8082                	ret

ffffffc0504003fa <sbi_set_timer>:
ffffffc0504003fa:	1101                	addi	sp,sp,-32
ffffffc0504003fc:	ec22                	sd	s0,24(sp)
ffffffc0504003fe:	1000                	addi	s0,sp,32
ffffffc050400400:	fea43423          	sd	a0,-24(s0)
ffffffc050400404:	fe843503          	ld	a0,-24(s0)
ffffffc050400408:	4581                	li	a1,0
ffffffc05040040a:	4601                	li	a2,0
ffffffc05040040c:	4881                	li	a7,0
ffffffc05040040e:	00000073          	ecall
ffffffc050400412:	0001                	nop
ffffffc050400414:	6462                	ld	s0,24(sp)
ffffffc050400416:	6105                	addi	sp,sp,32
ffffffc050400418:	8082                	ret

ffffffc05040041a <sbi_read_fdt>:
ffffffc05040041a:	1101                	addi	sp,sp,-32
ffffffc05040041c:	ec22                	sd	s0,24(sp)
ffffffc05040041e:	1000                	addi	s0,sp,32
ffffffc050400420:	87aa                	mv	a5,a0
ffffffc050400422:	fef42623          	sw	a5,-20(s0)
ffffffc050400426:	fec42783          	lw	a5,-20(s0)
ffffffc05040042a:	853e                	mv	a0,a5
ffffffc05040042c:	4581                	li	a1,0
ffffffc05040042e:	4601                	li	a2,0
ffffffc050400430:	48b1                	li	a7,12
ffffffc050400432:	00000073          	ecall
ffffffc050400436:	87aa                	mv	a5,a0
ffffffc050400438:	2781                	sext.w	a5,a5
ffffffc05040043a:	853e                	mv	a0,a5
ffffffc05040043c:	6462                	ld	s0,24(sp)
ffffffc05040043e:	6105                	addi	sp,sp,32
ffffffc050400440:	8082                	ret

ffffffc050400442 <local_flush_tlb_all>:
ffffffc050400442:	1141                	addi	sp,sp,-16
ffffffc050400444:	e422                	sd	s0,8(sp)
ffffffc050400446:	0800                	addi	s0,sp,16
ffffffc050400448:	12000073          	sfence.vma
ffffffc05040044c:	0001                	nop
ffffffc05040044e:	6422                	ld	s0,8(sp)
ffffffc050400450:	0141                	addi	sp,sp,16
ffffffc050400452:	8082                	ret

ffffffc050400454 <pa2kva>:
ffffffc050400454:	1101                	addi	sp,sp,-32
ffffffc050400456:	ec22                	sd	s0,24(sp)
ffffffc050400458:	1000                	addi	s0,sp,32
ffffffc05040045a:	fea43423          	sd	a0,-24(s0)
ffffffc05040045e:	fe843703          	ld	a4,-24(s0)
ffffffc050400462:	57fd                	li	a5,-1
ffffffc050400464:	179a                	slli	a5,a5,0x26
ffffffc050400466:	97ba                	add	a5,a5,a4
ffffffc050400468:	853e                	mv	a0,a5
ffffffc05040046a:	6462                	ld	s0,24(sp)
ffffffc05040046c:	6105                	addi	sp,sp,32
ffffffc05040046e:	8082                	ret

ffffffc050400470 <clear_pgdir>:
ffffffc050400470:	7179                	addi	sp,sp,-48
ffffffc050400472:	f422                	sd	s0,40(sp)
ffffffc050400474:	1800                	addi	s0,sp,48
ffffffc050400476:	fca43c23          	sd	a0,-40(s0)
ffffffc05040047a:	fd843783          	ld	a5,-40(s0)
ffffffc05040047e:	fef43423          	sd	a5,-24(s0)
ffffffc050400482:	fe042223          	sw	zero,-28(s0)
ffffffc050400486:	a839                	j	ffffffc0504004a4 <clear_pgdir+0x34>
ffffffc050400488:	fe843783          	ld	a5,-24(s0)
ffffffc05040048c:	0007b023          	sd	zero,0(a5)
ffffffc050400490:	fe442783          	lw	a5,-28(s0)
ffffffc050400494:	2785                	addiw	a5,a5,1
ffffffc050400496:	fef42223          	sw	a5,-28(s0)
ffffffc05040049a:	fe843783          	ld	a5,-24(s0)
ffffffc05040049e:	07a1                	addi	a5,a5,8
ffffffc0504004a0:	fef43423          	sd	a5,-24(s0)
ffffffc0504004a4:	fe442783          	lw	a5,-28(s0)
ffffffc0504004a8:	0007871b          	sext.w	a4,a5
ffffffc0504004ac:	1ff00793          	li	a5,511
ffffffc0504004b0:	fce7dce3          	bge	a5,a4,ffffffc050400488 <clear_pgdir+0x18>
ffffffc0504004b4:	0001                	nop
ffffffc0504004b6:	0001                	nop
ffffffc0504004b8:	7422                	ld	s0,40(sp)
ffffffc0504004ba:	6145                	addi	sp,sp,48
ffffffc0504004bc:	8082                	ret

ffffffc0504004be <is_elf_format>:
ffffffc0504004be:	7179                	addi	sp,sp,-48
ffffffc0504004c0:	f422                	sd	s0,40(sp)
ffffffc0504004c2:	1800                	addi	s0,sp,48
ffffffc0504004c4:	fca43c23          	sd	a0,-40(s0)
ffffffc0504004c8:	fd843783          	ld	a5,-40(s0)
ffffffc0504004cc:	fef43423          	sd	a5,-24(s0)
ffffffc0504004d0:	fe843783          	ld	a5,-24(s0)
ffffffc0504004d4:	0007c783          	lbu	a5,0(a5)
ffffffc0504004d8:	eb9d                	bnez	a5,ffffffc05040050e <is_elf_format+0x50>
ffffffc0504004da:	fe843783          	ld	a5,-24(s0)
ffffffc0504004de:	0017c783          	lbu	a5,1(a5)
ffffffc0504004e2:	873e                	mv	a4,a5
ffffffc0504004e4:	4785                	li	a5,1
ffffffc0504004e6:	02f71463          	bne	a4,a5,ffffffc05040050e <is_elf_format+0x50>
ffffffc0504004ea:	fe843783          	ld	a5,-24(s0)
ffffffc0504004ee:	0027c783          	lbu	a5,2(a5)
ffffffc0504004f2:	873e                	mv	a4,a5
ffffffc0504004f4:	4789                	li	a5,2
ffffffc0504004f6:	00f71c63          	bne	a4,a5,ffffffc05040050e <is_elf_format+0x50>
ffffffc0504004fa:	fe843783          	ld	a5,-24(s0)
ffffffc0504004fe:	0037c783          	lbu	a5,3(a5)
ffffffc050400502:	873e                	mv	a4,a5
ffffffc050400504:	478d                	li	a5,3
ffffffc050400506:	00f71463          	bne	a4,a5,ffffffc05040050e <is_elf_format+0x50>
ffffffc05040050a:	4781                	li	a5,0
ffffffc05040050c:	a011                	j	ffffffc050400510 <is_elf_format+0x52>
ffffffc05040050e:	4785                	li	a5,1
ffffffc050400510:	853e                	mv	a0,a5
ffffffc050400512:	7422                	ld	s0,40(sp)
ffffffc050400514:	6145                	addi	sp,sp,48
ffffffc050400516:	8082                	ret

ffffffc050400518 <load_elf>:
ffffffc050400518:	7159                	addi	sp,sp,-112
ffffffc05040051a:	f486                	sd	ra,104(sp)
ffffffc05040051c:	f0a2                	sd	s0,96(sp)
ffffffc05040051e:	1880                	addi	s0,sp,112
ffffffc050400520:	faa43423          	sd	a0,-88(s0)
ffffffc050400524:	87ae                	mv	a5,a1
ffffffc050400526:	f8c43c23          	sd	a2,-104(s0)
ffffffc05040052a:	f8d43823          	sd	a3,-112(s0)
ffffffc05040052e:	faf42223          	sw	a5,-92(s0)
ffffffc050400532:	fa843783          	ld	a5,-88(s0)
ffffffc050400536:	fcf43823          	sd	a5,-48(s0)
ffffffc05040053a:	fc043423          	sd	zero,-56(s0)
ffffffc05040053e:	fe043423          	sd	zero,-24(s0)
ffffffc050400542:	fe042023          	sw	zero,-32(s0)
ffffffc050400546:	fa442783          	lw	a5,-92(s0)
ffffffc05040054a:	0007871b          	sext.w	a4,a5
ffffffc05040054e:	478d                	li	a5,3
ffffffc050400550:	00e7f863          	bgeu	a5,a4,ffffffc050400560 <load_elf+0x48>
ffffffc050400554:	fa843503          	ld	a0,-88(s0)
ffffffc050400558:	f67ff0ef          	jal	ra,ffffffc0504004be <is_elf_format>
ffffffc05040055c:	87aa                	mv	a5,a0
ffffffc05040055e:	e399                	bnez	a5,ffffffc050400564 <load_elf+0x4c>
ffffffc050400560:	4781                	li	a5,0
ffffffc050400562:	a269                	j	ffffffc0504006ec <load_elf+0x1d4>
ffffffc050400564:	fd043783          	ld	a5,-48(s0)
ffffffc050400568:	739c                	ld	a5,32(a5)
ffffffc05040056a:	fa843703          	ld	a4,-88(s0)
ffffffc05040056e:	97ba                	add	a5,a5,a4
ffffffc050400570:	fef43423          	sd	a5,-24(s0)
ffffffc050400574:	fd043783          	ld	a5,-48(s0)
ffffffc050400578:	0387d783          	lhu	a5,56(a5)
ffffffc05040057c:	fef41323          	sh	a5,-26(s0)
ffffffc050400580:	fd043783          	ld	a5,-48(s0)
ffffffc050400584:	0367d783          	lhu	a5,54(a5)
ffffffc050400588:	fcf41323          	sh	a5,-58(s0)
ffffffc05040058c:	a2a9                	j	ffffffc0504006d6 <load_elf+0x1be>
ffffffc05040058e:	fe843783          	ld	a5,-24(s0)
ffffffc050400592:	fcf43423          	sd	a5,-56(s0)
ffffffc050400596:	fc843783          	ld	a5,-56(s0)
ffffffc05040059a:	439c                	lw	a5,0(a5)
ffffffc05040059c:	873e                	mv	a4,a5
ffffffc05040059e:	4785                	li	a5,1
ffffffc0504005a0:	12f71463          	bne	a4,a5,ffffffc0504006c8 <load_elf+0x1b0>
ffffffc0504005a4:	fe042023          	sw	zero,-32(s0)
ffffffc0504005a8:	aa09                	j	ffffffc0504006ba <load_elf+0x1a2>
ffffffc0504005aa:	fe042703          	lw	a4,-32(s0)
ffffffc0504005ae:	fc843783          	ld	a5,-56(s0)
ffffffc0504005b2:	739c                	ld	a5,32(a5)
ffffffc0504005b4:	0af77563          	bgeu	a4,a5,ffffffc05040065e <load_elf+0x146>
ffffffc0504005b8:	fc843783          	ld	a5,-56(s0)
ffffffc0504005bc:	6b98                	ld	a4,16(a5)
ffffffc0504005be:	fe042783          	lw	a5,-32(s0)
ffffffc0504005c2:	97ba                	add	a5,a5,a4
ffffffc0504005c4:	f9043703          	ld	a4,-112(s0)
ffffffc0504005c8:	4601                	li	a2,0
ffffffc0504005ca:	f9843583          	ld	a1,-104(s0)
ffffffc0504005ce:	853e                	mv	a0,a5
ffffffc0504005d0:	9702                	jalr	a4
ffffffc0504005d2:	87aa                	mv	a5,a0
ffffffc0504005d4:	faf43823          	sd	a5,-80(s0)
ffffffc0504005d8:	fc843783          	ld	a5,-56(s0)
ffffffc0504005dc:	6798                	ld	a4,8(a5)
ffffffc0504005de:	fe042783          	lw	a5,-32(s0)
ffffffc0504005e2:	97ba                	add	a5,a5,a4
ffffffc0504005e4:	fa843703          	ld	a4,-88(s0)
ffffffc0504005e8:	00f706b3          	add	a3,a4,a5
ffffffc0504005ec:	fc843783          	ld	a5,-56(s0)
ffffffc0504005f0:	7398                	ld	a4,32(a5)
ffffffc0504005f2:	fe042783          	lw	a5,-32(s0)
ffffffc0504005f6:	40f707b3          	sub	a5,a4,a5
ffffffc0504005fa:	6705                	lui	a4,0x1
ffffffc0504005fc:	00f77363          	bgeu	a4,a5,ffffffc050400602 <load_elf+0xea>
ffffffc050400600:	6785                	lui	a5,0x1
ffffffc050400602:	2781                	sext.w	a5,a5
ffffffc050400604:	863e                	mv	a2,a5
ffffffc050400606:	85b6                	mv	a1,a3
ffffffc050400608:	fb043503          	ld	a0,-80(s0)
ffffffc05040060c:	441050ef          	jal	ra,ffffffc05040624c <kmemcpy>
ffffffc050400610:	fc843783          	ld	a5,-56(s0)
ffffffc050400614:	7398                	ld	a4,32(a5)
ffffffc050400616:	fe042783          	lw	a5,-32(s0)
ffffffc05040061a:	8f1d                	sub	a4,a4,a5
ffffffc05040061c:	6785                	lui	a5,0x1
ffffffc05040061e:	08f77763          	bgeu	a4,a5,ffffffc0504006ac <load_elf+0x194>
ffffffc050400622:	fc843783          	ld	a5,-56(s0)
ffffffc050400626:	739c                	ld	a5,32(a5)
ffffffc050400628:	0007871b          	sext.w	a4,a5
ffffffc05040062c:	6785                	lui	a5,0x1
ffffffc05040062e:	17fd                	addi	a5,a5,-1
ffffffc050400630:	8ff9                	and	a5,a5,a4
ffffffc050400632:	fcf42e23          	sw	a5,-36(s0)
ffffffc050400636:	a829                	j	ffffffc050400650 <load_elf+0x138>
ffffffc050400638:	fdc42783          	lw	a5,-36(s0)
ffffffc05040063c:	fb043703          	ld	a4,-80(s0)
ffffffc050400640:	97ba                	add	a5,a5,a4
ffffffc050400642:	00078023          	sb	zero,0(a5) # 1000 <_start-0xffffffc0503ff000>
ffffffc050400646:	fdc42783          	lw	a5,-36(s0)
ffffffc05040064a:	2785                	addiw	a5,a5,1
ffffffc05040064c:	fcf42e23          	sw	a5,-36(s0)
ffffffc050400650:	fdc42783          	lw	a5,-36(s0)
ffffffc050400654:	873e                	mv	a4,a5
ffffffc050400656:	6785                	lui	a5,0x1
ffffffc050400658:	fef760e3          	bltu	a4,a5,ffffffc050400638 <load_elf+0x120>
ffffffc05040065c:	a881                	j	ffffffc0504006ac <load_elf+0x194>
ffffffc05040065e:	fc843783          	ld	a5,-56(s0)
ffffffc050400662:	6b98                	ld	a4,16(a5)
ffffffc050400664:	fe042783          	lw	a5,-32(s0)
ffffffc050400668:	97ba                	add	a5,a5,a4
ffffffc05040066a:	f9043703          	ld	a4,-112(s0)
ffffffc05040066e:	4601                	li	a2,0
ffffffc050400670:	f9843583          	ld	a1,-104(s0)
ffffffc050400674:	853e                	mv	a0,a5
ffffffc050400676:	9702                	jalr	a4
ffffffc050400678:	87aa                	mv	a5,a0
ffffffc05040067a:	faf43c23          	sd	a5,-72(s0)
ffffffc05040067e:	fc042c23          	sw	zero,-40(s0)
ffffffc050400682:	a831                	j	ffffffc05040069e <load_elf+0x186>
ffffffc050400684:	fd842783          	lw	a5,-40(s0)
ffffffc050400688:	078e                	slli	a5,a5,0x3
ffffffc05040068a:	fb843703          	ld	a4,-72(s0)
ffffffc05040068e:	97ba                	add	a5,a5,a4
ffffffc050400690:	0007b023          	sd	zero,0(a5) # 1000 <_start-0xffffffc0503ff000>
ffffffc050400694:	fd842783          	lw	a5,-40(s0)
ffffffc050400698:	2785                	addiw	a5,a5,1
ffffffc05040069a:	fcf42c23          	sw	a5,-40(s0)
ffffffc05040069e:	fd842783          	lw	a5,-40(s0)
ffffffc0504006a2:	873e                	mv	a4,a5
ffffffc0504006a4:	1ff00793          	li	a5,511
ffffffc0504006a8:	fce7fee3          	bgeu	a5,a4,ffffffc050400684 <load_elf+0x16c>
ffffffc0504006ac:	fe042703          	lw	a4,-32(s0)
ffffffc0504006b0:	6785                	lui	a5,0x1
ffffffc0504006b2:	9fb9                	addw	a5,a5,a4
ffffffc0504006b4:	2781                	sext.w	a5,a5
ffffffc0504006b6:	fef42023          	sw	a5,-32(s0)
ffffffc0504006ba:	fe042703          	lw	a4,-32(s0)
ffffffc0504006be:	fc843783          	ld	a5,-56(s0)
ffffffc0504006c2:	779c                	ld	a5,40(a5)
ffffffc0504006c4:	eef763e3          	bltu	a4,a5,ffffffc0504005aa <load_elf+0x92>
ffffffc0504006c8:	fc645783          	lhu	a5,-58(s0)
ffffffc0504006cc:	fe843703          	ld	a4,-24(s0)
ffffffc0504006d0:	97ba                	add	a5,a5,a4
ffffffc0504006d2:	fef43423          	sd	a5,-24(s0)
ffffffc0504006d6:	fe645783          	lhu	a5,-26(s0)
ffffffc0504006da:	fff7871b          	addiw	a4,a5,-1
ffffffc0504006de:	fee41323          	sh	a4,-26(s0)
ffffffc0504006e2:	ea0796e3          	bnez	a5,ffffffc05040058e <load_elf+0x76>
ffffffc0504006e6:	fd043783          	ld	a5,-48(s0)
ffffffc0504006ea:	6f9c                	ld	a5,24(a5)
ffffffc0504006ec:	853e                	mv	a0,a5
ffffffc0504006ee:	70a6                	ld	ra,104(sp)
ffffffc0504006f0:	7406                	ld	s0,96(sp)
ffffffc0504006f2:	6165                	addi	sp,sp,112
ffffffc0504006f4:	8082                	ret

ffffffc0504006f6 <init_pcb_stack>:
ffffffc0504006f6:	711d                	addi	sp,sp,-96
ffffffc0504006f8:	eca2                	sd	s0,88(sp)
ffffffc0504006fa:	1080                	addi	s0,sp,96
ffffffc0504006fc:	fca43423          	sd	a0,-56(s0)
ffffffc050400700:	fcb43023          	sd	a1,-64(s0)
ffffffc050400704:	fac43c23          	sd	a2,-72(s0)
ffffffc050400708:	fad43823          	sd	a3,-80(s0)
ffffffc05040070c:	faf43023          	sd	a5,-96(s0)
ffffffc050400710:	87ba                	mv	a5,a4
ffffffc050400712:	faf42623          	sw	a5,-84(s0)
ffffffc050400716:	fc843783          	ld	a5,-56(s0)
ffffffc05040071a:	ee078793          	addi	a5,a5,-288 # ee0 <_start-0xffffffc0503ff120>
ffffffc05040071e:	fef43023          	sd	a5,-32(s0)
ffffffc050400722:	fe042623          	sw	zero,-20(s0)
ffffffc050400726:	a831                	j	ffffffc050400742 <init_pcb_stack+0x4c>
ffffffc050400728:	fe043703          	ld	a4,-32(s0)
ffffffc05040072c:	fec42783          	lw	a5,-20(s0)
ffffffc050400730:	078e                	slli	a5,a5,0x3
ffffffc050400732:	97ba                	add	a5,a5,a4
ffffffc050400734:	0007b023          	sd	zero,0(a5)
ffffffc050400738:	fec42783          	lw	a5,-20(s0)
ffffffc05040073c:	2785                	addiw	a5,a5,1
ffffffc05040073e:	fef42623          	sw	a5,-20(s0)
ffffffc050400742:	fec42783          	lw	a5,-20(s0)
ffffffc050400746:	0007871b          	sext.w	a4,a5
ffffffc05040074a:	47fd                	li	a5,31
ffffffc05040074c:	fce7dee3          	bge	a5,a4,ffffffc050400728 <init_pcb_stack+0x32>
ffffffc050400750:	fe043783          	ld	a5,-32(s0)
ffffffc050400754:	fc043703          	ld	a4,-64(s0)
ffffffc050400758:	eb98                	sd	a4,16(a5)
ffffffc05040075a:	00018713          	mv	a4,gp
ffffffc05040075e:	fe043783          	ld	a5,-32(s0)
ffffffc050400762:	ef98                	sd	a4,24(a5)
ffffffc050400764:	fb043703          	ld	a4,-80(s0)
ffffffc050400768:	fe043783          	ld	a5,-32(s0)
ffffffc05040076c:	f398                	sd	a4,32(a5)
ffffffc05040076e:	fac42703          	lw	a4,-84(s0)
ffffffc050400772:	fe043783          	ld	a5,-32(s0)
ffffffc050400776:	ebb8                	sd	a4,80(a5)
ffffffc050400778:	fe043783          	ld	a5,-32(s0)
ffffffc05040077c:	fa043703          	ld	a4,-96(s0)
ffffffc050400780:	efb8                	sd	a4,88(a5)
ffffffc050400782:	fe043783          	ld	a5,-32(s0)
ffffffc050400786:	fb843703          	ld	a4,-72(s0)
ffffffc05040078a:	10e7b423          	sd	a4,264(a5)
ffffffc05040078e:	fe043783          	ld	a5,-32(s0)
ffffffc050400792:	00040737          	lui	a4,0x40
ffffffc050400796:	02070713          	addi	a4,a4,32 # 40020 <_start-0xffffffc0503bffe0>
ffffffc05040079a:	10e7b023          	sd	a4,256(a5)
ffffffc05040079e:	fe043783          	ld	a5,-32(s0)
ffffffc0504007a2:	1007b823          	sd	zero,272(a5)
ffffffc0504007a6:	fe043783          	ld	a5,-32(s0)
ffffffc0504007aa:	1007bc23          	sd	zero,280(a5)
ffffffc0504007ae:	fc843783          	ld	a5,-56(s0)
ffffffc0504007b2:	e7078793          	addi	a5,a5,-400
ffffffc0504007b6:	fcf43c23          	sd	a5,-40(s0)
ffffffc0504007ba:	fe042623          	sw	zero,-20(s0)
ffffffc0504007be:	a831                	j	ffffffc0504007da <init_pcb_stack+0xe4>
ffffffc0504007c0:	fd843703          	ld	a4,-40(s0)
ffffffc0504007c4:	fec42783          	lw	a5,-20(s0)
ffffffc0504007c8:	078e                	slli	a5,a5,0x3
ffffffc0504007ca:	97ba                	add	a5,a5,a4
ffffffc0504007cc:	0007b023          	sd	zero,0(a5)
ffffffc0504007d0:	fec42783          	lw	a5,-20(s0)
ffffffc0504007d4:	2785                	addiw	a5,a5,1
ffffffc0504007d6:	fef42623          	sw	a5,-20(s0)
ffffffc0504007da:	fec42783          	lw	a5,-20(s0)
ffffffc0504007de:	0007871b          	sext.w	a4,a5
ffffffc0504007e2:	47b5                	li	a5,13
ffffffc0504007e4:	fce7dee3          	bge	a5,a4,ffffffc0504007c0 <init_pcb_stack+0xca>
ffffffc0504007e8:	00000717          	auipc	a4,0x0
ffffffc0504007ec:	9d470713          	addi	a4,a4,-1580 # ffffffc0504001bc <ret_from_exception>
ffffffc0504007f0:	fd843783          	ld	a5,-40(s0)
ffffffc0504007f4:	e398                	sd	a4,0(a5)
ffffffc0504007f6:	fd843703          	ld	a4,-40(s0)
ffffffc0504007fa:	fd843783          	ld	a5,-40(s0)
ffffffc0504007fe:	e798                	sd	a4,8(a5)
ffffffc050400800:	fd843703          	ld	a4,-40(s0)
ffffffc050400804:	fb043783          	ld	a5,-80(s0)
ffffffc050400808:	e398                	sd	a4,0(a5)
ffffffc05040080a:	0001                	nop
ffffffc05040080c:	6466                	ld	s0,88(sp)
ffffffc05040080e:	6125                	addi	sp,sp,96
ffffffc050400810:	8082                	ret

ffffffc050400812 <init_pcb>:
ffffffc050400812:	7179                	addi	sp,sp,-48
ffffffc050400814:	f406                	sd	ra,40(sp)
ffffffc050400816:	f022                	sd	s0,32(sp)
ffffffc050400818:	ec26                	sd	s1,24(sp)
ffffffc05040081a:	1800                	addi	s0,sp,48
ffffffc05040081c:	0009f517          	auipc	a0,0x9f
ffffffc050400820:	98c50513          	addi	a0,a0,-1652 # ffffffc05049f1a8 <ready_queue>
ffffffc050400824:	b51ff0ef          	jal	ra,ffffffc050400374 <init_list_head>
ffffffc050400828:	0009f797          	auipc	a5,0x9f
ffffffc05040082c:	99878793          	addi	a5,a5,-1640 # ffffffc05049f1c0 <pcb>
ffffffc050400830:	4705                	li	a4,1
ffffffc050400832:	c7b8                	sw	a4,72(a5)
ffffffc050400834:	4505                	li	a0,1
ffffffc050400836:	71b040ef          	jal	ra,ffffffc050405750 <allocPage>
ffffffc05040083a:	872a                	mv	a4,a0
ffffffc05040083c:	0009f797          	auipc	a5,0x9f
ffffffc050400840:	98478793          	addi	a5,a5,-1660 # ffffffc05049f1c0 <pcb>
ffffffc050400844:	e7d8                	sd	a4,136(a5)
ffffffc050400846:	0009f797          	auipc	a5,0x9f
ffffffc05040084a:	97a78793          	addi	a5,a5,-1670 # ffffffc05049f1c0 <pcb>
ffffffc05040084e:	67dc                	ld	a5,136(a5)
ffffffc050400850:	853e                	mv	a0,a5
ffffffc050400852:	c1fff0ef          	jal	ra,ffffffc050400470 <clear_pgdir>
ffffffc050400856:	0009f797          	auipc	a5,0x9f
ffffffc05040085a:	96a78793          	addi	a5,a5,-1686 # ffffffc05049f1c0 <pcb>
ffffffc05040085e:	67c4                	ld	s1,136(a5)
ffffffc050400860:	5e000537          	lui	a0,0x5e000
ffffffc050400864:	bf1ff0ef          	jal	ra,ffffffc050400454 <pa2kva>
ffffffc050400868:	87aa                	mv	a5,a0
ffffffc05040086a:	85be                	mv	a1,a5
ffffffc05040086c:	8526                	mv	a0,s1
ffffffc05040086e:	014050ef          	jal	ra,ffffffc050405882 <share_pgtable>
ffffffc050400872:	4505                	li	a0,1
ffffffc050400874:	6dd040ef          	jal	ra,ffffffc050405750 <allocPage>
ffffffc050400878:	872a                	mv	a4,a0
ffffffc05040087a:	6785                	lui	a5,0x1
ffffffc05040087c:	973e                	add	a4,a4,a5
ffffffc05040087e:	0009f797          	auipc	a5,0x9f
ffffffc050400882:	94278793          	addi	a5,a5,-1726 # ffffffc05049f1c0 <pcb>
ffffffc050400886:	e398                	sd	a4,0(a5)
ffffffc050400888:	0009f797          	auipc	a5,0x9f
ffffffc05040088c:	93878793          	addi	a5,a5,-1736 # ffffffc05049f1c0 <pcb>
ffffffc050400890:	000f0737          	lui	a4,0xf0
ffffffc050400894:	0705                	addi	a4,a4,1
ffffffc050400896:	0742                	slli	a4,a4,0x10
ffffffc050400898:	e798                	sd	a4,8(a5)
ffffffc05040089a:	0009f797          	auipc	a5,0x9f
ffffffc05040089e:	92678793          	addi	a5,a5,-1754 # ffffffc05049f1c0 <pcb>
ffffffc0504008a2:	6798                	ld	a4,8(a5)
ffffffc0504008a4:	77fd                	lui	a5,0xfffff
ffffffc0504008a6:	973e                	add	a4,a4,a5
ffffffc0504008a8:	0009f797          	auipc	a5,0x9f
ffffffc0504008ac:	91878793          	addi	a5,a5,-1768 # ffffffc05049f1c0 <pcb>
ffffffc0504008b0:	67dc                	ld	a5,136(a5)
ffffffc0504008b2:	4601                	li	a2,0
ffffffc0504008b4:	85be                	mv	a1,a5
ffffffc0504008b6:	853a                	mv	a0,a4
ffffffc0504008b8:	7f7040ef          	jal	ra,ffffffc0504058ae <alloc_page_helper>
ffffffc0504008bc:	0009f797          	auipc	a5,0x9f
ffffffc0504008c0:	90478793          	addi	a5,a5,-1788 # ffffffc05049f1c0 <pcb>
ffffffc0504008c4:	6398                	ld	a4,0(a5)
ffffffc0504008c6:	0009f797          	auipc	a5,0x9f
ffffffc0504008ca:	8fa78793          	addi	a5,a5,-1798 # ffffffc05049f1c0 <pcb>
ffffffc0504008ce:	ef98                	sd	a4,24(a5)
ffffffc0504008d0:	0009f797          	auipc	a5,0x9f
ffffffc0504008d4:	8f078793          	addi	a5,a5,-1808 # ffffffc05049f1c0 <pcb>
ffffffc0504008d8:	6798                	ld	a4,8(a5)
ffffffc0504008da:	0009f797          	auipc	a5,0x9f
ffffffc0504008de:	8e678793          	addi	a5,a5,-1818 # ffffffc05049f1c0 <pcb>
ffffffc0504008e2:	f398                	sd	a4,32(a5)
ffffffc0504008e4:	00055797          	auipc	a5,0x55
ffffffc0504008e8:	a3c78793          	addi	a5,a5,-1476 # ffffffc050455320 <elf_files>
ffffffc0504008ec:	6798                	ld	a4,8(a5)
ffffffc0504008ee:	00055797          	auipc	a5,0x55
ffffffc0504008f2:	a3278793          	addi	a5,a5,-1486 # ffffffc050455320 <elf_files>
ffffffc0504008f6:	6b9c                	ld	a5,16(a5)
ffffffc0504008f8:	439c                	lw	a5,0(a5)
ffffffc0504008fa:	0007859b          	sext.w	a1,a5
ffffffc0504008fe:	0009f797          	auipc	a5,0x9f
ffffffc050400902:	8c278793          	addi	a5,a5,-1854 # ffffffc05049f1c0 <pcb>
ffffffc050400906:	67dc                	ld	a5,136(a5)
ffffffc050400908:	00005697          	auipc	a3,0x5
ffffffc05040090c:	fa668693          	addi	a3,a3,-90 # ffffffc0504058ae <alloc_page_helper>
ffffffc050400910:	863e                	mv	a2,a5
ffffffc050400912:	853a                	mv	a0,a4
ffffffc050400914:	c05ff0ef          	jal	ra,ffffffc050400518 <load_elf>
ffffffc050400918:	fca43823          	sd	a0,-48(s0)
ffffffc05040091c:	0009f797          	auipc	a5,0x9f
ffffffc050400920:	8a478793          	addi	a5,a5,-1884 # ffffffc05049f1c0 <pcb>
ffffffc050400924:	0007b823          	sd	zero,16(a5)
ffffffc050400928:	0009f797          	auipc	a5,0x9f
ffffffc05040092c:	89878793          	addi	a5,a5,-1896 # ffffffc05049f1c0 <pcb>
ffffffc050400930:	4709                	li	a4,2
ffffffc050400932:	c7f8                	sw	a4,76(a5)
ffffffc050400934:	0009f797          	auipc	a5,0x9f
ffffffc050400938:	88c78793          	addi	a5,a5,-1908 # ffffffc05049f1c0 <pcb>
ffffffc05040093c:	4709                	li	a4,2
ffffffc05040093e:	cbb8                	sw	a4,80(a5)
ffffffc050400940:	0009f797          	auipc	a5,0x9f
ffffffc050400944:	88078793          	addi	a5,a5,-1920 # ffffffc05049f1c0 <pcb>
ffffffc050400948:	0407ac23          	sw	zero,88(a5)
ffffffc05040094c:	0009f797          	auipc	a5,0x9f
ffffffc050400950:	87478793          	addi	a5,a5,-1932 # ffffffc05049f1c0 <pcb>
ffffffc050400954:	0407ae23          	sw	zero,92(a5)
ffffffc050400958:	0009f797          	auipc	a5,0x9f
ffffffc05040095c:	86878793          	addi	a5,a5,-1944 # ffffffc05049f1c0 <pcb>
ffffffc050400960:	0607a023          	sw	zero,96(a5)
ffffffc050400964:	0009f797          	auipc	a5,0x9f
ffffffc050400968:	85c78793          	addi	a5,a5,-1956 # ffffffc05049f1c0 <pcb>
ffffffc05040096c:	4711                	li	a4,4
ffffffc05040096e:	d3f8                	sw	a4,100(a5)
ffffffc050400970:	5e2030ef          	jal	ra,ffffffc050403f52 <get_ticks>
ffffffc050400974:	87aa                	mv	a5,a0
ffffffc050400976:	0007871b          	sext.w	a4,a5
ffffffc05040097a:	0009f797          	auipc	a5,0x9f
ffffffc05040097e:	84678793          	addi	a5,a5,-1978 # ffffffc05049f1c0 <pcb>
ffffffc050400982:	d7b8                	sw	a4,104(a5)
ffffffc050400984:	0009f797          	auipc	a5,0x9f
ffffffc050400988:	83c78793          	addi	a5,a5,-1988 # ffffffc05049f1c0 <pcb>
ffffffc05040098c:	4705                	li	a4,1
ffffffc05040098e:	cbf8                	sw	a4,84(a5)
ffffffc050400990:	0009f797          	auipc	a5,0x9f
ffffffc050400994:	83078793          	addi	a5,a5,-2000 # ffffffc05049f1c0 <pcb>
ffffffc050400998:	470d                	li	a4,3
ffffffc05040099a:	08e7a023          	sw	a4,128(a5)
ffffffc05040099e:	0009f517          	auipc	a0,0x9f
ffffffc0504009a2:	85a50513          	addi	a0,a0,-1958 # ffffffc05049f1f8 <pcb+0x38>
ffffffc0504009a6:	9cfff0ef          	jal	ra,ffffffc050400374 <init_list_head>
ffffffc0504009aa:	0009f517          	auipc	a0,0x9f
ffffffc0504009ae:	88650513          	addi	a0,a0,-1914 # ffffffc05049f230 <pcb+0x70>
ffffffc0504009b2:	9c3ff0ef          	jal	ra,ffffffc050400374 <init_list_head>
ffffffc0504009b6:	0009f797          	auipc	a5,0x9f
ffffffc0504009ba:	80a78793          	addi	a5,a5,-2038 # ffffffc05049f1c0 <pcb>
ffffffc0504009be:	6388                	ld	a0,0(a5)
ffffffc0504009c0:	0009f797          	auipc	a5,0x9f
ffffffc0504009c4:	80078793          	addi	a5,a5,-2048 # ffffffc05049f1c0 <pcb>
ffffffc0504009c8:	678c                	ld	a1,8(a5)
ffffffc0504009ca:	4781                	li	a5,0
ffffffc0504009cc:	4701                	li	a4,0
ffffffc0504009ce:	0009e697          	auipc	a3,0x9e
ffffffc0504009d2:	7f268693          	addi	a3,a3,2034 # ffffffc05049f1c0 <pcb>
ffffffc0504009d6:	fd043603          	ld	a2,-48(s0)
ffffffc0504009da:	d1dff0ef          	jal	ra,ffffffc0504006f6 <init_pcb_stack>
ffffffc0504009de:	0009e597          	auipc	a1,0x9e
ffffffc0504009e2:	7ca58593          	addi	a1,a1,1994 # ffffffc05049f1a8 <ready_queue>
ffffffc0504009e6:	0009f517          	auipc	a0,0x9f
ffffffc0504009ea:	80250513          	addi	a0,a0,-2046 # ffffffc05049f1e8 <pcb+0x28>
ffffffc0504009ee:	9adff0ef          	jal	ra,ffffffc05040039a <list_add>
ffffffc0504009f2:	4785                	li	a5,1
ffffffc0504009f4:	fcf42e23          	sw	a5,-36(s0)
ffffffc0504009f8:	a069                	j	ffffffc050400a82 <init_pcb+0x270>
ffffffc0504009fa:	0009e697          	auipc	a3,0x9e
ffffffc0504009fe:	7c668693          	addi	a3,a3,1990 # ffffffc05049f1c0 <pcb>
ffffffc050400a02:	fdc42703          	lw	a4,-36(s0)
ffffffc050400a06:	87ba                	mv	a5,a4
ffffffc050400a08:	078a                	slli	a5,a5,0x2
ffffffc050400a0a:	97ba                	add	a5,a5,a4
ffffffc050400a0c:	0796                	slli	a5,a5,0x5
ffffffc050400a0e:	97b6                	add	a5,a5,a3
ffffffc050400a10:	4711                	li	a4,4
ffffffc050400a12:	cbb8                	sw	a4,80(a5)
ffffffc050400a14:	fdc42783          	lw	a5,-36(s0)
ffffffc050400a18:	2785                	addiw	a5,a5,1
ffffffc050400a1a:	0007869b          	sext.w	a3,a5
ffffffc050400a1e:	0009e617          	auipc	a2,0x9e
ffffffc050400a22:	7a260613          	addi	a2,a2,1954 # ffffffc05049f1c0 <pcb>
ffffffc050400a26:	fdc42703          	lw	a4,-36(s0)
ffffffc050400a2a:	87ba                	mv	a5,a4
ffffffc050400a2c:	078a                	slli	a5,a5,0x2
ffffffc050400a2e:	97ba                	add	a5,a5,a4
ffffffc050400a30:	0796                	slli	a5,a5,0x5
ffffffc050400a32:	97b2                	add	a5,a5,a2
ffffffc050400a34:	c7b4                	sw	a3,72(a5)
ffffffc050400a36:	fdc42703          	lw	a4,-36(s0)
ffffffc050400a3a:	87ba                	mv	a5,a4
ffffffc050400a3c:	078a                	slli	a5,a5,0x2
ffffffc050400a3e:	97ba                	add	a5,a5,a4
ffffffc050400a40:	0796                	slli	a5,a5,0x5
ffffffc050400a42:	03078713          	addi	a4,a5,48
ffffffc050400a46:	0009e797          	auipc	a5,0x9e
ffffffc050400a4a:	77a78793          	addi	a5,a5,1914 # ffffffc05049f1c0 <pcb>
ffffffc050400a4e:	97ba                	add	a5,a5,a4
ffffffc050400a50:	07a1                	addi	a5,a5,8
ffffffc050400a52:	853e                	mv	a0,a5
ffffffc050400a54:	921ff0ef          	jal	ra,ffffffc050400374 <init_list_head>
ffffffc050400a58:	fdc42703          	lw	a4,-36(s0)
ffffffc050400a5c:	87ba                	mv	a5,a4
ffffffc050400a5e:	078a                	slli	a5,a5,0x2
ffffffc050400a60:	97ba                	add	a5,a5,a4
ffffffc050400a62:	0796                	slli	a5,a5,0x5
ffffffc050400a64:	07078713          	addi	a4,a5,112
ffffffc050400a68:	0009e797          	auipc	a5,0x9e
ffffffc050400a6c:	75878793          	addi	a5,a5,1880 # ffffffc05049f1c0 <pcb>
ffffffc050400a70:	97ba                	add	a5,a5,a4
ffffffc050400a72:	853e                	mv	a0,a5
ffffffc050400a74:	901ff0ef          	jal	ra,ffffffc050400374 <init_list_head>
ffffffc050400a78:	fdc42783          	lw	a5,-36(s0)
ffffffc050400a7c:	2785                	addiw	a5,a5,1
ffffffc050400a7e:	fcf42e23          	sw	a5,-36(s0)
ffffffc050400a82:	fdc42783          	lw	a5,-36(s0)
ffffffc050400a86:	0007871b          	sext.w	a4,a5
ffffffc050400a8a:	47bd                	li	a5,15
ffffffc050400a8c:	f6e7d7e3          	bge	a5,a4,ffffffc0504009fa <init_pcb+0x1e8>
ffffffc050400a90:	0009e797          	auipc	a5,0x9e
ffffffc050400a94:	71078793          	addi	a5,a5,1808 # ffffffc05049f1a0 <current_running_0>
ffffffc050400a98:	00007717          	auipc	a4,0x7
ffffffc050400a9c:	d8870713          	addi	a4,a4,-632 # ffffffc050407820 <pid0_pcb_0>
ffffffc050400aa0:	e398                	sd	a4,0(a5)
ffffffc050400aa2:	0009f797          	auipc	a5,0x9f
ffffffc050400aa6:	11e78793          	addi	a5,a5,286 # ffffffc05049fbc0 <current_running_1>
ffffffc050400aaa:	00007717          	auipc	a4,0x7
ffffffc050400aae:	e1670713          	addi	a4,a4,-490 # ffffffc0504078c0 <pid0_pcb_1>
ffffffc050400ab2:	e398                	sd	a4,0(a5)
ffffffc050400ab4:	0001                	nop
ffffffc050400ab6:	70a2                	ld	ra,40(sp)
ffffffc050400ab8:	7402                	ld	s0,32(sp)
ffffffc050400aba:	64e2                	ld	s1,24(sp)
ffffffc050400abc:	6145                	addi	sp,sp,48
ffffffc050400abe:	8082                	ret

ffffffc050400ac0 <err_syscall>:
ffffffc050400ac0:	1101                	addi	sp,sp,-32
ffffffc050400ac2:	ec06                	sd	ra,24(sp)
ffffffc050400ac4:	e822                	sd	s0,16(sp)
ffffffc050400ac6:	1000                	addi	s0,sp,32
ffffffc050400ac8:	fea43423          	sd	a0,-24(s0)
ffffffc050400acc:	00006517          	auipc	a0,0x6
ffffffc050400ad0:	33c50513          	addi	a0,a0,828 # ffffffc050406e08 <get_elf_file+0xa8>
ffffffc050400ad4:	1aa060ef          	jal	ra,ffffffc050406c7e <printk>
ffffffc050400ad8:	a001                	j	ffffffc050400ad8 <err_syscall+0x18>

ffffffc050400ada <init_syscall>:
ffffffc050400ada:	1101                	addi	sp,sp,-32
ffffffc050400adc:	ec06                	sd	ra,24(sp)
ffffffc050400ade:	e822                	sd	s0,16(sp)
ffffffc050400ae0:	1000                	addi	s0,sp,32
ffffffc050400ae2:	fe042623          	sw	zero,-20(s0)
ffffffc050400ae6:	a01d                	j	ffffffc050400b0c <init_syscall+0x32>
ffffffc050400ae8:	000a0717          	auipc	a4,0xa0
ffffffc050400aec:	2f070713          	addi	a4,a4,752 # ffffffc0504a0dd8 <syscall>
ffffffc050400af0:	fec42783          	lw	a5,-20(s0)
ffffffc050400af4:	078e                	slli	a5,a5,0x3
ffffffc050400af6:	97ba                	add	a5,a5,a4
ffffffc050400af8:	00000717          	auipc	a4,0x0
ffffffc050400afc:	fc870713          	addi	a4,a4,-56 # ffffffc050400ac0 <err_syscall>
ffffffc050400b00:	e398                	sd	a4,0(a5)
ffffffc050400b02:	fec42783          	lw	a5,-20(s0)
ffffffc050400b06:	2785                	addiw	a5,a5,1
ffffffc050400b08:	fef42623          	sw	a5,-20(s0)
ffffffc050400b0c:	fec42783          	lw	a5,-20(s0)
ffffffc050400b10:	0007871b          	sext.w	a4,a5
ffffffc050400b14:	03f00793          	li	a5,63
ffffffc050400b18:	fce7d8e3          	bge	a5,a4,ffffffc050400ae8 <init_syscall+0xe>
ffffffc050400b1c:	000a0797          	auipc	a5,0xa0
ffffffc050400b20:	2bc78793          	addi	a5,a5,700 # ffffffc0504a0dd8 <syscall>
ffffffc050400b24:	00002717          	auipc	a4,0x2
ffffffc050400b28:	21c70713          	addi	a4,a4,540 # ffffffc050402d40 <do_spawn>
ffffffc050400b2c:	e398                	sd	a4,0(a5)
ffffffc050400b2e:	000a0797          	auipc	a5,0xa0
ffffffc050400b32:	2aa78793          	addi	a5,a5,682 # ffffffc0504a0dd8 <syscall>
ffffffc050400b36:	00002717          	auipc	a4,0x2
ffffffc050400b3a:	5bc70713          	addi	a4,a4,1468 # ffffffc0504030f2 <do_exit>
ffffffc050400b3e:	e798                	sd	a4,8(a5)
ffffffc050400b40:	000a0797          	auipc	a5,0xa0
ffffffc050400b44:	29878793          	addi	a5,a5,664 # ffffffc0504a0dd8 <syscall>
ffffffc050400b48:	00002717          	auipc	a4,0x2
ffffffc050400b4c:	ed270713          	addi	a4,a4,-302 # ffffffc050402a1a <do_sleep>
ffffffc050400b50:	eb98                	sd	a4,16(a5)
ffffffc050400b52:	000a0797          	auipc	a5,0xa0
ffffffc050400b56:	28678793          	addi	a5,a5,646 # ffffffc0504a0dd8 <syscall>
ffffffc050400b5a:	00002717          	auipc	a4,0x2
ffffffc050400b5e:	24070713          	addi	a4,a4,576 # ffffffc050402d9a <do_kill>
ffffffc050400b62:	ef98                	sd	a4,24(a5)
ffffffc050400b64:	000a0797          	auipc	a5,0xa0
ffffffc050400b68:	27478793          	addi	a5,a5,628 # ffffffc0504a0dd8 <syscall>
ffffffc050400b6c:	00002717          	auipc	a4,0x2
ffffffc050400b70:	6a270713          	addi	a4,a4,1698 # ffffffc05040320e <do_waitpid>
ffffffc050400b74:	f398                	sd	a4,32(a5)
ffffffc050400b76:	000a0797          	auipc	a5,0xa0
ffffffc050400b7a:	26278793          	addi	a5,a5,610 # ffffffc0504a0dd8 <syscall>
ffffffc050400b7e:	00002717          	auipc	a4,0x2
ffffffc050400b82:	04c70713          	addi	a4,a4,76 # ffffffc050402bca <do_ps>
ffffffc050400b86:	f798                	sd	a4,40(a5)
ffffffc050400b88:	000a0797          	auipc	a5,0xa0
ffffffc050400b8c:	25078793          	addi	a5,a5,592 # ffffffc0504a0dd8 <syscall>
ffffffc050400b90:	00002717          	auipc	a4,0x2
ffffffc050400b94:	79c70713          	addi	a4,a4,1948 # ffffffc05040332c <do_getpid>
ffffffc050400b98:	fb98                	sd	a4,48(a5)
ffffffc050400b9a:	000a0797          	auipc	a5,0xa0
ffffffc050400b9e:	23e78793          	addi	a5,a5,574 # ffffffc0504a0dd8 <syscall>
ffffffc050400ba2:	00002717          	auipc	a4,0x2
ffffffc050400ba6:	c3670713          	addi	a4,a4,-970 # ffffffc0504027d8 <do_scheduler>
ffffffc050400baa:	ff98                	sd	a4,56(a5)
ffffffc050400bac:	000a0797          	auipc	a5,0xa0
ffffffc050400bb0:	22c78793          	addi	a5,a5,556 # ffffffc0504a0dd8 <syscall>
ffffffc050400bb4:	00001717          	auipc	a4,0x1
ffffffc050400bb8:	41e70713          	addi	a4,a4,1054 # ffffffc050401fd2 <mutex_get>
ffffffc050400bbc:	e3b8                	sd	a4,64(a5)
ffffffc050400bbe:	000a0797          	auipc	a5,0xa0
ffffffc050400bc2:	21a78793          	addi	a5,a5,538 # ffffffc0504a0dd8 <syscall>
ffffffc050400bc6:	00001717          	auipc	a4,0x1
ffffffc050400bca:	4f470713          	addi	a4,a4,1268 # ffffffc0504020ba <mutex_lock>
ffffffc050400bce:	e7b8                	sd	a4,72(a5)
ffffffc050400bd0:	000a0797          	auipc	a5,0xa0
ffffffc050400bd4:	20878793          	addi	a5,a5,520 # ffffffc0504a0dd8 <syscall>
ffffffc050400bd8:	00001717          	auipc	a4,0x1
ffffffc050400bdc:	55c70713          	addi	a4,a4,1372 # ffffffc050402134 <mutex_unlock>
ffffffc050400be0:	ebb8                	sd	a4,80(a5)
ffffffc050400be2:	000a0797          	auipc	a5,0xa0
ffffffc050400be6:	1f678793          	addi	a5,a5,502 # ffffffc0504a0dd8 <syscall>
ffffffc050400bea:	00001717          	auipc	a4,0x1
ffffffc050400bee:	5c470713          	addi	a4,a4,1476 # ffffffc0504021ae <mutex_destory>
ffffffc050400bf2:	efb8                	sd	a4,88(a5)
ffffffc050400bf4:	000a0797          	auipc	a5,0xa0
ffffffc050400bf8:	1e478793          	addi	a5,a5,484 # ffffffc0504a0dd8 <syscall>
ffffffc050400bfc:	00001717          	auipc	a4,0x1
ffffffc050400c00:	62870713          	addi	a4,a4,1576 # ffffffc050402224 <mutex_trylock>
ffffffc050400c04:	f3b8                	sd	a4,96(a5)
ffffffc050400c06:	000a0797          	auipc	a5,0xa0
ffffffc050400c0a:	1d278793          	addi	a5,a5,466 # ffffffc0504a0dd8 <syscall>
ffffffc050400c0e:	00003717          	auipc	a4,0x3
ffffffc050400c12:	5e870713          	addi	a4,a4,1512 # ffffffc0504041f6 <smp_get>
ffffffc050400c16:	f7b8                	sd	a4,104(a5)
ffffffc050400c18:	000a0797          	auipc	a5,0xa0
ffffffc050400c1c:	1c078793          	addi	a5,a5,448 # ffffffc0504a0dd8 <syscall>
ffffffc050400c20:	00003717          	auipc	a4,0x3
ffffffc050400c24:	67470713          	addi	a4,a4,1652 # ffffffc050404294 <smp_down>
ffffffc050400c28:	fbb8                	sd	a4,112(a5)
ffffffc050400c2a:	000a0797          	auipc	a5,0xa0
ffffffc050400c2e:	1ae78793          	addi	a5,a5,430 # ffffffc0504a0dd8 <syscall>
ffffffc050400c32:	00003717          	auipc	a4,0x3
ffffffc050400c36:	6d270713          	addi	a4,a4,1746 # ffffffc050404304 <smp_up>
ffffffc050400c3a:	ffb8                	sd	a4,120(a5)
ffffffc050400c3c:	000a0797          	auipc	a5,0xa0
ffffffc050400c40:	19c78793          	addi	a5,a5,412 # ffffffc0504a0dd8 <syscall>
ffffffc050400c44:	00003717          	auipc	a4,0x3
ffffffc050400c48:	73070713          	addi	a4,a4,1840 # ffffffc050404374 <smp_destory>
ffffffc050400c4c:	e3d8                	sd	a4,128(a5)
ffffffc050400c4e:	000a0797          	auipc	a5,0xa0
ffffffc050400c52:	18a78793          	addi	a5,a5,394 # ffffffc0504a0dd8 <syscall>
ffffffc050400c56:	00004717          	auipc	a4,0x4
ffffffc050400c5a:	86270713          	addi	a4,a4,-1950 # ffffffc0504044b8 <barrier_get>
ffffffc050400c5e:	e7d8                	sd	a4,136(a5)
ffffffc050400c60:	000a0797          	auipc	a5,0xa0
ffffffc050400c64:	17878793          	addi	a5,a5,376 # ffffffc0504a0dd8 <syscall>
ffffffc050400c68:	00004717          	auipc	a4,0x4
ffffffc050400c6c:	8ee70713          	addi	a4,a4,-1810 # ffffffc050404556 <barrier_wait>
ffffffc050400c70:	ebd8                	sd	a4,144(a5)
ffffffc050400c72:	000a0797          	auipc	a5,0xa0
ffffffc050400c76:	16678793          	addi	a5,a5,358 # ffffffc0504a0dd8 <syscall>
ffffffc050400c7a:	00004717          	auipc	a4,0x4
ffffffc050400c7e:	94c70713          	addi	a4,a4,-1716 # ffffffc0504045c6 <barrier_destory>
ffffffc050400c82:	efd8                	sd	a4,152(a5)
ffffffc050400c84:	000a0797          	auipc	a5,0xa0
ffffffc050400c88:	15478793          	addi	a5,a5,340 # ffffffc0504a0dd8 <syscall>
ffffffc050400c8c:	00001717          	auipc	a4,0x1
ffffffc050400c90:	ebc70713          	addi	a4,a4,-324 # ffffffc050401b48 <screen_write>
ffffffc050400c94:	f3d8                	sd	a4,160(a5)
ffffffc050400c96:	000a0797          	auipc	a5,0xa0
ffffffc050400c9a:	14278793          	addi	a5,a5,322 # ffffffc0504a0dd8 <syscall>
ffffffc050400c9e:	fffff717          	auipc	a4,0xfffff
ffffffc050400ca2:	73e70713          	addi	a4,a4,1854 # ffffffc0504003dc <sbi_console_getchar>
ffffffc050400ca6:	f7d8                	sd	a4,168(a5)
ffffffc050400ca8:	000a0797          	auipc	a5,0xa0
ffffffc050400cac:	13078793          	addi	a5,a5,304 # ffffffc0504a0dd8 <syscall>
ffffffc050400cb0:	00001717          	auipc	a4,0x1
ffffffc050400cb4:	da870713          	addi	a4,a4,-600 # ffffffc050401a58 <screen_move_cursor>
ffffffc050400cb8:	fbd8                	sd	a4,176(a5)
ffffffc050400cba:	000a0797          	auipc	a5,0xa0
ffffffc050400cbe:	11e78793          	addi	a5,a5,286 # ffffffc0504a0dd8 <syscall>
ffffffc050400cc2:	00001717          	auipc	a4,0x1
ffffffc050400cc6:	f3c70713          	addi	a4,a4,-196 # ffffffc050401bfe <screen_reflush>
ffffffc050400cca:	ffd8                	sd	a4,184(a5)
ffffffc050400ccc:	000a0797          	auipc	a5,0xa0
ffffffc050400cd0:	10c78793          	addi	a5,a5,268 # ffffffc0504a0dd8 <syscall>
ffffffc050400cd4:	00001717          	auipc	a4,0x1
ffffffc050400cd8:	ed270713          	addi	a4,a4,-302 # ffffffc050401ba6 <screen_read>
ffffffc050400cdc:	e3f8                	sd	a4,192(a5)
ffffffc050400cde:	000a0797          	auipc	a5,0xa0
ffffffc050400ce2:	0fa78793          	addi	a5,a5,250 # ffffffc0504a0dd8 <syscall>
ffffffc050400ce6:	00001717          	auipc	a4,0x1
ffffffc050400cea:	e6270713          	addi	a4,a4,-414 # ffffffc050401b48 <screen_write>
ffffffc050400cee:	e7f8                	sd	a4,200(a5)
ffffffc050400cf0:	000a0797          	auipc	a5,0xa0
ffffffc050400cf4:	0e878793          	addi	a5,a5,232 # ffffffc0504a0dd8 <syscall>
ffffffc050400cf8:	00001717          	auipc	a4,0x1
ffffffc050400cfc:	c9a70713          	addi	a4,a4,-870 # ffffffc050401992 <screen_clear>
ffffffc050400d00:	eff8                	sd	a4,216(a5)
ffffffc050400d02:	000a0797          	auipc	a5,0xa0
ffffffc050400d06:	0d678793          	addi	a5,a5,214 # ffffffc0504a0dd8 <syscall>
ffffffc050400d0a:	00003717          	auipc	a4,0x3
ffffffc050400d0e:	28c70713          	addi	a4,a4,652 # ffffffc050403f96 <get_time_base>
ffffffc050400d12:	fbf8                	sd	a4,240(a5)
ffffffc050400d14:	000a0797          	auipc	a5,0xa0
ffffffc050400d18:	0c478793          	addi	a5,a5,196 # ffffffc0504a0dd8 <syscall>
ffffffc050400d1c:	00003717          	auipc	a4,0x3
ffffffc050400d20:	23670713          	addi	a4,a4,566 # ffffffc050403f52 <get_ticks>
ffffffc050400d24:	fff8                	sd	a4,248(a5)
ffffffc050400d26:	000a0797          	auipc	a5,0xa0
ffffffc050400d2a:	0b278793          	addi	a5,a5,178 # ffffffc0504a0dd8 <syscall>
ffffffc050400d2e:	00002717          	auipc	a4,0x2
ffffffc050400d32:	e1070713          	addi	a4,a4,-496 # ffffffc050402b3e <do_priority>
ffffffc050400d36:	f3f8                	sd	a4,224(a5)
ffffffc050400d38:	000a0797          	auipc	a5,0xa0
ffffffc050400d3c:	0a078793          	addi	a5,a5,160 # ffffffc0504a0dd8 <syscall>
ffffffc050400d40:	00002717          	auipc	a4,0x2
ffffffc050400d44:	e6a70713          	addi	a4,a4,-406 # ffffffc050402baa <do_fork>
ffffffc050400d48:	f7f8                	sd	a4,232(a5)
ffffffc050400d4a:	000a0797          	auipc	a5,0xa0
ffffffc050400d4e:	08e78793          	addi	a5,a5,142 # ffffffc0504a0dd8 <syscall>
ffffffc050400d52:	00001717          	auipc	a4,0x1
ffffffc050400d56:	e7070713          	addi	a4,a4,-400 # ffffffc050401bc2 <screen_getchar>
ffffffc050400d5a:	10e7b023          	sd	a4,256(a5)
ffffffc050400d5e:	000a0797          	auipc	a5,0xa0
ffffffc050400d62:	07a78793          	addi	a5,a5,122 # ffffffc0504a0dd8 <syscall>
ffffffc050400d66:	00003717          	auipc	a4,0x3
ffffffc050400d6a:	30470713          	addi	a4,a4,772 # ffffffc05040406a <do_getwalltime>
ffffffc050400d6e:	10e7b423          	sd	a4,264(a5)
ffffffc050400d72:	000a0797          	auipc	a5,0xa0
ffffffc050400d76:	06678793          	addi	a5,a5,102 # ffffffc0504a0dd8 <syscall>
ffffffc050400d7a:	00004717          	auipc	a4,0x4
ffffffc050400d7e:	dc670713          	addi	a4,a4,-570 # ffffffc050404b40 <kernel_mbox_open>
ffffffc050400d82:	10e7b823          	sd	a4,272(a5)
ffffffc050400d86:	000a0797          	auipc	a5,0xa0
ffffffc050400d8a:	05278793          	addi	a5,a5,82 # ffffffc0504a0dd8 <syscall>
ffffffc050400d8e:	00004717          	auipc	a4,0x4
ffffffc050400d92:	08070713          	addi	a4,a4,128 # ffffffc050404e0e <kernel_mbox_close>
ffffffc050400d96:	10e7bc23          	sd	a4,280(a5)
ffffffc050400d9a:	000a0797          	auipc	a5,0xa0
ffffffc050400d9e:	03e78793          	addi	a5,a5,62 # ffffffc0504a0dd8 <syscall>
ffffffc050400da2:	00004717          	auipc	a4,0x4
ffffffc050400da6:	f0c70713          	addi	a4,a4,-244 # ffffffc050404cae <kernel_mbox_send>
ffffffc050400daa:	12e7b023          	sd	a4,288(a5)
ffffffc050400dae:	000a0797          	auipc	a5,0xa0
ffffffc050400db2:	02a78793          	addi	a5,a5,42 # ffffffc0504a0dd8 <syscall>
ffffffc050400db6:	00004717          	auipc	a4,0x4
ffffffc050400dba:	fa870713          	addi	a4,a4,-88 # ffffffc050404d5e <kernel_mbox_recv>
ffffffc050400dbe:	12e7b423          	sd	a4,296(a5)
ffffffc050400dc2:	000a0797          	auipc	a5,0xa0
ffffffc050400dc6:	01678793          	addi	a5,a5,22 # ffffffc0504a0dd8 <syscall>
ffffffc050400dca:	00004717          	auipc	a4,0x4
ffffffc050400dce:	11070713          	addi	a4,a4,272 # ffffffc050404eda <kernel_mbox_act>
ffffffc050400dd2:	12e7b823          	sd	a4,304(a5)
ffffffc050400dd6:	000a0797          	auipc	a5,0xa0
ffffffc050400dda:	00278793          	addi	a5,a5,2 # ffffffc0504a0dd8 <syscall>
ffffffc050400dde:	00002717          	auipc	a4,0x2
ffffffc050400de2:	59270713          	addi	a4,a4,1426 # ffffffc050403370 <do_setmask>
ffffffc050400de6:	12e7bc23          	sd	a4,312(a5)
ffffffc050400dea:	000a0797          	auipc	a5,0xa0
ffffffc050400dee:	fee78793          	addi	a5,a5,-18 # ffffffc0504a0dd8 <syscall>
ffffffc050400df2:	00002717          	auipc	a4,0x2
ffffffc050400df6:	62270713          	addi	a4,a4,1570 # ffffffc050403414 <do_exec>
ffffffc050400dfa:	14e7b023          	sd	a4,320(a5)
ffffffc050400dfe:	000a0797          	auipc	a5,0xa0
ffffffc050400e02:	fda78793          	addi	a5,a5,-38 # ffffffc0504a0dd8 <syscall>
ffffffc050400e06:	00005717          	auipc	a4,0x5
ffffffc050400e0a:	a5470713          	addi	a4,a4,-1452 # ffffffc05040585a <shm_page_get>
ffffffc050400e0e:	14e7b423          	sd	a4,328(a5)
ffffffc050400e12:	000a0797          	auipc	a5,0xa0
ffffffc050400e16:	fc678793          	addi	a5,a5,-58 # ffffffc0504a0dd8 <syscall>
ffffffc050400e1a:	00005717          	auipc	a4,0x5
ffffffc050400e1e:	a5670713          	addi	a4,a4,-1450 # ffffffc050405870 <shm_page_dt>
ffffffc050400e22:	14e7b823          	sd	a4,336(a5)
ffffffc050400e26:	000a0797          	auipc	a5,0xa0
ffffffc050400e2a:	fb278793          	addi	a5,a5,-78 # ffffffc0504a0dd8 <syscall>
ffffffc050400e2e:	00001717          	auipc	a4,0x1
ffffffc050400e32:	47070713          	addi	a4,a4,1136 # ffffffc05040229e <do_binsemget>
ffffffc050400e36:	14e7bc23          	sd	a4,344(a5)
ffffffc050400e3a:	000a0797          	auipc	a5,0xa0
ffffffc050400e3e:	f9e78793          	addi	a5,a5,-98 # ffffffc0504a0dd8 <syscall>
ffffffc050400e42:	00001717          	auipc	a4,0x1
ffffffc050400e46:	48070713          	addi	a4,a4,1152 # ffffffc0504022c2 <do_binsemop>
ffffffc050400e4a:	16e7b023          	sd	a4,352(a5)
ffffffc050400e4e:	000a0797          	auipc	a5,0xa0
ffffffc050400e52:	f8a78793          	addi	a5,a5,-118 # ffffffc0504a0dd8 <syscall>
ffffffc050400e56:	00003717          	auipc	a4,0x3
ffffffc050400e5a:	bb070713          	addi	a4,a4,-1104 # ffffffc050403a06 <do_execshow>
ffffffc050400e5e:	16e7b423          	sd	a4,360(a5)
ffffffc050400e62:	000a0797          	auipc	a5,0xa0
ffffffc050400e66:	f7678793          	addi	a5,a5,-138 # ffffffc0504a0dd8 <syscall>
ffffffc050400e6a:	00003717          	auipc	a4,0x3
ffffffc050400e6e:	c4470713          	addi	a4,a4,-956 # ffffffc050403aae <do_thread_create>
ffffffc050400e72:	16e7b823          	sd	a4,368(a5)
ffffffc050400e76:	0009f517          	auipc	a0,0x9f
ffffffc050400e7a:	d5250513          	addi	a0,a0,-686 # ffffffc05049fbc8 <sleep_queue>
ffffffc050400e7e:	cf6ff0ef          	jal	ra,ffffffc050400374 <init_list_head>
ffffffc050400e82:	0001                	nop
ffffffc050400e84:	60e2                	ld	ra,24(sp)
ffffffc050400e86:	6442                	ld	s0,16(sp)
ffffffc050400e88:	6105                	addi	sp,sp,32
ffffffc050400e8a:	8082                	ret

ffffffc050400e8c <main>:
ffffffc050400e8c:	1141                	addi	sp,sp,-16
ffffffc050400e8e:	e406                	sd	ra,8(sp)
ffffffc050400e90:	e022                	sd	s0,0(sp)
ffffffc050400e92:	0800                	addi	s0,sp,16
ffffffc050400e94:	c38ff0ef          	jal	ra,ffffffc0504002cc <get_current_cpu_id>
ffffffc050400e98:	87aa                	mv	a5,a0
ffffffc050400e9a:	e3c1                	bnez	a5,ffffffc050400f1a <main+0x8e>
ffffffc050400e9c:	da6ff0ef          	jal	ra,ffffffc050400442 <local_flush_tlb_all>
ffffffc050400ea0:	973ff0ef          	jal	ra,ffffffc050400812 <init_pcb>
ffffffc050400ea4:	0009e797          	auipc	a5,0x9e
ffffffc050400ea8:	31478793          	addi	a5,a5,788 # ffffffc05049f1b8 <current_running>
ffffffc050400eac:	0009e717          	auipc	a4,0x9e
ffffffc050400eb0:	2f470713          	addi	a4,a4,756 # ffffffc05049f1a0 <current_running_0>
ffffffc050400eb4:	e398                	sd	a4,0(a5)
ffffffc050400eb6:	00006517          	auipc	a0,0x6
ffffffc050400eba:	f7a50513          	addi	a0,a0,-134 # ffffffc050406e30 <get_elf_file+0xd0>
ffffffc050400ebe:	5c1050ef          	jal	ra,ffffffc050406c7e <printk>
ffffffc050400ec2:	4501                	li	a0,0
ffffffc050400ec4:	d56ff0ef          	jal	ra,ffffffc05040041a <sbi_read_fdt>
ffffffc050400ec8:	87aa                	mv	a5,a0
ffffffc050400eca:	0007871b          	sext.w	a4,a5
ffffffc050400ece:	84818793          	addi	a5,gp,-1976 # ffffffc050455410 <time_base>
ffffffc050400ed2:	c398                	sw	a4,0(a5)
ffffffc050400ed4:	84818793          	addi	a5,gp,-1976 # ffffffc050455410 <time_base>
ffffffc050400ed8:	439c                	lw	a5,0(a5)
ffffffc050400eda:	85be                	mv	a1,a5
ffffffc050400edc:	00006517          	auipc	a0,0x6
ffffffc050400ee0:	f8450513          	addi	a0,a0,-124 # ffffffc050406e60 <get_elf_file+0x100>
ffffffc050400ee4:	59b050ef          	jal	ra,ffffffc050406c7e <printk>
ffffffc050400ee8:	478000ef          	jal	ra,ffffffc050401360 <init_exception>
ffffffc050400eec:	00006517          	auipc	a0,0x6
ffffffc050400ef0:	fa450513          	addi	a0,a0,-92 # ffffffc050406e90 <get_elf_file+0x130>
ffffffc050400ef4:	58b050ef          	jal	ra,ffffffc050406c7e <printk>
ffffffc050400ef8:	be3ff0ef          	jal	ra,ffffffc050400ada <init_syscall>
ffffffc050400efc:	00006517          	auipc	a0,0x6
ffffffc050400f00:	fd450513          	addi	a0,a0,-44 # ffffffc050406ed0 <get_elf_file+0x170>
ffffffc050400f04:	57b050ef          	jal	ra,ffffffc050406c7e <printk>
ffffffc050400f08:	26b000ef          	jal	ra,ffffffc050401972 <init_screen>
ffffffc050400f0c:	00006517          	auipc	a0,0x6
ffffffc050400f10:	ffc50513          	addi	a0,a0,-4 # ffffffc050406f08 <get_elf_file+0x1a8>
ffffffc050400f14:	56b050ef          	jal	ra,ffffffc050406c7e <printk>
ffffffc050400f18:	a821                	j	ffffffc050400f30 <main+0xa4>
ffffffc050400f1a:	0009e797          	auipc	a5,0x9e
ffffffc050400f1e:	29e78793          	addi	a5,a5,670 # ffffffc05049f1b8 <current_running>
ffffffc050400f22:	0009f717          	auipc	a4,0x9f
ffffffc050400f26:	c9e70713          	addi	a4,a4,-866 # ffffffc05049fbc0 <current_running_1>
ffffffc050400f2a:	e398                	sd	a4,0(a5)
ffffffc050400f2c:	434000ef          	jal	ra,ffffffc050401360 <init_exception>
ffffffc050400f30:	022030ef          	jal	ra,ffffffc050403f52 <get_ticks>
ffffffc050400f34:	872a                	mv	a4,a0
ffffffc050400f36:	6789                	lui	a5,0x2
ffffffc050400f38:	71078793          	addi	a5,a5,1808 # 2710 <_start-0xffffffc0503fd8f0>
ffffffc050400f3c:	97ba                	add	a5,a5,a4
ffffffc050400f3e:	853e                	mv	a0,a5
ffffffc050400f40:	cbaff0ef          	jal	ra,ffffffc0504003fa <sbi_set_timer>
ffffffc050400f44:	9b4ff0ef          	jal	ra,ffffffc0504000f8 <enable_interrupt>
ffffffc050400f48:	10500073          	wfi
ffffffc050400f4c:	bfe5                	j	ffffffc050400f44 <main+0xb8>

ffffffc050400f4e <sbi_sd_read>:
ffffffc050400f4e:	1101                	addi	sp,sp,-32
ffffffc050400f50:	ec22                	sd	s0,24(sp)
ffffffc050400f52:	1000                	addi	s0,sp,32
ffffffc050400f54:	87aa                	mv	a5,a0
ffffffc050400f56:	86ae                	mv	a3,a1
ffffffc050400f58:	8732                	mv	a4,a2
ffffffc050400f5a:	fef42623          	sw	a5,-20(s0)
ffffffc050400f5e:	87b6                	mv	a5,a3
ffffffc050400f60:	fef42423          	sw	a5,-24(s0)
ffffffc050400f64:	87ba                	mv	a5,a4
ffffffc050400f66:	fef42223          	sw	a5,-28(s0)
ffffffc050400f6a:	fec46783          	lwu	a5,-20(s0)
ffffffc050400f6e:	853e                	mv	a0,a5
ffffffc050400f70:	fe846783          	lwu	a5,-24(s0)
ffffffc050400f74:	85be                	mv	a1,a5
ffffffc050400f76:	fe446783          	lwu	a5,-28(s0)
ffffffc050400f7a:	863e                	mv	a2,a5
ffffffc050400f7c:	48ad                	li	a7,11
ffffffc050400f7e:	00000073          	ecall
ffffffc050400f82:	87aa                	mv	a5,a0
ffffffc050400f84:	853e                	mv	a0,a5
ffffffc050400f86:	6462                	ld	s0,24(sp)
ffffffc050400f88:	6105                	addi	sp,sp,32
ffffffc050400f8a:	8082                	ret

ffffffc050400f8c <sbi_set_timer>:
ffffffc050400f8c:	1101                	addi	sp,sp,-32
ffffffc050400f8e:	ec22                	sd	s0,24(sp)
ffffffc050400f90:	1000                	addi	s0,sp,32
ffffffc050400f92:	fea43423          	sd	a0,-24(s0)
ffffffc050400f96:	fe843503          	ld	a0,-24(s0)
ffffffc050400f9a:	4581                	li	a1,0
ffffffc050400f9c:	4601                	li	a2,0
ffffffc050400f9e:	4881                	li	a7,0
ffffffc050400fa0:	00000073          	ecall
ffffffc050400fa4:	0001                	nop
ffffffc050400fa6:	6462                	ld	s0,24(sp)
ffffffc050400fa8:	6105                	addi	sp,sp,32
ffffffc050400faa:	8082                	ret

ffffffc050400fac <kva2pa>:
ffffffc050400fac:	1101                	addi	sp,sp,-32
ffffffc050400fae:	ec22                	sd	s0,24(sp)
ffffffc050400fb0:	1000                	addi	s0,sp,32
ffffffc050400fb2:	fea43423          	sd	a0,-24(s0)
ffffffc050400fb6:	fe843703          	ld	a4,-24(s0)
ffffffc050400fba:	4785                	li	a5,1
ffffffc050400fbc:	179a                	slli	a5,a5,0x26
ffffffc050400fbe:	97ba                	add	a5,a5,a4
ffffffc050400fc0:	853e                	mv	a0,a5
ffffffc050400fc2:	6462                	ld	s0,24(sp)
ffffffc050400fc4:	6105                	addi	sp,sp,32
ffffffc050400fc6:	8082                	ret

ffffffc050400fc8 <set_pfn>:
ffffffc050400fc8:	7179                	addi	sp,sp,-48
ffffffc050400fca:	f422                	sd	s0,40(sp)
ffffffc050400fcc:	1800                	addi	s0,sp,48
ffffffc050400fce:	fca43c23          	sd	a0,-40(s0)
ffffffc050400fd2:	fcb43823          	sd	a1,-48(s0)
ffffffc050400fd6:	3ff00793          	li	a5,1023
ffffffc050400fda:	fef43423          	sd	a5,-24(s0)
ffffffc050400fde:	fe843703          	ld	a4,-24(s0)
ffffffc050400fe2:	57fd                	li	a5,-1
ffffffc050400fe4:	83a9                	srli	a5,a5,0xa
ffffffc050400fe6:	8fb9                	xor	a5,a5,a4
ffffffc050400fe8:	fef43023          	sd	a5,-32(s0)
ffffffc050400fec:	fd843783          	ld	a5,-40(s0)
ffffffc050400ff0:	6398                	ld	a4,0(a5)
ffffffc050400ff2:	fd043783          	ld	a5,-48(s0)
ffffffc050400ff6:	00a79693          	slli	a3,a5,0xa
ffffffc050400ffa:	fe043783          	ld	a5,-32(s0)
ffffffc050400ffe:	8ff5                	and	a5,a5,a3
ffffffc050401000:	8f5d                	or	a4,a4,a5
ffffffc050401002:	fd843783          	ld	a5,-40(s0)
ffffffc050401006:	e398                	sd	a4,0(a5)
ffffffc050401008:	0001                	nop
ffffffc05040100a:	7422                	ld	s0,40(sp)
ffffffc05040100c:	6145                	addi	sp,sp,48
ffffffc05040100e:	8082                	ret

ffffffc050401010 <set_attribute>:
ffffffc050401010:	1101                	addi	sp,sp,-32
ffffffc050401012:	ec22                	sd	s0,24(sp)
ffffffc050401014:	1000                	addi	s0,sp,32
ffffffc050401016:	fea43423          	sd	a0,-24(s0)
ffffffc05040101a:	feb43023          	sd	a1,-32(s0)
ffffffc05040101e:	fe843783          	ld	a5,-24(s0)
ffffffc050401022:	6398                	ld	a4,0(a5)
ffffffc050401024:	fe043783          	ld	a5,-32(s0)
ffffffc050401028:	8f5d                	or	a4,a4,a5
ffffffc05040102a:	fe843783          	ld	a5,-24(s0)
ffffffc05040102e:	e398                	sd	a4,0(a5)
ffffffc050401030:	0001                	nop
ffffffc050401032:	6462                	ld	s0,24(sp)
ffffffc050401034:	6105                	addi	sp,sp,32
ffffffc050401036:	8082                	ret

ffffffc050401038 <_panic>:
ffffffc050401038:	7179                	addi	sp,sp,-48
ffffffc05040103a:	f406                	sd	ra,40(sp)
ffffffc05040103c:	f022                	sd	s0,32(sp)
ffffffc05040103e:	1800                	addi	s0,sp,48
ffffffc050401040:	fea43423          	sd	a0,-24(s0)
ffffffc050401044:	87ae                	mv	a5,a1
ffffffc050401046:	fcc43c23          	sd	a2,-40(s0)
ffffffc05040104a:	fef42223          	sw	a5,-28(s0)
ffffffc05040104e:	fe442783          	lw	a5,-28(s0)
ffffffc050401052:	86be                	mv	a3,a5
ffffffc050401054:	fe843603          	ld	a2,-24(s0)
ffffffc050401058:	fd843583          	ld	a1,-40(s0)
ffffffc05040105c:	00006517          	auipc	a0,0x6
ffffffc050401060:	fdc50513          	addi	a0,a0,-36 # ffffffc050407038 <get_elf_file+0x2d8>
ffffffc050401064:	41b050ef          	jal	ra,ffffffc050406c7e <printk>
ffffffc050401068:	a001                	j	ffffffc050401068 <_panic+0x30>

ffffffc05040106a <reset_irq_timer>:
ffffffc05040106a:	1141                	addi	sp,sp,-16
ffffffc05040106c:	e406                	sd	ra,8(sp)
ffffffc05040106e:	e022                	sd	s0,0(sp)
ffffffc050401070:	0800                	addi	s0,sp,16
ffffffc050401072:	38d000ef          	jal	ra,ffffffc050401bfe <screen_reflush>
ffffffc050401076:	76f020ef          	jal	ra,ffffffc050403fe4 <timer_check>
ffffffc05040107a:	6d9020ef          	jal	ra,ffffffc050403f52 <get_ticks>
ffffffc05040107e:	872a                	mv	a4,a0
ffffffc050401080:	6789                	lui	a5,0x2
ffffffc050401082:	71078793          	addi	a5,a5,1808 # 2710 <_start-0xffffffc0503fd8f0>
ffffffc050401086:	97ba                	add	a5,a5,a4
ffffffc050401088:	853e                	mv	a0,a5
ffffffc05040108a:	f03ff0ef          	jal	ra,ffffffc050400f8c <sbi_set_timer>
ffffffc05040108e:	74a010ef          	jal	ra,ffffffc0504027d8 <do_scheduler>
ffffffc050401092:	0001                	nop
ffffffc050401094:	60a2                	ld	ra,8(sp)
ffffffc050401096:	6402                	ld	s0,0(sp)
ffffffc050401098:	0141                	addi	sp,sp,16
ffffffc05040109a:	8082                	ret

ffffffc05040109c <interrupt_helper>:
ffffffc05040109c:	7139                	addi	sp,sp,-64
ffffffc05040109e:	fc06                	sd	ra,56(sp)
ffffffc0504010a0:	f822                	sd	s0,48(sp)
ffffffc0504010a2:	0080                	addi	s0,sp,64
ffffffc0504010a4:	fca43c23          	sd	a0,-40(s0)
ffffffc0504010a8:	fcb43823          	sd	a1,-48(s0)
ffffffc0504010ac:	fcc43423          	sd	a2,-56(s0)
ffffffc0504010b0:	fc843703          	ld	a4,-56(s0)
ffffffc0504010b4:	57fd                	li	a5,-1
ffffffc0504010b6:	17fe                	slli	a5,a5,0x3f
ffffffc0504010b8:	8ff9                	and	a5,a5,a4
ffffffc0504010ba:	fef43423          	sd	a5,-24(s0)
ffffffc0504010be:	fc843703          	ld	a4,-56(s0)
ffffffc0504010c2:	57fd                	li	a5,-1
ffffffc0504010c4:	8385                	srli	a5,a5,0x1
ffffffc0504010c6:	8ff9                	and	a5,a5,a4
ffffffc0504010c8:	fef43023          	sd	a5,-32(s0)
ffffffc0504010cc:	fe843783          	ld	a5,-24(s0)
ffffffc0504010d0:	c395                	beqz	a5,ffffffc0504010f4 <interrupt_helper+0x58>
ffffffc0504010d2:	0009e717          	auipc	a4,0x9e
ffffffc0504010d6:	d6e70713          	addi	a4,a4,-658 # ffffffc05049ee40 <irq_table>
ffffffc0504010da:	fe043783          	ld	a5,-32(s0)
ffffffc0504010de:	078e                	slli	a5,a5,0x3
ffffffc0504010e0:	97ba                	add	a5,a5,a4
ffffffc0504010e2:	639c                	ld	a5,0(a5)
ffffffc0504010e4:	fc843603          	ld	a2,-56(s0)
ffffffc0504010e8:	fd043583          	ld	a1,-48(s0)
ffffffc0504010ec:	fd843503          	ld	a0,-40(s0)
ffffffc0504010f0:	9782                	jalr	a5
ffffffc0504010f2:	a00d                	j	ffffffc050401114 <interrupt_helper+0x78>
ffffffc0504010f4:	0009e717          	auipc	a4,0x9e
ffffffc0504010f8:	cc470713          	addi	a4,a4,-828 # ffffffc05049edb8 <exc_table>
ffffffc0504010fc:	fe043783          	ld	a5,-32(s0)
ffffffc050401100:	078e                	slli	a5,a5,0x3
ffffffc050401102:	97ba                	add	a5,a5,a4
ffffffc050401104:	639c                	ld	a5,0(a5)
ffffffc050401106:	fc843603          	ld	a2,-56(s0)
ffffffc05040110a:	fd043583          	ld	a1,-48(s0)
ffffffc05040110e:	fd843503          	ld	a0,-40(s0)
ffffffc050401112:	9782                	jalr	a5
ffffffc050401114:	0001                	nop
ffffffc050401116:	70e2                	ld	ra,56(sp)
ffffffc050401118:	7442                	ld	s0,48(sp)
ffffffc05040111a:	6121                	addi	sp,sp,64
ffffffc05040111c:	8082                	ret

ffffffc05040111e <handle_int>:
ffffffc05040111e:	7179                	addi	sp,sp,-48
ffffffc050401120:	f406                	sd	ra,40(sp)
ffffffc050401122:	f022                	sd	s0,32(sp)
ffffffc050401124:	1800                	addi	s0,sp,48
ffffffc050401126:	fea43423          	sd	a0,-24(s0)
ffffffc05040112a:	feb43023          	sd	a1,-32(s0)
ffffffc05040112e:	fcc43c23          	sd	a2,-40(s0)
ffffffc050401132:	f39ff0ef          	jal	ra,ffffffc05040106a <reset_irq_timer>
ffffffc050401136:	0001                	nop
ffffffc050401138:	70a2                	ld	ra,40(sp)
ffffffc05040113a:	7402                	ld	s0,32(sp)
ffffffc05040113c:	6145                	addi	sp,sp,48
ffffffc05040113e:	8082                	ret

ffffffc050401140 <handle_pagefault>:
ffffffc050401140:	715d                	addi	sp,sp,-80
ffffffc050401142:	e486                	sd	ra,72(sp)
ffffffc050401144:	e0a2                	sd	s0,64(sp)
ffffffc050401146:	0880                	addi	s0,sp,80
ffffffc050401148:	fca43423          	sd	a0,-56(s0)
ffffffc05040114c:	fcb43023          	sd	a1,-64(s0)
ffffffc050401150:	fac43c23          	sd	a2,-72(s0)
ffffffc050401154:	978ff0ef          	jal	ra,ffffffc0504002cc <get_current_cpu_id>
ffffffc050401158:	87aa                	mv	a5,a0
ffffffc05040115a:	c791                	beqz	a5,ffffffc050401166 <handle_pagefault+0x26>
ffffffc05040115c:	0009f797          	auipc	a5,0x9f
ffffffc050401160:	a6478793          	addi	a5,a5,-1436 # ffffffc05049fbc0 <current_running_1>
ffffffc050401164:	a029                	j	ffffffc05040116e <handle_pagefault+0x2e>
ffffffc050401166:	0009e797          	auipc	a5,0x9e
ffffffc05040116a:	03a78793          	addi	a5,a5,58 # ffffffc05049f1a0 <current_running_0>
ffffffc05040116e:	0009e717          	auipc	a4,0x9e
ffffffc050401172:	04a70713          	addi	a4,a4,74 # ffffffc05049f1b8 <current_running>
ffffffc050401176:	e31c                	sd	a5,0(a4)
ffffffc050401178:	0009e797          	auipc	a5,0x9e
ffffffc05040117c:	04078793          	addi	a5,a5,64 # ffffffc05049f1b8 <current_running>
ffffffc050401180:	639c                	ld	a5,0(a5)
ffffffc050401182:	639c                	ld	a5,0(a5)
ffffffc050401184:	0987a783          	lw	a5,152(a5)
ffffffc050401188:	cb91                	beqz	a5,ffffffc05040119c <handle_pagefault+0x5c>
ffffffc05040118a:	0009e797          	auipc	a5,0x9e
ffffffc05040118e:	02e78793          	addi	a5,a5,46 # ffffffc05049f1b8 <current_running>
ffffffc050401192:	639c                	ld	a5,0(a5)
ffffffc050401194:	639c                	ld	a5,0(a5)
ffffffc050401196:	0987a783          	lw	a5,152(a5)
ffffffc05040119a:	a801                	j	ffffffc0504011aa <handle_pagefault+0x6a>
ffffffc05040119c:	0009e797          	auipc	a5,0x9e
ffffffc0504011a0:	01c78793          	addi	a5,a5,28 # ffffffc05049f1b8 <current_running>
ffffffc0504011a4:	639c                	ld	a5,0(a5)
ffffffc0504011a6:	639c                	ld	a5,0(a5)
ffffffc0504011a8:	47bc                	lw	a5,72(a5)
ffffffc0504011aa:	fef42423          	sw	a5,-24(s0)
ffffffc0504011ae:	81c18793          	addi	a5,gp,-2020 # ffffffc0504553e4 <swapmem_head>
ffffffc0504011b2:	439c                	lw	a5,0(a5)
ffffffc0504011b4:	fef42623          	sw	a5,-20(s0)
ffffffc0504011b8:	aa89                	j	ffffffc05040130a <handle_pagefault+0x1ca>
ffffffc0504011ba:	fec42783          	lw	a5,-20(s0)
ffffffc0504011be:	37fd                	addiw	a5,a5,-1
ffffffc0504011c0:	2781                	sext.w	a5,a5
ffffffc0504011c2:	873e                	mv	a4,a5
ffffffc0504011c4:	41f7579b          	sraiw	a5,a4,0x1f
ffffffc0504011c8:	0147d79b          	srliw	a5,a5,0x14
ffffffc0504011cc:	00f706bb          	addw	a3,a4,a5
ffffffc0504011d0:	6705                	lui	a4,0x1
ffffffc0504011d2:	177d                	addi	a4,a4,-1
ffffffc0504011d4:	8f75                	and	a4,a4,a3
ffffffc0504011d6:	40f707bb          	subw	a5,a4,a5
ffffffc0504011da:	0007871b          	sext.w	a4,a5
ffffffc0504011de:	81c18793          	addi	a5,gp,-2020 # ffffffc0504553e4 <swapmem_head>
ffffffc0504011e2:	439c                	lw	a5,0(a5)
ffffffc0504011e4:	14f70c63          	beq	a4,a5,ffffffc05040133c <handle_pagefault+0x1fc>
ffffffc0504011e8:	fec42703          	lw	a4,-20(s0)
ffffffc0504011ec:	41f7579b          	sraiw	a5,a4,0x1f
ffffffc0504011f0:	0147d79b          	srliw	a5,a5,0x14
ffffffc0504011f4:	00f706bb          	addw	a3,a4,a5
ffffffc0504011f8:	6705                	lui	a4,0x1
ffffffc0504011fa:	177d                	addi	a4,a4,-1
ffffffc0504011fc:	8f75                	and	a4,a4,a3
ffffffc0504011fe:	40f707bb          	subw	a5,a4,a5
ffffffc050401202:	2781                	sext.w	a5,a5
ffffffc050401204:	00056717          	auipc	a4,0x56
ffffffc050401208:	bb470713          	addi	a4,a4,-1100 # ffffffc050456db8 <swapmem_pool>
ffffffc05040120c:	0796                	slli	a5,a5,0x5
ffffffc05040120e:	97ba                	add	a5,a5,a4
ffffffc050401210:	4398                	lw	a4,0(a5)
ffffffc050401212:	fe842783          	lw	a5,-24(s0)
ffffffc050401216:	2781                	sext.w	a5,a5
ffffffc050401218:	0ee79463          	bne	a5,a4,ffffffc050401300 <handle_pagefault+0x1c0>
ffffffc05040121c:	fc043703          	ld	a4,-64(s0)
ffffffc050401220:	77fd                	lui	a5,0xfffff
ffffffc050401222:	00f776b3          	and	a3,a4,a5
ffffffc050401226:	fec42703          	lw	a4,-20(s0)
ffffffc05040122a:	41f7579b          	sraiw	a5,a4,0x1f
ffffffc05040122e:	0147d79b          	srliw	a5,a5,0x14
ffffffc050401232:	00f7063b          	addw	a2,a4,a5
ffffffc050401236:	6705                	lui	a4,0x1
ffffffc050401238:	177d                	addi	a4,a4,-1
ffffffc05040123a:	8f71                	and	a4,a4,a2
ffffffc05040123c:	40f707bb          	subw	a5,a4,a5
ffffffc050401240:	2781                	sext.w	a5,a5
ffffffc050401242:	00056717          	auipc	a4,0x56
ffffffc050401246:	b7670713          	addi	a4,a4,-1162 # ffffffc050456db8 <swapmem_pool>
ffffffc05040124a:	0796                	slli	a5,a5,0x5
ffffffc05040124c:	97ba                	add	a5,a5,a4
ffffffc05040124e:	679c                	ld	a5,8(a5)
ffffffc050401250:	0af69863          	bne	a3,a5,ffffffc050401300 <handle_pagefault+0x1c0>
ffffffc050401254:	4505                	li	a0,1
ffffffc050401256:	4fa040ef          	jal	ra,ffffffc050405750 <allocPage>
ffffffc05040125a:	fea43023          	sd	a0,-32(s0)
ffffffc05040125e:	fe043503          	ld	a0,-32(s0)
ffffffc050401262:	d4bff0ef          	jal	ra,ffffffc050400fac <kva2pa>
ffffffc050401266:	87aa                	mv	a5,a0
ffffffc050401268:	0007871b          	sext.w	a4,a5
ffffffc05040126c:	fec42783          	lw	a5,-20(s0)
ffffffc050401270:	0037979b          	slliw	a5,a5,0x3
ffffffc050401274:	2781                	sext.w	a5,a5
ffffffc050401276:	2781                	sext.w	a5,a5
ffffffc050401278:	863e                	mv	a2,a5
ffffffc05040127a:	45a1                	li	a1,8
ffffffc05040127c:	853a                	mv	a0,a4
ffffffc05040127e:	cd1ff0ef          	jal	ra,ffffffc050400f4e <sbi_sd_read>
ffffffc050401282:	fec42703          	lw	a4,-20(s0)
ffffffc050401286:	41f7579b          	sraiw	a5,a4,0x1f
ffffffc05040128a:	0147d79b          	srliw	a5,a5,0x14
ffffffc05040128e:	00f706bb          	addw	a3,a4,a5
ffffffc050401292:	6705                	lui	a4,0x1
ffffffc050401294:	177d                	addi	a4,a4,-1
ffffffc050401296:	8f75                	and	a4,a4,a3
ffffffc050401298:	40f707bb          	subw	a5,a4,a5
ffffffc05040129c:	2781                	sext.w	a5,a5
ffffffc05040129e:	00056717          	auipc	a4,0x56
ffffffc0504012a2:	b1a70713          	addi	a4,a4,-1254 # ffffffc050456db8 <swapmem_pool>
ffffffc0504012a6:	0796                	slli	a5,a5,0x5
ffffffc0504012a8:	97ba                	add	a5,a5,a4
ffffffc0504012aa:	6b9c                	ld	a5,16(a5)
ffffffc0504012ac:	fcf43c23          	sd	a5,-40(s0)
ffffffc0504012b0:	fe043503          	ld	a0,-32(s0)
ffffffc0504012b4:	cf9ff0ef          	jal	ra,ffffffc050400fac <kva2pa>
ffffffc0504012b8:	87aa                	mv	a5,a0
ffffffc0504012ba:	83b1                	srli	a5,a5,0xc
ffffffc0504012bc:	85be                	mv	a1,a5
ffffffc0504012be:	fd843503          	ld	a0,-40(s0)
ffffffc0504012c2:	d07ff0ef          	jal	ra,ffffffc050400fc8 <set_pfn>
ffffffc0504012c6:	0df00593          	li	a1,223
ffffffc0504012ca:	fd843503          	ld	a0,-40(s0)
ffffffc0504012ce:	d43ff0ef          	jal	ra,ffffffc050401010 <set_attribute>
ffffffc0504012d2:	fec42703          	lw	a4,-20(s0)
ffffffc0504012d6:	41f7579b          	sraiw	a5,a4,0x1f
ffffffc0504012da:	0147d79b          	srliw	a5,a5,0x14
ffffffc0504012de:	00f706bb          	addw	a3,a4,a5
ffffffc0504012e2:	6705                	lui	a4,0x1
ffffffc0504012e4:	177d                	addi	a4,a4,-1
ffffffc0504012e6:	8f75                	and	a4,a4,a3
ffffffc0504012e8:	40f707bb          	subw	a5,a4,a5
ffffffc0504012ec:	2781                	sext.w	a5,a5
ffffffc0504012ee:	00056717          	auipc	a4,0x56
ffffffc0504012f2:	aca70713          	addi	a4,a4,-1334 # ffffffc050456db8 <swapmem_pool>
ffffffc0504012f6:	0796                	slli	a5,a5,0x5
ffffffc0504012f8:	97ba                	add	a5,a5,a4
ffffffc0504012fa:	00078c23          	sb	zero,24(a5) # fffffffffffff018 <__BSS_END__+0x3fafb5e040>
ffffffc0504012fe:	a8a9                	j	ffffffc050401358 <handle_pagefault+0x218>
ffffffc050401300:	fec42783          	lw	a5,-20(s0)
ffffffc050401304:	37fd                	addiw	a5,a5,-1
ffffffc050401306:	fef42623          	sw	a5,-20(s0)
ffffffc05040130a:	fec42703          	lw	a4,-20(s0)
ffffffc05040130e:	41f7579b          	sraiw	a5,a4,0x1f
ffffffc050401312:	0147d79b          	srliw	a5,a5,0x14
ffffffc050401316:	00f706bb          	addw	a3,a4,a5
ffffffc05040131a:	6705                	lui	a4,0x1
ffffffc05040131c:	177d                	addi	a4,a4,-1
ffffffc05040131e:	8f75                	and	a4,a4,a3
ffffffc050401320:	40f707bb          	subw	a5,a4,a5
ffffffc050401324:	2781                	sext.w	a5,a5
ffffffc050401326:	00056717          	auipc	a4,0x56
ffffffc05040132a:	a9270713          	addi	a4,a4,-1390 # ffffffc050456db8 <swapmem_pool>
ffffffc05040132e:	0796                	slli	a5,a5,0x5
ffffffc050401330:	97ba                	add	a5,a5,a4
ffffffc050401332:	0187c783          	lbu	a5,24(a5)
ffffffc050401336:	e80792e3          	bnez	a5,ffffffc0504011ba <handle_pagefault+0x7a>
ffffffc05040133a:	a011                	j	ffffffc05040133e <handle_pagefault+0x1fe>
ffffffc05040133c:	0001                	nop
ffffffc05040133e:	0009e797          	auipc	a5,0x9e
ffffffc050401342:	e7a78793          	addi	a5,a5,-390 # ffffffc05049f1b8 <current_running>
ffffffc050401346:	639c                	ld	a5,0(a5)
ffffffc050401348:	639c                	ld	a5,0(a5)
ffffffc05040134a:	67dc                	ld	a5,136(a5)
ffffffc05040134c:	4605                	li	a2,1
ffffffc05040134e:	85be                	mv	a1,a5
ffffffc050401350:	fc043503          	ld	a0,-64(s0)
ffffffc050401354:	55a040ef          	jal	ra,ffffffc0504058ae <alloc_page_helper>
ffffffc050401358:	60a6                	ld	ra,72(sp)
ffffffc05040135a:	6406                	ld	s0,64(sp)
ffffffc05040135c:	6161                	addi	sp,sp,80
ffffffc05040135e:	8082                	ret

ffffffc050401360 <init_exception>:
ffffffc050401360:	1101                	addi	sp,sp,-32
ffffffc050401362:	ec06                	sd	ra,24(sp)
ffffffc050401364:	e822                	sd	s0,16(sp)
ffffffc050401366:	1000                	addi	s0,sp,32
ffffffc050401368:	fe042623          	sw	zero,-20(s0)
ffffffc05040136c:	a01d                	j	ffffffc050401392 <init_exception+0x32>
ffffffc05040136e:	0009e717          	auipc	a4,0x9e
ffffffc050401372:	ad270713          	addi	a4,a4,-1326 # ffffffc05049ee40 <irq_table>
ffffffc050401376:	fec42783          	lw	a5,-20(s0)
ffffffc05040137a:	078e                	slli	a5,a5,0x3
ffffffc05040137c:	97ba                	add	a5,a5,a4
ffffffc05040137e:	00000717          	auipc	a4,0x0
ffffffc050401382:	da070713          	addi	a4,a4,-608 # ffffffc05040111e <handle_int>
ffffffc050401386:	e398                	sd	a4,0(a5)
ffffffc050401388:	fec42783          	lw	a5,-20(s0)
ffffffc05040138c:	2785                	addiw	a5,a5,1
ffffffc05040138e:	fef42623          	sw	a5,-20(s0)
ffffffc050401392:	fec42783          	lw	a5,-20(s0)
ffffffc050401396:	0007871b          	sext.w	a4,a5
ffffffc05040139a:	47ad                	li	a5,11
ffffffc05040139c:	fce7d9e3          	bge	a5,a4,ffffffc05040136e <init_exception+0xe>
ffffffc0504013a0:	fe042623          	sw	zero,-20(s0)
ffffffc0504013a4:	a01d                	j	ffffffc0504013ca <init_exception+0x6a>
ffffffc0504013a6:	0009e717          	auipc	a4,0x9e
ffffffc0504013aa:	a1270713          	addi	a4,a4,-1518 # ffffffc05049edb8 <exc_table>
ffffffc0504013ae:	fec42783          	lw	a5,-20(s0)
ffffffc0504013b2:	078e                	slli	a5,a5,0x3
ffffffc0504013b4:	97ba                	add	a5,a5,a4
ffffffc0504013b6:	00000717          	auipc	a4,0x0
ffffffc0504013ba:	07870713          	addi	a4,a4,120 # ffffffc05040142e <handle_other>
ffffffc0504013be:	e398                	sd	a4,0(a5)
ffffffc0504013c0:	fec42783          	lw	a5,-20(s0)
ffffffc0504013c4:	2785                	addiw	a5,a5,1
ffffffc0504013c6:	fef42623          	sw	a5,-20(s0)
ffffffc0504013ca:	fec42783          	lw	a5,-20(s0)
ffffffc0504013ce:	0007871b          	sext.w	a4,a5
ffffffc0504013d2:	47bd                	li	a5,15
ffffffc0504013d4:	fce7d9e3          	bge	a5,a4,ffffffc0504013a6 <init_exception+0x46>
ffffffc0504013d8:	0009e797          	auipc	a5,0x9e
ffffffc0504013dc:	9e078793          	addi	a5,a5,-1568 # ffffffc05049edb8 <exc_table>
ffffffc0504013e0:	00005717          	auipc	a4,0x5
ffffffc0504013e4:	d7470713          	addi	a4,a4,-652 # ffffffc050406154 <handle_syscall>
ffffffc0504013e8:	e3b8                	sd	a4,64(a5)
ffffffc0504013ea:	0009e797          	auipc	a5,0x9e
ffffffc0504013ee:	9ce78793          	addi	a5,a5,-1586 # ffffffc05049edb8 <exc_table>
ffffffc0504013f2:	00000717          	auipc	a4,0x0
ffffffc0504013f6:	d4e70713          	addi	a4,a4,-690 # ffffffc050401140 <handle_pagefault>
ffffffc0504013fa:	f3b8                	sd	a4,96(a5)
ffffffc0504013fc:	0009e797          	auipc	a5,0x9e
ffffffc050401400:	9bc78793          	addi	a5,a5,-1604 # ffffffc05049edb8 <exc_table>
ffffffc050401404:	00000717          	auipc	a4,0x0
ffffffc050401408:	d3c70713          	addi	a4,a4,-708 # ffffffc050401140 <handle_pagefault>
ffffffc05040140c:	f7b8                	sd	a4,104(a5)
ffffffc05040140e:	0009e797          	auipc	a5,0x9e
ffffffc050401412:	9aa78793          	addi	a5,a5,-1622 # ffffffc05049edb8 <exc_table>
ffffffc050401416:	00000717          	auipc	a4,0x0
ffffffc05040141a:	d2a70713          	addi	a4,a4,-726 # ffffffc050401140 <handle_pagefault>
ffffffc05040141e:	ffb8                	sd	a4,120(a5)
ffffffc050401420:	c55fe0ef          	jal	ra,ffffffc050400074 <setup_exception>
ffffffc050401424:	0001                	nop
ffffffc050401426:	60e2                	ld	ra,24(sp)
ffffffc050401428:	6442                	ld	s0,16(sp)
ffffffc05040142a:	6105                	addi	sp,sp,32
ffffffc05040142c:	8082                	ret

ffffffc05040142e <handle_other>:
ffffffc05040142e:	710d                	addi	sp,sp,-352
ffffffc050401430:	ee86                	sd	ra,344(sp)
ffffffc050401432:	eaa2                	sd	s0,336(sp)
ffffffc050401434:	1280                	addi	s0,sp,352
ffffffc050401436:	eaa43c23          	sd	a0,-328(s0)
ffffffc05040143a:	eab43823          	sd	a1,-336(s0)
ffffffc05040143e:	eac43423          	sd	a2,-344(s0)
ffffffc050401442:	00006717          	auipc	a4,0x6
ffffffc050401446:	cf670713          	addi	a4,a4,-778 # ffffffc050407138 <get_elf_file+0x3d8>
ffffffc05040144a:	ec840793          	addi	a5,s0,-312
ffffffc05040144e:	86ba                	mv	a3,a4
ffffffc050401450:	10000713          	li	a4,256
ffffffc050401454:	863a                	mv	a2,a4
ffffffc050401456:	85b6                	mv	a1,a3
ffffffc050401458:	853e                	mv	a0,a5
ffffffc05040145a:	5a1040ef          	jal	ra,ffffffc0504061fa <memcpy>
ffffffc05040145e:	fe042623          	sw	zero,-20(s0)
ffffffc050401462:	a061                	j	ffffffc0504014ea <handle_other+0xbc>
ffffffc050401464:	fe042423          	sw	zero,-24(s0)
ffffffc050401468:	a0a9                	j	ffffffc0504014b2 <handle_other+0x84>
ffffffc05040146a:	fec42703          	lw	a4,-20(s0)
ffffffc05040146e:	fe842783          	lw	a5,-24(s0)
ffffffc050401472:	9fb9                	addw	a5,a5,a4
ffffffc050401474:	2781                	sext.w	a5,a5
ffffffc050401476:	078e                	slli	a5,a5,0x3
ffffffc050401478:	ff040713          	addi	a4,s0,-16
ffffffc05040147c:	97ba                	add	a5,a5,a4
ffffffc05040147e:	ed87b683          	ld	a3,-296(a5)
ffffffc050401482:	fec42703          	lw	a4,-20(s0)
ffffffc050401486:	fe842783          	lw	a5,-24(s0)
ffffffc05040148a:	9fb9                	addw	a5,a5,a4
ffffffc05040148c:	2781                	sext.w	a5,a5
ffffffc05040148e:	eb843703          	ld	a4,-328(s0)
ffffffc050401492:	078e                	slli	a5,a5,0x3
ffffffc050401494:	97ba                	add	a5,a5,a4
ffffffc050401496:	639c                	ld	a5,0(a5)
ffffffc050401498:	863e                	mv	a2,a5
ffffffc05040149a:	85b6                	mv	a1,a3
ffffffc05040149c:	00006517          	auipc	a0,0x6
ffffffc0504014a0:	bc450513          	addi	a0,a0,-1084 # ffffffc050407060 <get_elf_file+0x300>
ffffffc0504014a4:	7da050ef          	jal	ra,ffffffc050406c7e <printk>
ffffffc0504014a8:	fe842783          	lw	a5,-24(s0)
ffffffc0504014ac:	2785                	addiw	a5,a5,1
ffffffc0504014ae:	fef42423          	sw	a5,-24(s0)
ffffffc0504014b2:	fe842783          	lw	a5,-24(s0)
ffffffc0504014b6:	0007871b          	sext.w	a4,a5
ffffffc0504014ba:	4789                	li	a5,2
ffffffc0504014bc:	00e7cc63          	blt	a5,a4,ffffffc0504014d4 <handle_other+0xa6>
ffffffc0504014c0:	fec42703          	lw	a4,-20(s0)
ffffffc0504014c4:	fe842783          	lw	a5,-24(s0)
ffffffc0504014c8:	9fb9                	addw	a5,a5,a4
ffffffc0504014ca:	2781                	sext.w	a5,a5
ffffffc0504014cc:	873e                	mv	a4,a5
ffffffc0504014ce:	47fd                	li	a5,31
ffffffc0504014d0:	f8e7dde3          	bge	a5,a4,ffffffc05040146a <handle_other+0x3c>
ffffffc0504014d4:	00006517          	auipc	a0,0x6
ffffffc0504014d8:	b9c50513          	addi	a0,a0,-1124 # ffffffc050407070 <get_elf_file+0x310>
ffffffc0504014dc:	7a2050ef          	jal	ra,ffffffc050406c7e <printk>
ffffffc0504014e0:	fec42783          	lw	a5,-20(s0)
ffffffc0504014e4:	278d                	addiw	a5,a5,3
ffffffc0504014e6:	fef42623          	sw	a5,-20(s0)
ffffffc0504014ea:	fec42783          	lw	a5,-20(s0)
ffffffc0504014ee:	0007871b          	sext.w	a4,a5
ffffffc0504014f2:	47fd                	li	a5,31
ffffffc0504014f4:	f6e7d8e3          	bge	a5,a4,ffffffc050401464 <handle_other+0x36>
ffffffc0504014f8:	eb843783          	ld	a5,-328(s0)
ffffffc0504014fc:	1007b703          	ld	a4,256(a5)
ffffffc050401500:	eb843783          	ld	a5,-328(s0)
ffffffc050401504:	1107b603          	ld	a2,272(a5)
ffffffc050401508:	eb843783          	ld	a5,-328(s0)
ffffffc05040150c:	1187b783          	ld	a5,280(a5)
ffffffc050401510:	86be                	mv	a3,a5
ffffffc050401512:	85ba                	mv	a1,a4
ffffffc050401514:	00006517          	auipc	a0,0x6
ffffffc050401518:	b6450513          	addi	a0,a0,-1180 # ffffffc050407078 <get_elf_file+0x318>
ffffffc05040151c:	762050ef          	jal	ra,ffffffc050406c7e <printk>
ffffffc050401520:	ea843603          	ld	a2,-344(s0)
ffffffc050401524:	eb043583          	ld	a1,-336(s0)
ffffffc050401528:	00006517          	auipc	a0,0x6
ffffffc05040152c:	b8050513          	addi	a0,a0,-1152 # ffffffc0504070a8 <get_elf_file+0x348>
ffffffc050401530:	74e050ef          	jal	ra,ffffffc050406c7e <printk>
ffffffc050401534:	eb843783          	ld	a5,-328(s0)
ffffffc050401538:	1087b783          	ld	a5,264(a5)
ffffffc05040153c:	85be                	mv	a1,a5
ffffffc05040153e:	00006517          	auipc	a0,0x6
ffffffc050401542:	b8a50513          	addi	a0,a0,-1142 # ffffffc0504070c8 <get_elf_file+0x368>
ffffffc050401546:	738050ef          	jal	ra,ffffffc050406c7e <printk>
ffffffc05040154a:	d83fe0ef          	jal	ra,ffffffc0504002cc <get_current_cpu_id>
ffffffc05040154e:	87aa                	mv	a5,a0
ffffffc050401550:	85be                	mv	a1,a5
ffffffc050401552:	00006517          	auipc	a0,0x6
ffffffc050401556:	b8650513          	addi	a0,a0,-1146 # ffffffc0504070d8 <get_elf_file+0x378>
ffffffc05040155a:	724050ef          	jal	ra,ffffffc050406c7e <printk>
ffffffc05040155e:	eb843783          	ld	a5,-328(s0)
ffffffc050401562:	63bc                	ld	a5,64(a5)
ffffffc050401564:	fef43023          	sd	a5,-32(s0)
ffffffc050401568:	eb843783          	ld	a5,-328(s0)
ffffffc05040156c:	6b9c                	ld	a5,16(a5)
ffffffc05040156e:	fcf43c23          	sd	a5,-40(s0)
ffffffc050401572:	00006517          	auipc	a0,0x6
ffffffc050401576:	b7e50513          	addi	a0,a0,-1154 # ffffffc0504070f0 <get_elf_file+0x390>
ffffffc05040157a:	704050ef          	jal	ra,ffffffc050406c7e <printk>
ffffffc05040157e:	eb843783          	ld	a5,-328(s0)
ffffffc050401582:	679c                	ld	a5,8(a5)
ffffffc050401584:	17f1                	addi	a5,a5,-4
ffffffc050401586:	fe043683          	ld	a3,-32(s0)
ffffffc05040158a:	fd843603          	ld	a2,-40(s0)
ffffffc05040158e:	85be                	mv	a1,a5
ffffffc050401590:	00006517          	auipc	a0,0x6
ffffffc050401594:	b7050513          	addi	a0,a0,-1168 # ffffffc050407100 <get_elf_file+0x3a0>
ffffffc050401598:	6e6050ef          	jal	ra,ffffffc050406c7e <printk>
ffffffc05040159c:	a83d                	j	ffffffc0504015da <handle_other+0x1ac>
ffffffc05040159e:	fe043783          	ld	a5,-32(s0)
ffffffc0504015a2:	17e1                	addi	a5,a5,-8
ffffffc0504015a4:	639c                	ld	a5,0(a5)
ffffffc0504015a6:	fcf43823          	sd	a5,-48(s0)
ffffffc0504015aa:	fe043783          	ld	a5,-32(s0)
ffffffc0504015ae:	17c1                	addi	a5,a5,-16
ffffffc0504015b0:	639c                	ld	a5,0(a5)
ffffffc0504015b2:	fcf43423          	sd	a5,-56(s0)
ffffffc0504015b6:	fd043783          	ld	a5,-48(s0)
ffffffc0504015ba:	17f1                	addi	a5,a5,-4
ffffffc0504015bc:	fc843683          	ld	a3,-56(s0)
ffffffc0504015c0:	fe043603          	ld	a2,-32(s0)
ffffffc0504015c4:	85be                	mv	a1,a5
ffffffc0504015c6:	00006517          	auipc	a0,0x6
ffffffc0504015ca:	b3a50513          	addi	a0,a0,-1222 # ffffffc050407100 <get_elf_file+0x3a0>
ffffffc0504015ce:	6b0050ef          	jal	ra,ffffffc050406c7e <printk>
ffffffc0504015d2:	fc843783          	ld	a5,-56(s0)
ffffffc0504015d6:	fef43023          	sd	a5,-32(s0)
ffffffc0504015da:	fe043703          	ld	a4,-32(s0)
ffffffc0504015de:	67c1                	lui	a5,0x10
ffffffc0504015e0:	fae7efe3          	bltu	a5,a4,ffffffc05040159e <handle_other+0x170>
ffffffc0504015e4:	00006617          	auipc	a2,0x6
ffffffc0504015e8:	c5460613          	addi	a2,a2,-940 # ffffffc050407238 <__FUNCTION__.1619>
ffffffc0504015ec:	07f00593          	li	a1,127
ffffffc0504015f0:	00006517          	auipc	a0,0x6
ffffffc0504015f4:	b3050513          	addi	a0,a0,-1232 # ffffffc050407120 <get_elf_file+0x3c0>
ffffffc0504015f8:	a41ff0ef          	jal	ra,ffffffc050401038 <_panic>
ffffffc0504015fc:	0001                	nop
ffffffc0504015fe:	60f6                	ld	ra,344(sp)
ffffffc050401600:	6456                	ld	s0,336(sp)
ffffffc050401602:	6135                	addi	sp,sp,352
ffffffc050401604:	8082                	ret

ffffffc050401606 <sbi_console_getchar>:
ffffffc050401606:	1141                	addi	sp,sp,-16
ffffffc050401608:	e422                	sd	s0,8(sp)
ffffffc05040160a:	0800                	addi	s0,sp,16
ffffffc05040160c:	4501                	li	a0,0
ffffffc05040160e:	4581                	li	a1,0
ffffffc050401610:	4601                	li	a2,0
ffffffc050401612:	4889                	li	a7,2
ffffffc050401614:	00000073          	ecall
ffffffc050401618:	87aa                	mv	a5,a0
ffffffc05040161a:	2781                	sext.w	a5,a5
ffffffc05040161c:	853e                	mv	a0,a5
ffffffc05040161e:	6422                	ld	s0,8(sp)
ffffffc050401620:	0141                	addi	sp,sp,16
ffffffc050401622:	8082                	ret

ffffffc050401624 <vt100_move_cursor>:
ffffffc050401624:	1101                	addi	sp,sp,-32
ffffffc050401626:	ec06                	sd	ra,24(sp)
ffffffc050401628:	e822                	sd	s0,16(sp)
ffffffc05040162a:	1000                	addi	s0,sp,32
ffffffc05040162c:	87aa                	mv	a5,a0
ffffffc05040162e:	872e                	mv	a4,a1
ffffffc050401630:	fef42623          	sw	a5,-20(s0)
ffffffc050401634:	87ba                	mv	a5,a4
ffffffc050401636:	fef42423          	sw	a5,-24(s0)
ffffffc05040163a:	c93fe0ef          	jal	ra,ffffffc0504002cc <get_current_cpu_id>
ffffffc05040163e:	87aa                	mv	a5,a0
ffffffc050401640:	c791                	beqz	a5,ffffffc05040164c <vt100_move_cursor+0x28>
ffffffc050401642:	0009e797          	auipc	a5,0x9e
ffffffc050401646:	57e78793          	addi	a5,a5,1406 # ffffffc05049fbc0 <current_running_1>
ffffffc05040164a:	a029                	j	ffffffc050401654 <vt100_move_cursor+0x30>
ffffffc05040164c:	0009e797          	auipc	a5,0x9e
ffffffc050401650:	b5478793          	addi	a5,a5,-1196 # ffffffc05049f1a0 <current_running_0>
ffffffc050401654:	0009e717          	auipc	a4,0x9e
ffffffc050401658:	b6470713          	addi	a4,a4,-1180 # ffffffc05049f1b8 <current_running>
ffffffc05040165c:	e31c                	sd	a5,0(a4)
ffffffc05040165e:	a6ffe0ef          	jal	ra,ffffffc0504000cc <disable_preempt>
ffffffc050401662:	fec42703          	lw	a4,-20(s0)
ffffffc050401666:	fe842783          	lw	a5,-24(s0)
ffffffc05040166a:	86ba                	mv	a3,a4
ffffffc05040166c:	863e                	mv	a2,a5
ffffffc05040166e:	45ed                	li	a1,27
ffffffc050401670:	00006517          	auipc	a0,0x6
ffffffc050401674:	bd850513          	addi	a0,a0,-1064 # ffffffc050407248 <__FUNCTION__.1619+0x10>
ffffffc050401678:	606050ef          	jal	ra,ffffffc050406c7e <printk>
ffffffc05040167c:	0009e797          	auipc	a5,0x9e
ffffffc050401680:	b3c78793          	addi	a5,a5,-1220 # ffffffc05049f1b8 <current_running>
ffffffc050401684:	639c                	ld	a5,0(a5)
ffffffc050401686:	639c                	ld	a5,0(a5)
ffffffc050401688:	fec42703          	lw	a4,-20(s0)
ffffffc05040168c:	cfb8                	sw	a4,88(a5)
ffffffc05040168e:	0009e797          	auipc	a5,0x9e
ffffffc050401692:	b2a78793          	addi	a5,a5,-1238 # ffffffc05049f1b8 <current_running>
ffffffc050401696:	639c                	ld	a5,0(a5)
ffffffc050401698:	639c                	ld	a5,0(a5)
ffffffc05040169a:	fe842703          	lw	a4,-24(s0)
ffffffc05040169e:	cff8                	sw	a4,92(a5)
ffffffc0504016a0:	9f5fe0ef          	jal	ra,ffffffc050400094 <enable_preempt>
ffffffc0504016a4:	0001                	nop
ffffffc0504016a6:	60e2                	ld	ra,24(sp)
ffffffc0504016a8:	6442                	ld	s0,16(sp)
ffffffc0504016aa:	6105                	addi	sp,sp,32
ffffffc0504016ac:	8082                	ret

ffffffc0504016ae <vt100_clear>:
ffffffc0504016ae:	1141                	addi	sp,sp,-16
ffffffc0504016b0:	e406                	sd	ra,8(sp)
ffffffc0504016b2:	e022                	sd	s0,0(sp)
ffffffc0504016b4:	0800                	addi	s0,sp,16
ffffffc0504016b6:	45ed                	li	a1,27
ffffffc0504016b8:	00006517          	auipc	a0,0x6
ffffffc0504016bc:	ba050513          	addi	a0,a0,-1120 # ffffffc050407258 <__FUNCTION__.1619+0x20>
ffffffc0504016c0:	5be050ef          	jal	ra,ffffffc050406c7e <printk>
ffffffc0504016c4:	0001                	nop
ffffffc0504016c6:	60a2                	ld	ra,8(sp)
ffffffc0504016c8:	6402                	ld	s0,0(sp)
ffffffc0504016ca:	0141                	addi	sp,sp,16
ffffffc0504016cc:	8082                	ret

ffffffc0504016ce <vt100_hidden_cursor>:
ffffffc0504016ce:	1141                	addi	sp,sp,-16
ffffffc0504016d0:	e406                	sd	ra,8(sp)
ffffffc0504016d2:	e022                	sd	s0,0(sp)
ffffffc0504016d4:	0800                	addi	s0,sp,16
ffffffc0504016d6:	45ed                	li	a1,27
ffffffc0504016d8:	00006517          	auipc	a0,0x6
ffffffc0504016dc:	b8850513          	addi	a0,a0,-1144 # ffffffc050407260 <__FUNCTION__.1619+0x28>
ffffffc0504016e0:	59e050ef          	jal	ra,ffffffc050406c7e <printk>
ffffffc0504016e4:	0001                	nop
ffffffc0504016e6:	60a2                	ld	ra,8(sp)
ffffffc0504016e8:	6402                	ld	s0,0(sp)
ffffffc0504016ea:	0141                	addi	sp,sp,16
ffffffc0504016ec:	8082                	ret

ffffffc0504016ee <screen_scroll>:
ffffffc0504016ee:	1101                	addi	sp,sp,-32
ffffffc0504016f0:	ec22                	sd	s0,24(sp)
ffffffc0504016f2:	1000                	addi	s0,sp,32
ffffffc0504016f4:	47d1                	li	a5,20
ffffffc0504016f6:	fef42623          	sw	a5,-20(s0)
ffffffc0504016fa:	a051                	j	ffffffc05040177e <screen_scroll+0x90>
ffffffc0504016fc:	fe042423          	sw	zero,-24(s0)
ffffffc050401700:	a095                	j	ffffffc050401764 <screen_scroll+0x76>
ffffffc050401702:	fec42783          	lw	a5,-20(s0)
ffffffc050401706:	2785                	addiw	a5,a5,1
ffffffc050401708:	2781                	sext.w	a5,a5
ffffffc05040170a:	873e                	mv	a4,a5
ffffffc05040170c:	87ba                	mv	a5,a4
ffffffc05040170e:	0027979b          	slliw	a5,a5,0x2
ffffffc050401712:	9fb9                	addw	a5,a5,a4
ffffffc050401714:	0047979b          	slliw	a5,a5,0x4
ffffffc050401718:	2781                	sext.w	a5,a5
ffffffc05040171a:	fe842703          	lw	a4,-24(s0)
ffffffc05040171e:	9fb9                	addw	a5,a5,a4
ffffffc050401720:	0007869b          	sext.w	a3,a5
ffffffc050401724:	fec42703          	lw	a4,-20(s0)
ffffffc050401728:	87ba                	mv	a5,a4
ffffffc05040172a:	0027979b          	slliw	a5,a5,0x2
ffffffc05040172e:	9fb9                	addw	a5,a5,a4
ffffffc050401730:	0047979b          	slliw	a5,a5,0x4
ffffffc050401734:	2781                	sext.w	a5,a5
ffffffc050401736:	fe842703          	lw	a4,-24(s0)
ffffffc05040173a:	9fb9                	addw	a5,a5,a4
ffffffc05040173c:	2781                	sext.w	a5,a5
ffffffc05040173e:	00054717          	auipc	a4,0x54
ffffffc050401742:	cda70713          	addi	a4,a4,-806 # ffffffc050455418 <new_screen>
ffffffc050401746:	9736                	add	a4,a4,a3
ffffffc050401748:	00074703          	lbu	a4,0(a4)
ffffffc05040174c:	00054697          	auipc	a3,0x54
ffffffc050401750:	ccc68693          	addi	a3,a3,-820 # ffffffc050455418 <new_screen>
ffffffc050401754:	97b6                	add	a5,a5,a3
ffffffc050401756:	00e78023          	sb	a4,0(a5)
ffffffc05040175a:	fe842783          	lw	a5,-24(s0)
ffffffc05040175e:	2785                	addiw	a5,a5,1
ffffffc050401760:	fef42423          	sw	a5,-24(s0)
ffffffc050401764:	fe842783          	lw	a5,-24(s0)
ffffffc050401768:	0007871b          	sext.w	a4,a5
ffffffc05040176c:	04f00793          	li	a5,79
ffffffc050401770:	f8e7d9e3          	bge	a5,a4,ffffffc050401702 <screen_scroll+0x14>
ffffffc050401774:	fec42783          	lw	a5,-20(s0)
ffffffc050401778:	2785                	addiw	a5,a5,1
ffffffc05040177a:	fef42623          	sw	a5,-20(s0)
ffffffc05040177e:	fec42783          	lw	a5,-20(s0)
ffffffc050401782:	0007871b          	sext.w	a4,a5
ffffffc050401786:	02600793          	li	a5,38
ffffffc05040178a:	f6e7d9e3          	bge	a5,a4,ffffffc0504016fc <screen_scroll+0xe>
ffffffc05040178e:	fe042423          	sw	zero,-24(s0)
ffffffc050401792:	a825                	j	ffffffc0504017ca <screen_scroll+0xdc>
ffffffc050401794:	fec42703          	lw	a4,-20(s0)
ffffffc050401798:	87ba                	mv	a5,a4
ffffffc05040179a:	0027979b          	slliw	a5,a5,0x2
ffffffc05040179e:	9fb9                	addw	a5,a5,a4
ffffffc0504017a0:	0047979b          	slliw	a5,a5,0x4
ffffffc0504017a4:	2781                	sext.w	a5,a5
ffffffc0504017a6:	fe842703          	lw	a4,-24(s0)
ffffffc0504017aa:	9fb9                	addw	a5,a5,a4
ffffffc0504017ac:	2781                	sext.w	a5,a5
ffffffc0504017ae:	00054717          	auipc	a4,0x54
ffffffc0504017b2:	c6a70713          	addi	a4,a4,-918 # ffffffc050455418 <new_screen>
ffffffc0504017b6:	97ba                	add	a5,a5,a4
ffffffc0504017b8:	02000713          	li	a4,32
ffffffc0504017bc:	00e78023          	sb	a4,0(a5)
ffffffc0504017c0:	fe842783          	lw	a5,-24(s0)
ffffffc0504017c4:	2785                	addiw	a5,a5,1
ffffffc0504017c6:	fef42423          	sw	a5,-24(s0)
ffffffc0504017ca:	fe842783          	lw	a5,-24(s0)
ffffffc0504017ce:	0007871b          	sext.w	a4,a5
ffffffc0504017d2:	04f00793          	li	a5,79
ffffffc0504017d6:	fae7dfe3          	bge	a5,a4,ffffffc050401794 <screen_scroll+0xa6>
ffffffc0504017da:	0001                	nop
ffffffc0504017dc:	0001                	nop
ffffffc0504017de:	6462                	ld	s0,24(sp)
ffffffc0504017e0:	6105                	addi	sp,sp,32
ffffffc0504017e2:	8082                	ret

ffffffc0504017e4 <screen_write_ch>:
ffffffc0504017e4:	1101                	addi	sp,sp,-32
ffffffc0504017e6:	ec06                	sd	ra,24(sp)
ffffffc0504017e8:	e822                	sd	s0,16(sp)
ffffffc0504017ea:	1000                	addi	s0,sp,32
ffffffc0504017ec:	87aa                	mv	a5,a0
ffffffc0504017ee:	fef407a3          	sb	a5,-17(s0)
ffffffc0504017f2:	adbfe0ef          	jal	ra,ffffffc0504002cc <get_current_cpu_id>
ffffffc0504017f6:	87aa                	mv	a5,a0
ffffffc0504017f8:	c791                	beqz	a5,ffffffc050401804 <screen_write_ch+0x20>
ffffffc0504017fa:	0009e797          	auipc	a5,0x9e
ffffffc0504017fe:	3c678793          	addi	a5,a5,966 # ffffffc05049fbc0 <current_running_1>
ffffffc050401802:	a029                	j	ffffffc05040180c <screen_write_ch+0x28>
ffffffc050401804:	0009e797          	auipc	a5,0x9e
ffffffc050401808:	99c78793          	addi	a5,a5,-1636 # ffffffc05049f1a0 <current_running_0>
ffffffc05040180c:	0009e717          	auipc	a4,0x9e
ffffffc050401810:	9ac70713          	addi	a4,a4,-1620 # ffffffc05049f1b8 <current_running>
ffffffc050401814:	e31c                	sd	a5,0(a4)
ffffffc050401816:	fef44783          	lbu	a5,-17(s0)
ffffffc05040181a:	0ff7f713          	andi	a4,a5,255
ffffffc05040181e:	47a9                	li	a5,10
ffffffc050401820:	04f71d63          	bne	a4,a5,ffffffc05040187a <screen_write_ch+0x96>
ffffffc050401824:	0009e797          	auipc	a5,0x9e
ffffffc050401828:	99478793          	addi	a5,a5,-1644 # ffffffc05049f1b8 <current_running>
ffffffc05040182c:	639c                	ld	a5,0(a5)
ffffffc05040182e:	639c                	ld	a5,0(a5)
ffffffc050401830:	4705                	li	a4,1
ffffffc050401832:	cfb8                	sw	a4,88(a5)
ffffffc050401834:	0009e797          	auipc	a5,0x9e
ffffffc050401838:	98478793          	addi	a5,a5,-1660 # ffffffc05049f1b8 <current_running>
ffffffc05040183c:	639c                	ld	a5,0(a5)
ffffffc05040183e:	639c                	ld	a5,0(a5)
ffffffc050401840:	4ff8                	lw	a4,92(a5)
ffffffc050401842:	2705                	addiw	a4,a4,1
ffffffc050401844:	2701                	sext.w	a4,a4
ffffffc050401846:	cff8                	sw	a4,92(a5)
ffffffc050401848:	0009e797          	auipc	a5,0x9e
ffffffc05040184c:	97078793          	addi	a5,a5,-1680 # ffffffc05049f1b8 <current_running>
ffffffc050401850:	639c                	ld	a5,0(a5)
ffffffc050401852:	639c                	ld	a5,0(a5)
ffffffc050401854:	4ffc                	lw	a5,92(a5)
ffffffc050401856:	873e                	mv	a4,a5
ffffffc050401858:	02800793          	li	a5,40
ffffffc05040185c:	10e7d663          	bge	a5,a4,ffffffc050401968 <screen_write_ch+0x184>
ffffffc050401860:	e8fff0ef          	jal	ra,ffffffc0504016ee <screen_scroll>
ffffffc050401864:	0009e797          	auipc	a5,0x9e
ffffffc050401868:	95478793          	addi	a5,a5,-1708 # ffffffc05049f1b8 <current_running>
ffffffc05040186c:	639c                	ld	a5,0(a5)
ffffffc05040186e:	639c                	ld	a5,0(a5)
ffffffc050401870:	4ff8                	lw	a4,92(a5)
ffffffc050401872:	377d                	addiw	a4,a4,-1
ffffffc050401874:	2701                	sext.w	a4,a4
ffffffc050401876:	cff8                	sw	a4,92(a5)
ffffffc050401878:	a8c5                	j	ffffffc050401968 <screen_write_ch+0x184>
ffffffc05040187a:	fef44783          	lbu	a5,-17(s0)
ffffffc05040187e:	0ff7f713          	andi	a4,a5,255
ffffffc050401882:	47a1                	li	a5,8
ffffffc050401884:	02f70163          	beq	a4,a5,ffffffc0504018a6 <screen_write_ch+0xc2>
ffffffc050401888:	fef44783          	lbu	a5,-17(s0)
ffffffc05040188c:	0ff7f713          	andi	a4,a5,255
ffffffc050401890:	07f00793          	li	a5,127
ffffffc050401894:	00f70963          	beq	a4,a5,ffffffc0504018a6 <screen_write_ch+0xc2>
ffffffc050401898:	fef44783          	lbu	a5,-17(s0)
ffffffc05040189c:	0ff7f713          	andi	a4,a5,255
ffffffc0504018a0:	47ed                	li	a5,27
ffffffc0504018a2:	06f71363          	bne	a4,a5,ffffffc050401908 <screen_write_ch+0x124>
ffffffc0504018a6:	0009e797          	auipc	a5,0x9e
ffffffc0504018aa:	91278793          	addi	a5,a5,-1774 # ffffffc05049f1b8 <current_running>
ffffffc0504018ae:	639c                	ld	a5,0(a5)
ffffffc0504018b0:	639c                	ld	a5,0(a5)
ffffffc0504018b2:	4fb8                	lw	a4,88(a5)
ffffffc0504018b4:	377d                	addiw	a4,a4,-1
ffffffc0504018b6:	2701                	sext.w	a4,a4
ffffffc0504018b8:	cfb8                	sw	a4,88(a5)
ffffffc0504018ba:	0009e797          	auipc	a5,0x9e
ffffffc0504018be:	8fe78793          	addi	a5,a5,-1794 # ffffffc05049f1b8 <current_running>
ffffffc0504018c2:	639c                	ld	a5,0(a5)
ffffffc0504018c4:	639c                	ld	a5,0(a5)
ffffffc0504018c6:	4ffc                	lw	a5,92(a5)
ffffffc0504018c8:	37fd                	addiw	a5,a5,-1
ffffffc0504018ca:	2781                	sext.w	a5,a5
ffffffc0504018cc:	873e                	mv	a4,a5
ffffffc0504018ce:	87ba                	mv	a5,a4
ffffffc0504018d0:	0027979b          	slliw	a5,a5,0x2
ffffffc0504018d4:	9fb9                	addw	a5,a5,a4
ffffffc0504018d6:	0047979b          	slliw	a5,a5,0x4
ffffffc0504018da:	0007871b          	sext.w	a4,a5
ffffffc0504018de:	0009e797          	auipc	a5,0x9e
ffffffc0504018e2:	8da78793          	addi	a5,a5,-1830 # ffffffc05049f1b8 <current_running>
ffffffc0504018e6:	639c                	ld	a5,0(a5)
ffffffc0504018e8:	639c                	ld	a5,0(a5)
ffffffc0504018ea:	4fbc                	lw	a5,88(a5)
ffffffc0504018ec:	37fd                	addiw	a5,a5,-1
ffffffc0504018ee:	2781                	sext.w	a5,a5
ffffffc0504018f0:	9fb9                	addw	a5,a5,a4
ffffffc0504018f2:	2781                	sext.w	a5,a5
ffffffc0504018f4:	00054717          	auipc	a4,0x54
ffffffc0504018f8:	b2470713          	addi	a4,a4,-1244 # ffffffc050455418 <new_screen>
ffffffc0504018fc:	97ba                	add	a5,a5,a4
ffffffc0504018fe:	02000713          	li	a4,32
ffffffc050401902:	00e78023          	sb	a4,0(a5)
ffffffc050401906:	a08d                	j	ffffffc050401968 <screen_write_ch+0x184>
ffffffc050401908:	0009e797          	auipc	a5,0x9e
ffffffc05040190c:	8b078793          	addi	a5,a5,-1872 # ffffffc05049f1b8 <current_running>
ffffffc050401910:	639c                	ld	a5,0(a5)
ffffffc050401912:	639c                	ld	a5,0(a5)
ffffffc050401914:	4ffc                	lw	a5,92(a5)
ffffffc050401916:	37fd                	addiw	a5,a5,-1
ffffffc050401918:	2781                	sext.w	a5,a5
ffffffc05040191a:	873e                	mv	a4,a5
ffffffc05040191c:	87ba                	mv	a5,a4
ffffffc05040191e:	0027979b          	slliw	a5,a5,0x2
ffffffc050401922:	9fb9                	addw	a5,a5,a4
ffffffc050401924:	0047979b          	slliw	a5,a5,0x4
ffffffc050401928:	0007871b          	sext.w	a4,a5
ffffffc05040192c:	0009e797          	auipc	a5,0x9e
ffffffc050401930:	88c78793          	addi	a5,a5,-1908 # ffffffc05049f1b8 <current_running>
ffffffc050401934:	639c                	ld	a5,0(a5)
ffffffc050401936:	639c                	ld	a5,0(a5)
ffffffc050401938:	4fbc                	lw	a5,88(a5)
ffffffc05040193a:	37fd                	addiw	a5,a5,-1
ffffffc05040193c:	2781                	sext.w	a5,a5
ffffffc05040193e:	9fb9                	addw	a5,a5,a4
ffffffc050401940:	2781                	sext.w	a5,a5
ffffffc050401942:	00054717          	auipc	a4,0x54
ffffffc050401946:	ad670713          	addi	a4,a4,-1322 # ffffffc050455418 <new_screen>
ffffffc05040194a:	97ba                	add	a5,a5,a4
ffffffc05040194c:	fef44703          	lbu	a4,-17(s0)
ffffffc050401950:	00e78023          	sb	a4,0(a5)
ffffffc050401954:	0009e797          	auipc	a5,0x9e
ffffffc050401958:	86478793          	addi	a5,a5,-1948 # ffffffc05049f1b8 <current_running>
ffffffc05040195c:	639c                	ld	a5,0(a5)
ffffffc05040195e:	639c                	ld	a5,0(a5)
ffffffc050401960:	4fb8                	lw	a4,88(a5)
ffffffc050401962:	2705                	addiw	a4,a4,1
ffffffc050401964:	2701                	sext.w	a4,a4
ffffffc050401966:	cfb8                	sw	a4,88(a5)
ffffffc050401968:	0001                	nop
ffffffc05040196a:	60e2                	ld	ra,24(sp)
ffffffc05040196c:	6442                	ld	s0,16(sp)
ffffffc05040196e:	6105                	addi	sp,sp,32
ffffffc050401970:	8082                	ret

ffffffc050401972 <init_screen>:
ffffffc050401972:	1141                	addi	sp,sp,-16
ffffffc050401974:	e406                	sd	ra,8(sp)
ffffffc050401976:	e022                	sd	s0,0(sp)
ffffffc050401978:	0800                	addi	s0,sp,16
ffffffc05040197a:	d55ff0ef          	jal	ra,ffffffc0504016ce <vt100_hidden_cursor>
ffffffc05040197e:	d31ff0ef          	jal	ra,ffffffc0504016ae <vt100_clear>
ffffffc050401982:	4529                	li	a0,10
ffffffc050401984:	e61ff0ef          	jal	ra,ffffffc0504017e4 <screen_write_ch>
ffffffc050401988:	0001                	nop
ffffffc05040198a:	60a2                	ld	ra,8(sp)
ffffffc05040198c:	6402                	ld	s0,0(sp)
ffffffc05040198e:	0141                	addi	sp,sp,16
ffffffc050401990:	8082                	ret

ffffffc050401992 <screen_clear>:
ffffffc050401992:	1101                	addi	sp,sp,-32
ffffffc050401994:	ec06                	sd	ra,24(sp)
ffffffc050401996:	e822                	sd	s0,16(sp)
ffffffc050401998:	1000                	addi	s0,sp,32
ffffffc05040199a:	933fe0ef          	jal	ra,ffffffc0504002cc <get_current_cpu_id>
ffffffc05040199e:	87aa                	mv	a5,a0
ffffffc0504019a0:	c791                	beqz	a5,ffffffc0504019ac <screen_clear+0x1a>
ffffffc0504019a2:	0009e797          	auipc	a5,0x9e
ffffffc0504019a6:	21e78793          	addi	a5,a5,542 # ffffffc05049fbc0 <current_running_1>
ffffffc0504019aa:	a029                	j	ffffffc0504019b4 <screen_clear+0x22>
ffffffc0504019ac:	0009d797          	auipc	a5,0x9d
ffffffc0504019b0:	7f478793          	addi	a5,a5,2036 # ffffffc05049f1a0 <current_running_0>
ffffffc0504019b4:	0009e717          	auipc	a4,0x9e
ffffffc0504019b8:	80470713          	addi	a4,a4,-2044 # ffffffc05049f1b8 <current_running>
ffffffc0504019bc:	e31c                	sd	a5,0(a4)
ffffffc0504019be:	fe042623          	sw	zero,-20(s0)
ffffffc0504019c2:	a8a1                	j	ffffffc050401a1a <screen_clear+0x88>
ffffffc0504019c4:	fe042423          	sw	zero,-24(s0)
ffffffc0504019c8:	a825                	j	ffffffc050401a00 <screen_clear+0x6e>
ffffffc0504019ca:	fec42703          	lw	a4,-20(s0)
ffffffc0504019ce:	87ba                	mv	a5,a4
ffffffc0504019d0:	0027979b          	slliw	a5,a5,0x2
ffffffc0504019d4:	9fb9                	addw	a5,a5,a4
ffffffc0504019d6:	0047979b          	slliw	a5,a5,0x4
ffffffc0504019da:	2781                	sext.w	a5,a5
ffffffc0504019dc:	fe842703          	lw	a4,-24(s0)
ffffffc0504019e0:	9fb9                	addw	a5,a5,a4
ffffffc0504019e2:	2781                	sext.w	a5,a5
ffffffc0504019e4:	00054717          	auipc	a4,0x54
ffffffc0504019e8:	a3470713          	addi	a4,a4,-1484 # ffffffc050455418 <new_screen>
ffffffc0504019ec:	97ba                	add	a5,a5,a4
ffffffc0504019ee:	02000713          	li	a4,32
ffffffc0504019f2:	00e78023          	sb	a4,0(a5)
ffffffc0504019f6:	fe842783          	lw	a5,-24(s0)
ffffffc0504019fa:	2785                	addiw	a5,a5,1
ffffffc0504019fc:	fef42423          	sw	a5,-24(s0)
ffffffc050401a00:	fe842783          	lw	a5,-24(s0)
ffffffc050401a04:	0007871b          	sext.w	a4,a5
ffffffc050401a08:	04f00793          	li	a5,79
ffffffc050401a0c:	fae7dfe3          	bge	a5,a4,ffffffc0504019ca <screen_clear+0x38>
ffffffc050401a10:	fec42783          	lw	a5,-20(s0)
ffffffc050401a14:	2785                	addiw	a5,a5,1
ffffffc050401a16:	fef42623          	sw	a5,-20(s0)
ffffffc050401a1a:	fec42783          	lw	a5,-20(s0)
ffffffc050401a1e:	0007871b          	sext.w	a4,a5
ffffffc050401a22:	02800793          	li	a5,40
ffffffc050401a26:	f8e7dfe3          	bge	a5,a4,ffffffc0504019c4 <screen_clear+0x32>
ffffffc050401a2a:	0009d797          	auipc	a5,0x9d
ffffffc050401a2e:	78e78793          	addi	a5,a5,1934 # ffffffc05049f1b8 <current_running>
ffffffc050401a32:	639c                	ld	a5,0(a5)
ffffffc050401a34:	639c                	ld	a5,0(a5)
ffffffc050401a36:	4705                	li	a4,1
ffffffc050401a38:	cfb8                	sw	a4,88(a5)
ffffffc050401a3a:	0009d797          	auipc	a5,0x9d
ffffffc050401a3e:	77e78793          	addi	a5,a5,1918 # ffffffc05049f1b8 <current_running>
ffffffc050401a42:	639c                	ld	a5,0(a5)
ffffffc050401a44:	639c                	ld	a5,0(a5)
ffffffc050401a46:	4705                	li	a4,1
ffffffc050401a48:	cff8                	sw	a4,92(a5)
ffffffc050401a4a:	1b4000ef          	jal	ra,ffffffc050401bfe <screen_reflush>
ffffffc050401a4e:	0001                	nop
ffffffc050401a50:	60e2                	ld	ra,24(sp)
ffffffc050401a52:	6442                	ld	s0,16(sp)
ffffffc050401a54:	6105                	addi	sp,sp,32
ffffffc050401a56:	8082                	ret

ffffffc050401a58 <screen_move_cursor>:
ffffffc050401a58:	1101                	addi	sp,sp,-32
ffffffc050401a5a:	ec06                	sd	ra,24(sp)
ffffffc050401a5c:	e822                	sd	s0,16(sp)
ffffffc050401a5e:	1000                	addi	s0,sp,32
ffffffc050401a60:	87aa                	mv	a5,a0
ffffffc050401a62:	872e                	mv	a4,a1
ffffffc050401a64:	fef42623          	sw	a5,-20(s0)
ffffffc050401a68:	87ba                	mv	a5,a4
ffffffc050401a6a:	fef42423          	sw	a5,-24(s0)
ffffffc050401a6e:	85ffe0ef          	jal	ra,ffffffc0504002cc <get_current_cpu_id>
ffffffc050401a72:	87aa                	mv	a5,a0
ffffffc050401a74:	c791                	beqz	a5,ffffffc050401a80 <screen_move_cursor+0x28>
ffffffc050401a76:	0009e797          	auipc	a5,0x9e
ffffffc050401a7a:	14a78793          	addi	a5,a5,330 # ffffffc05049fbc0 <current_running_1>
ffffffc050401a7e:	a029                	j	ffffffc050401a88 <screen_move_cursor+0x30>
ffffffc050401a80:	0009d797          	auipc	a5,0x9d
ffffffc050401a84:	72078793          	addi	a5,a5,1824 # ffffffc05049f1a0 <current_running_0>
ffffffc050401a88:	0009d717          	auipc	a4,0x9d
ffffffc050401a8c:	73070713          	addi	a4,a4,1840 # ffffffc05049f1b8 <current_running>
ffffffc050401a90:	e31c                	sd	a5,0(a4)
ffffffc050401a92:	0009d797          	auipc	a5,0x9d
ffffffc050401a96:	72678793          	addi	a5,a5,1830 # ffffffc05049f1b8 <current_running>
ffffffc050401a9a:	639c                	ld	a5,0(a5)
ffffffc050401a9c:	639c                	ld	a5,0(a5)
ffffffc050401a9e:	fec42703          	lw	a4,-20(s0)
ffffffc050401aa2:	cfb8                	sw	a4,88(a5)
ffffffc050401aa4:	0009d797          	auipc	a5,0x9d
ffffffc050401aa8:	71478793          	addi	a5,a5,1812 # ffffffc05049f1b8 <current_running>
ffffffc050401aac:	639c                	ld	a5,0(a5)
ffffffc050401aae:	639c                	ld	a5,0(a5)
ffffffc050401ab0:	fe842703          	lw	a4,-24(s0)
ffffffc050401ab4:	cff8                	sw	a4,92(a5)
ffffffc050401ab6:	0001                	nop
ffffffc050401ab8:	60e2                	ld	ra,24(sp)
ffffffc050401aba:	6442                	ld	s0,16(sp)
ffffffc050401abc:	6105                	addi	sp,sp,32
ffffffc050401abe:	8082                	ret

ffffffc050401ac0 <screen_get_cursor_x>:
ffffffc050401ac0:	1141                	addi	sp,sp,-16
ffffffc050401ac2:	e406                	sd	ra,8(sp)
ffffffc050401ac4:	e022                	sd	s0,0(sp)
ffffffc050401ac6:	0800                	addi	s0,sp,16
ffffffc050401ac8:	805fe0ef          	jal	ra,ffffffc0504002cc <get_current_cpu_id>
ffffffc050401acc:	87aa                	mv	a5,a0
ffffffc050401ace:	c791                	beqz	a5,ffffffc050401ada <screen_get_cursor_x+0x1a>
ffffffc050401ad0:	0009e797          	auipc	a5,0x9e
ffffffc050401ad4:	0f078793          	addi	a5,a5,240 # ffffffc05049fbc0 <current_running_1>
ffffffc050401ad8:	a029                	j	ffffffc050401ae2 <screen_get_cursor_x+0x22>
ffffffc050401ada:	0009d797          	auipc	a5,0x9d
ffffffc050401ade:	6c678793          	addi	a5,a5,1734 # ffffffc05049f1a0 <current_running_0>
ffffffc050401ae2:	0009d717          	auipc	a4,0x9d
ffffffc050401ae6:	6d670713          	addi	a4,a4,1750 # ffffffc05049f1b8 <current_running>
ffffffc050401aea:	e31c                	sd	a5,0(a4)
ffffffc050401aec:	0009d797          	auipc	a5,0x9d
ffffffc050401af0:	6cc78793          	addi	a5,a5,1740 # ffffffc05049f1b8 <current_running>
ffffffc050401af4:	639c                	ld	a5,0(a5)
ffffffc050401af6:	639c                	ld	a5,0(a5)
ffffffc050401af8:	4fbc                	lw	a5,88(a5)
ffffffc050401afa:	853e                	mv	a0,a5
ffffffc050401afc:	60a2                	ld	ra,8(sp)
ffffffc050401afe:	6402                	ld	s0,0(sp)
ffffffc050401b00:	0141                	addi	sp,sp,16
ffffffc050401b02:	8082                	ret

ffffffc050401b04 <screen_get_cursor_y>:
ffffffc050401b04:	1141                	addi	sp,sp,-16
ffffffc050401b06:	e406                	sd	ra,8(sp)
ffffffc050401b08:	e022                	sd	s0,0(sp)
ffffffc050401b0a:	0800                	addi	s0,sp,16
ffffffc050401b0c:	fc0fe0ef          	jal	ra,ffffffc0504002cc <get_current_cpu_id>
ffffffc050401b10:	87aa                	mv	a5,a0
ffffffc050401b12:	c791                	beqz	a5,ffffffc050401b1e <screen_get_cursor_y+0x1a>
ffffffc050401b14:	0009e797          	auipc	a5,0x9e
ffffffc050401b18:	0ac78793          	addi	a5,a5,172 # ffffffc05049fbc0 <current_running_1>
ffffffc050401b1c:	a029                	j	ffffffc050401b26 <screen_get_cursor_y+0x22>
ffffffc050401b1e:	0009d797          	auipc	a5,0x9d
ffffffc050401b22:	68278793          	addi	a5,a5,1666 # ffffffc05049f1a0 <current_running_0>
ffffffc050401b26:	0009d717          	auipc	a4,0x9d
ffffffc050401b2a:	69270713          	addi	a4,a4,1682 # ffffffc05049f1b8 <current_running>
ffffffc050401b2e:	e31c                	sd	a5,0(a4)
ffffffc050401b30:	0009d797          	auipc	a5,0x9d
ffffffc050401b34:	68878793          	addi	a5,a5,1672 # ffffffc05049f1b8 <current_running>
ffffffc050401b38:	639c                	ld	a5,0(a5)
ffffffc050401b3a:	639c                	ld	a5,0(a5)
ffffffc050401b3c:	4ffc                	lw	a5,92(a5)
ffffffc050401b3e:	853e                	mv	a0,a5
ffffffc050401b40:	60a2                	ld	ra,8(sp)
ffffffc050401b42:	6402                	ld	s0,0(sp)
ffffffc050401b44:	0141                	addi	sp,sp,16
ffffffc050401b46:	8082                	ret

ffffffc050401b48 <screen_write>:
ffffffc050401b48:	7179                	addi	sp,sp,-48
ffffffc050401b4a:	f406                	sd	ra,40(sp)
ffffffc050401b4c:	f022                	sd	s0,32(sp)
ffffffc050401b4e:	1800                	addi	s0,sp,48
ffffffc050401b50:	fca43c23          	sd	a0,-40(s0)
ffffffc050401b54:	fe042623          	sw	zero,-20(s0)
ffffffc050401b58:	fd843503          	ld	a0,-40(s0)
ffffffc050401b5c:	668040ef          	jal	ra,ffffffc0504061c4 <kstrlen>
ffffffc050401b60:	87aa                	mv	a5,a0
ffffffc050401b62:	fef42423          	sw	a5,-24(s0)
ffffffc050401b66:	fe042623          	sw	zero,-20(s0)
ffffffc050401b6a:	a005                	j	ffffffc050401b8a <screen_write+0x42>
ffffffc050401b6c:	fec42783          	lw	a5,-20(s0)
ffffffc050401b70:	fd843703          	ld	a4,-40(s0)
ffffffc050401b74:	97ba                	add	a5,a5,a4
ffffffc050401b76:	0007c783          	lbu	a5,0(a5)
ffffffc050401b7a:	853e                	mv	a0,a5
ffffffc050401b7c:	c69ff0ef          	jal	ra,ffffffc0504017e4 <screen_write_ch>
ffffffc050401b80:	fec42783          	lw	a5,-20(s0)
ffffffc050401b84:	2785                	addiw	a5,a5,1
ffffffc050401b86:	fef42623          	sw	a5,-20(s0)
ffffffc050401b8a:	fec42703          	lw	a4,-20(s0)
ffffffc050401b8e:	fe842783          	lw	a5,-24(s0)
ffffffc050401b92:	2701                	sext.w	a4,a4
ffffffc050401b94:	2781                	sext.w	a5,a5
ffffffc050401b96:	fcf74be3          	blt	a4,a5,ffffffc050401b6c <screen_write+0x24>
ffffffc050401b9a:	0001                	nop
ffffffc050401b9c:	0001                	nop
ffffffc050401b9e:	70a2                	ld	ra,40(sp)
ffffffc050401ba0:	7402                	ld	s0,32(sp)
ffffffc050401ba2:	6145                	addi	sp,sp,48
ffffffc050401ba4:	8082                	ret

ffffffc050401ba6 <screen_read>:
ffffffc050401ba6:	1141                	addi	sp,sp,-16
ffffffc050401ba8:	e406                	sd	ra,8(sp)
ffffffc050401baa:	e022                	sd	s0,0(sp)
ffffffc050401bac:	0800                	addi	s0,sp,16
ffffffc050401bae:	a59ff0ef          	jal	ra,ffffffc050401606 <sbi_console_getchar>
ffffffc050401bb2:	87aa                	mv	a5,a0
ffffffc050401bb4:	0ff7f793          	andi	a5,a5,255
ffffffc050401bb8:	853e                	mv	a0,a5
ffffffc050401bba:	60a2                	ld	ra,8(sp)
ffffffc050401bbc:	6402                	ld	s0,0(sp)
ffffffc050401bbe:	0141                	addi	sp,sp,16
ffffffc050401bc0:	8082                	ret

ffffffc050401bc2 <screen_getchar>:
ffffffc050401bc2:	1101                	addi	sp,sp,-32
ffffffc050401bc4:	ec06                	sd	ra,24(sp)
ffffffc050401bc6:	e822                	sd	s0,16(sp)
ffffffc050401bc8:	1000                	addi	s0,sp,32
ffffffc050401bca:	a3dff0ef          	jal	ra,ffffffc050401606 <sbi_console_getchar>
ffffffc050401bce:	87aa                	mv	a5,a0
ffffffc050401bd0:	fef407a3          	sb	a5,-17(s0)
ffffffc050401bd4:	a031                	j	ffffffc050401be0 <screen_getchar+0x1e>
ffffffc050401bd6:	a31ff0ef          	jal	ra,ffffffc050401606 <sbi_console_getchar>
ffffffc050401bda:	87aa                	mv	a5,a0
ffffffc050401bdc:	fef407a3          	sb	a5,-17(s0)
ffffffc050401be0:	fef44783          	lbu	a5,-17(s0)
ffffffc050401be4:	0ff7f713          	andi	a4,a5,255
ffffffc050401be8:	0ff00793          	li	a5,255
ffffffc050401bec:	fef705e3          	beq	a4,a5,ffffffc050401bd6 <screen_getchar+0x14>
ffffffc050401bf0:	fef44783          	lbu	a5,-17(s0)
ffffffc050401bf4:	853e                	mv	a0,a5
ffffffc050401bf6:	60e2                	ld	ra,24(sp)
ffffffc050401bf8:	6442                	ld	s0,16(sp)
ffffffc050401bfa:	6105                	addi	sp,sp,32
ffffffc050401bfc:	8082                	ret

ffffffc050401bfe <screen_reflush>:
ffffffc050401bfe:	1101                	addi	sp,sp,-32
ffffffc050401c00:	ec06                	sd	ra,24(sp)
ffffffc050401c02:	e822                	sd	s0,16(sp)
ffffffc050401c04:	1000                	addi	s0,sp,32
ffffffc050401c06:	ec6fe0ef          	jal	ra,ffffffc0504002cc <get_current_cpu_id>
ffffffc050401c0a:	87aa                	mv	a5,a0
ffffffc050401c0c:	c791                	beqz	a5,ffffffc050401c18 <screen_reflush+0x1a>
ffffffc050401c0e:	0009e797          	auipc	a5,0x9e
ffffffc050401c12:	fb278793          	addi	a5,a5,-78 # ffffffc05049fbc0 <current_running_1>
ffffffc050401c16:	a029                	j	ffffffc050401c20 <screen_reflush+0x22>
ffffffc050401c18:	0009d797          	auipc	a5,0x9d
ffffffc050401c1c:	58878793          	addi	a5,a5,1416 # ffffffc05049f1a0 <current_running_0>
ffffffc050401c20:	0009d717          	auipc	a4,0x9d
ffffffc050401c24:	59870713          	addi	a4,a4,1432 # ffffffc05049f1b8 <current_running>
ffffffc050401c28:	e31c                	sd	a5,0(a4)
ffffffc050401c2a:	0009d797          	auipc	a5,0x9d
ffffffc050401c2e:	58e78793          	addi	a5,a5,1422 # ffffffc05049f1b8 <current_running>
ffffffc050401c32:	639c                	ld	a5,0(a5)
ffffffc050401c34:	639c                	ld	a5,0(a5)
ffffffc050401c36:	4fbc                	lw	a5,88(a5)
ffffffc050401c38:	fef42223          	sw	a5,-28(s0)
ffffffc050401c3c:	0009d797          	auipc	a5,0x9d
ffffffc050401c40:	57c78793          	addi	a5,a5,1404 # ffffffc05049f1b8 <current_running>
ffffffc050401c44:	639c                	ld	a5,0(a5)
ffffffc050401c46:	639c                	ld	a5,0(a5)
ffffffc050401c48:	4ffc                	lw	a5,92(a5)
ffffffc050401c4a:	fef42023          	sw	a5,-32(s0)
ffffffc050401c4e:	fe042623          	sw	zero,-20(s0)
ffffffc050401c52:	aa31                	j	ffffffc050401d6e <screen_reflush+0x170>
ffffffc050401c54:	fe042423          	sw	zero,-24(s0)
ffffffc050401c58:	a8f5                	j	ffffffc050401d54 <screen_reflush+0x156>
ffffffc050401c5a:	fec42703          	lw	a4,-20(s0)
ffffffc050401c5e:	87ba                	mv	a5,a4
ffffffc050401c60:	0027979b          	slliw	a5,a5,0x2
ffffffc050401c64:	9fb9                	addw	a5,a5,a4
ffffffc050401c66:	0047979b          	slliw	a5,a5,0x4
ffffffc050401c6a:	2781                	sext.w	a5,a5
ffffffc050401c6c:	fe842703          	lw	a4,-24(s0)
ffffffc050401c70:	9fb9                	addw	a5,a5,a4
ffffffc050401c72:	2781                	sext.w	a5,a5
ffffffc050401c74:	00053717          	auipc	a4,0x53
ffffffc050401c78:	7a470713          	addi	a4,a4,1956 # ffffffc050455418 <new_screen>
ffffffc050401c7c:	97ba                	add	a5,a5,a4
ffffffc050401c7e:	0007c683          	lbu	a3,0(a5)
ffffffc050401c82:	fec42703          	lw	a4,-20(s0)
ffffffc050401c86:	87ba                	mv	a5,a4
ffffffc050401c88:	0027979b          	slliw	a5,a5,0x2
ffffffc050401c8c:	9fb9                	addw	a5,a5,a4
ffffffc050401c8e:	0047979b          	slliw	a5,a5,0x4
ffffffc050401c92:	2781                	sext.w	a5,a5
ffffffc050401c94:	fe842703          	lw	a4,-24(s0)
ffffffc050401c98:	9fb9                	addw	a5,a5,a4
ffffffc050401c9a:	2781                	sext.w	a5,a5
ffffffc050401c9c:	00054717          	auipc	a4,0x54
ffffffc050401ca0:	44c70713          	addi	a4,a4,1100 # ffffffc0504560e8 <old_screen>
ffffffc050401ca4:	97ba                	add	a5,a5,a4
ffffffc050401ca6:	0007c783          	lbu	a5,0(a5)
ffffffc050401caa:	8736                	mv	a4,a3
ffffffc050401cac:	08f70f63          	beq	a4,a5,ffffffc050401d4a <screen_reflush+0x14c>
ffffffc050401cb0:	fe842783          	lw	a5,-24(s0)
ffffffc050401cb4:	2785                	addiw	a5,a5,1
ffffffc050401cb6:	0007871b          	sext.w	a4,a5
ffffffc050401cba:	fec42783          	lw	a5,-20(s0)
ffffffc050401cbe:	2785                	addiw	a5,a5,1
ffffffc050401cc0:	2781                	sext.w	a5,a5
ffffffc050401cc2:	85be                	mv	a1,a5
ffffffc050401cc4:	853a                	mv	a0,a4
ffffffc050401cc6:	95fff0ef          	jal	ra,ffffffc050401624 <vt100_move_cursor>
ffffffc050401cca:	fec42703          	lw	a4,-20(s0)
ffffffc050401cce:	87ba                	mv	a5,a4
ffffffc050401cd0:	0027979b          	slliw	a5,a5,0x2
ffffffc050401cd4:	9fb9                	addw	a5,a5,a4
ffffffc050401cd6:	0047979b          	slliw	a5,a5,0x4
ffffffc050401cda:	2781                	sext.w	a5,a5
ffffffc050401cdc:	fe842703          	lw	a4,-24(s0)
ffffffc050401ce0:	9fb9                	addw	a5,a5,a4
ffffffc050401ce2:	2781                	sext.w	a5,a5
ffffffc050401ce4:	00053717          	auipc	a4,0x53
ffffffc050401ce8:	73470713          	addi	a4,a4,1844 # ffffffc050455418 <new_screen>
ffffffc050401cec:	97ba                	add	a5,a5,a4
ffffffc050401cee:	0007c783          	lbu	a5,0(a5)
ffffffc050401cf2:	853e                	mv	a0,a5
ffffffc050401cf4:	e3efe0ef          	jal	ra,ffffffc050400332 <port_write_ch>
ffffffc050401cf8:	fec42703          	lw	a4,-20(s0)
ffffffc050401cfc:	87ba                	mv	a5,a4
ffffffc050401cfe:	0027979b          	slliw	a5,a5,0x2
ffffffc050401d02:	9fb9                	addw	a5,a5,a4
ffffffc050401d04:	0047979b          	slliw	a5,a5,0x4
ffffffc050401d08:	2781                	sext.w	a5,a5
ffffffc050401d0a:	fe842703          	lw	a4,-24(s0)
ffffffc050401d0e:	9fb9                	addw	a5,a5,a4
ffffffc050401d10:	0007869b          	sext.w	a3,a5
ffffffc050401d14:	fec42703          	lw	a4,-20(s0)
ffffffc050401d18:	87ba                	mv	a5,a4
ffffffc050401d1a:	0027979b          	slliw	a5,a5,0x2
ffffffc050401d1e:	9fb9                	addw	a5,a5,a4
ffffffc050401d20:	0047979b          	slliw	a5,a5,0x4
ffffffc050401d24:	2781                	sext.w	a5,a5
ffffffc050401d26:	fe842703          	lw	a4,-24(s0)
ffffffc050401d2a:	9fb9                	addw	a5,a5,a4
ffffffc050401d2c:	2781                	sext.w	a5,a5
ffffffc050401d2e:	00053717          	auipc	a4,0x53
ffffffc050401d32:	6ea70713          	addi	a4,a4,1770 # ffffffc050455418 <new_screen>
ffffffc050401d36:	9736                	add	a4,a4,a3
ffffffc050401d38:	00074703          	lbu	a4,0(a4)
ffffffc050401d3c:	00054697          	auipc	a3,0x54
ffffffc050401d40:	3ac68693          	addi	a3,a3,940 # ffffffc0504560e8 <old_screen>
ffffffc050401d44:	97b6                	add	a5,a5,a3
ffffffc050401d46:	00e78023          	sb	a4,0(a5)
ffffffc050401d4a:	fe842783          	lw	a5,-24(s0)
ffffffc050401d4e:	2785                	addiw	a5,a5,1
ffffffc050401d50:	fef42423          	sw	a5,-24(s0)
ffffffc050401d54:	fe842783          	lw	a5,-24(s0)
ffffffc050401d58:	0007871b          	sext.w	a4,a5
ffffffc050401d5c:	04f00793          	li	a5,79
ffffffc050401d60:	eee7dde3          	bge	a5,a4,ffffffc050401c5a <screen_reflush+0x5c>
ffffffc050401d64:	fec42783          	lw	a5,-20(s0)
ffffffc050401d68:	2785                	addiw	a5,a5,1
ffffffc050401d6a:	fef42623          	sw	a5,-20(s0)
ffffffc050401d6e:	fec42783          	lw	a5,-20(s0)
ffffffc050401d72:	0007871b          	sext.w	a4,a5
ffffffc050401d76:	02800793          	li	a5,40
ffffffc050401d7a:	ece7dde3          	bge	a5,a4,ffffffc050401c54 <screen_reflush+0x56>
ffffffc050401d7e:	0009d797          	auipc	a5,0x9d
ffffffc050401d82:	43a78793          	addi	a5,a5,1082 # ffffffc05049f1b8 <current_running>
ffffffc050401d86:	639c                	ld	a5,0(a5)
ffffffc050401d88:	639c                	ld	a5,0(a5)
ffffffc050401d8a:	fe442703          	lw	a4,-28(s0)
ffffffc050401d8e:	cfb8                	sw	a4,88(a5)
ffffffc050401d90:	0009d797          	auipc	a5,0x9d
ffffffc050401d94:	42878793          	addi	a5,a5,1064 # ffffffc05049f1b8 <current_running>
ffffffc050401d98:	639c                	ld	a5,0(a5)
ffffffc050401d9a:	639c                	ld	a5,0(a5)
ffffffc050401d9c:	fe042703          	lw	a4,-32(s0)
ffffffc050401da0:	cff8                	sw	a4,92(a5)
ffffffc050401da2:	0001                	nop
ffffffc050401da4:	60e2                	ld	ra,24(sp)
ffffffc050401da6:	6442                	ld	s0,16(sp)
ffffffc050401da8:	6105                	addi	sp,sp,32
ffffffc050401daa:	8082                	ret

ffffffc050401dac <init_list_head>:
ffffffc050401dac:	1101                	addi	sp,sp,-32
ffffffc050401dae:	ec22                	sd	s0,24(sp)
ffffffc050401db0:	1000                	addi	s0,sp,32
ffffffc050401db2:	fea43423          	sd	a0,-24(s0)
ffffffc050401db6:	fe843783          	ld	a5,-24(s0)
ffffffc050401dba:	fe843703          	ld	a4,-24(s0)
ffffffc050401dbe:	e398                	sd	a4,0(a5)
ffffffc050401dc0:	fe843783          	ld	a5,-24(s0)
ffffffc050401dc4:	fe843703          	ld	a4,-24(s0)
ffffffc050401dc8:	e798                	sd	a4,8(a5)
ffffffc050401dca:	0001                	nop
ffffffc050401dcc:	6462                	ld	s0,24(sp)
ffffffc050401dce:	6105                	addi	sp,sp,32
ffffffc050401dd0:	8082                	ret

ffffffc050401dd2 <list_add>:
ffffffc050401dd2:	1101                	addi	sp,sp,-32
ffffffc050401dd4:	ec22                	sd	s0,24(sp)
ffffffc050401dd6:	1000                	addi	s0,sp,32
ffffffc050401dd8:	fea43423          	sd	a0,-24(s0)
ffffffc050401ddc:	feb43023          	sd	a1,-32(s0)
ffffffc050401de0:	fe043783          	ld	a5,-32(s0)
ffffffc050401de4:	639c                	ld	a5,0(a5)
ffffffc050401de6:	fe843703          	ld	a4,-24(s0)
ffffffc050401dea:	e798                	sd	a4,8(a5)
ffffffc050401dec:	fe043783          	ld	a5,-32(s0)
ffffffc050401df0:	6398                	ld	a4,0(a5)
ffffffc050401df2:	fe843783          	ld	a5,-24(s0)
ffffffc050401df6:	e398                	sd	a4,0(a5)
ffffffc050401df8:	fe843783          	ld	a5,-24(s0)
ffffffc050401dfc:	fe043703          	ld	a4,-32(s0)
ffffffc050401e00:	e798                	sd	a4,8(a5)
ffffffc050401e02:	fe043783          	ld	a5,-32(s0)
ffffffc050401e06:	fe843703          	ld	a4,-24(s0)
ffffffc050401e0a:	e398                	sd	a4,0(a5)
ffffffc050401e0c:	0001                	nop
ffffffc050401e0e:	6462                	ld	s0,24(sp)
ffffffc050401e10:	6105                	addi	sp,sp,32
ffffffc050401e12:	8082                	ret

ffffffc050401e14 <list_del>:
ffffffc050401e14:	1101                	addi	sp,sp,-32
ffffffc050401e16:	ec22                	sd	s0,24(sp)
ffffffc050401e18:	1000                	addi	s0,sp,32
ffffffc050401e1a:	fea43423          	sd	a0,-24(s0)
ffffffc050401e1e:	fe843783          	ld	a5,-24(s0)
ffffffc050401e22:	679c                	ld	a5,8(a5)
ffffffc050401e24:	cb9d                	beqz	a5,ffffffc050401e5a <list_del+0x46>
ffffffc050401e26:	fe843783          	ld	a5,-24(s0)
ffffffc050401e2a:	639c                	ld	a5,0(a5)
ffffffc050401e2c:	c79d                	beqz	a5,ffffffc050401e5a <list_del+0x46>
ffffffc050401e2e:	fe843783          	ld	a5,-24(s0)
ffffffc050401e32:	639c                	ld	a5,0(a5)
ffffffc050401e34:	fe843703          	ld	a4,-24(s0)
ffffffc050401e38:	6718                	ld	a4,8(a4)
ffffffc050401e3a:	e798                	sd	a4,8(a5)
ffffffc050401e3c:	fe843783          	ld	a5,-24(s0)
ffffffc050401e40:	679c                	ld	a5,8(a5)
ffffffc050401e42:	fe843703          	ld	a4,-24(s0)
ffffffc050401e46:	6318                	ld	a4,0(a4)
ffffffc050401e48:	e398                	sd	a4,0(a5)
ffffffc050401e4a:	fe843783          	ld	a5,-24(s0)
ffffffc050401e4e:	0007b023          	sd	zero,0(a5)
ffffffc050401e52:	fe843783          	ld	a5,-24(s0)
ffffffc050401e56:	0007b423          	sd	zero,8(a5)
ffffffc050401e5a:	0001                	nop
ffffffc050401e5c:	6462                	ld	s0,24(sp)
ffffffc050401e5e:	6105                	addi	sp,sp,32
ffffffc050401e60:	8082                	ret

ffffffc050401e62 <do_mutex_lock_init>:
ffffffc050401e62:	1101                	addi	sp,sp,-32
ffffffc050401e64:	ec06                	sd	ra,24(sp)
ffffffc050401e66:	e822                	sd	s0,16(sp)
ffffffc050401e68:	1000                	addi	s0,sp,32
ffffffc050401e6a:	fea43423          	sd	a0,-24(s0)
ffffffc050401e6e:	fe843783          	ld	a5,-24(s0)
ffffffc050401e72:	0007a823          	sw	zero,16(a5)
ffffffc050401e76:	fe843783          	ld	a5,-24(s0)
ffffffc050401e7a:	07e1                	addi	a5,a5,24
ffffffc050401e7c:	853e                	mv	a0,a5
ffffffc050401e7e:	f2fff0ef          	jal	ra,ffffffc050401dac <init_list_head>
ffffffc050401e82:	0001                	nop
ffffffc050401e84:	60e2                	ld	ra,24(sp)
ffffffc050401e86:	6442                	ld	s0,16(sp)
ffffffc050401e88:	6105                	addi	sp,sp,32
ffffffc050401e8a:	8082                	ret

ffffffc050401e8c <do_mutex_lock_acquire>:
ffffffc050401e8c:	1101                	addi	sp,sp,-32
ffffffc050401e8e:	ec06                	sd	ra,24(sp)
ffffffc050401e90:	e822                	sd	s0,16(sp)
ffffffc050401e92:	1000                	addi	s0,sp,32
ffffffc050401e94:	fea43423          	sd	a0,-24(s0)
ffffffc050401e98:	c34fe0ef          	jal	ra,ffffffc0504002cc <get_current_cpu_id>
ffffffc050401e9c:	87aa                	mv	a5,a0
ffffffc050401e9e:	c791                	beqz	a5,ffffffc050401eaa <do_mutex_lock_acquire+0x1e>
ffffffc050401ea0:	0009e797          	auipc	a5,0x9e
ffffffc050401ea4:	d2078793          	addi	a5,a5,-736 # ffffffc05049fbc0 <current_running_1>
ffffffc050401ea8:	a029                	j	ffffffc050401eb2 <do_mutex_lock_acquire+0x26>
ffffffc050401eaa:	0009d797          	auipc	a5,0x9d
ffffffc050401eae:	2f678793          	addi	a5,a5,758 # ffffffc05049f1a0 <current_running_0>
ffffffc050401eb2:	0009d717          	auipc	a4,0x9d
ffffffc050401eb6:	30670713          	addi	a4,a4,774 # ffffffc05049f1b8 <current_running>
ffffffc050401eba:	e31c                	sd	a5,0(a4)
ffffffc050401ebc:	a005                	j	ffffffc050401edc <do_mutex_lock_acquire+0x50>
ffffffc050401ebe:	0009d797          	auipc	a5,0x9d
ffffffc050401ec2:	2fa78793          	addi	a5,a5,762 # ffffffc05049f1b8 <current_running>
ffffffc050401ec6:	639c                	ld	a5,0(a5)
ffffffc050401ec8:	639c                	ld	a5,0(a5)
ffffffc050401eca:	02878713          	addi	a4,a5,40
ffffffc050401ece:	fe843783          	ld	a5,-24(s0)
ffffffc050401ed2:	07e1                	addi	a5,a5,24
ffffffc050401ed4:	85be                	mv	a1,a5
ffffffc050401ed6:	853a                	mv	a0,a4
ffffffc050401ed8:	3df000ef          	jal	ra,ffffffc050402ab6 <do_block>
ffffffc050401edc:	fe843783          	ld	a5,-24(s0)
ffffffc050401ee0:	4b9c                	lw	a5,16(a5)
ffffffc050401ee2:	2781                	sext.w	a5,a5
ffffffc050401ee4:	873e                	mv	a4,a5
ffffffc050401ee6:	4785                	li	a5,1
ffffffc050401ee8:	fcf70be3          	beq	a4,a5,ffffffc050401ebe <do_mutex_lock_acquire+0x32>
ffffffc050401eec:	fe843783          	ld	a5,-24(s0)
ffffffc050401ef0:	4705                	li	a4,1
ffffffc050401ef2:	cb98                	sw	a4,16(a5)
ffffffc050401ef4:	fe843703          	ld	a4,-24(s0)
ffffffc050401ef8:	0009d797          	auipc	a5,0x9d
ffffffc050401efc:	2c078793          	addi	a5,a5,704 # ffffffc05049f1b8 <current_running>
ffffffc050401f00:	639c                	ld	a5,0(a5)
ffffffc050401f02:	639c                	ld	a5,0(a5)
ffffffc050401f04:	07078793          	addi	a5,a5,112
ffffffc050401f08:	85be                	mv	a1,a5
ffffffc050401f0a:	853a                	mv	a0,a4
ffffffc050401f0c:	ec7ff0ef          	jal	ra,ffffffc050401dd2 <list_add>
ffffffc050401f10:	0001                	nop
ffffffc050401f12:	60e2                	ld	ra,24(sp)
ffffffc050401f14:	6442                	ld	s0,16(sp)
ffffffc050401f16:	6105                	addi	sp,sp,32
ffffffc050401f18:	8082                	ret

ffffffc050401f1a <do_mutex_lock_release>:
ffffffc050401f1a:	1101                	addi	sp,sp,-32
ffffffc050401f1c:	ec06                	sd	ra,24(sp)
ffffffc050401f1e:	e822                	sd	s0,16(sp)
ffffffc050401f20:	1000                	addi	s0,sp,32
ffffffc050401f22:	fea43423          	sd	a0,-24(s0)
ffffffc050401f26:	fe843783          	ld	a5,-24(s0)
ffffffc050401f2a:	853e                	mv	a0,a5
ffffffc050401f2c:	ee9ff0ef          	jal	ra,ffffffc050401e14 <list_del>
ffffffc050401f30:	fe843783          	ld	a5,-24(s0)
ffffffc050401f34:	7398                	ld	a4,32(a5)
ffffffc050401f36:	fe843783          	ld	a5,-24(s0)
ffffffc050401f3a:	07e1                	addi	a5,a5,24
ffffffc050401f3c:	00f70863          	beq	a4,a5,ffffffc050401f4c <do_mutex_lock_release+0x32>
ffffffc050401f40:	fe843783          	ld	a5,-24(s0)
ffffffc050401f44:	739c                	ld	a5,32(a5)
ffffffc050401f46:	853e                	mv	a0,a5
ffffffc050401f48:	3b5000ef          	jal	ra,ffffffc050402afc <do_unblock>
ffffffc050401f4c:	fe843783          	ld	a5,-24(s0)
ffffffc050401f50:	0007a823          	sw	zero,16(a5)
ffffffc050401f54:	0001                	nop
ffffffc050401f56:	60e2                	ld	ra,24(sp)
ffffffc050401f58:	6442                	ld	s0,16(sp)
ffffffc050401f5a:	6105                	addi	sp,sp,32
ffffffc050401f5c:	8082                	ret

ffffffc050401f5e <try_mutex_lock_acquire>:
ffffffc050401f5e:	1101                	addi	sp,sp,-32
ffffffc050401f60:	ec06                	sd	ra,24(sp)
ffffffc050401f62:	e822                	sd	s0,16(sp)
ffffffc050401f64:	1000                	addi	s0,sp,32
ffffffc050401f66:	fea43423          	sd	a0,-24(s0)
ffffffc050401f6a:	b62fe0ef          	jal	ra,ffffffc0504002cc <get_current_cpu_id>
ffffffc050401f6e:	87aa                	mv	a5,a0
ffffffc050401f70:	c791                	beqz	a5,ffffffc050401f7c <try_mutex_lock_acquire+0x1e>
ffffffc050401f72:	0009e797          	auipc	a5,0x9e
ffffffc050401f76:	c4e78793          	addi	a5,a5,-946 # ffffffc05049fbc0 <current_running_1>
ffffffc050401f7a:	a029                	j	ffffffc050401f84 <try_mutex_lock_acquire+0x26>
ffffffc050401f7c:	0009d797          	auipc	a5,0x9d
ffffffc050401f80:	22478793          	addi	a5,a5,548 # ffffffc05049f1a0 <current_running_0>
ffffffc050401f84:	0009d717          	auipc	a4,0x9d
ffffffc050401f88:	23470713          	addi	a4,a4,564 # ffffffc05049f1b8 <current_running>
ffffffc050401f8c:	e31c                	sd	a5,0(a4)
ffffffc050401f8e:	fe843783          	ld	a5,-24(s0)
ffffffc050401f92:	4b9c                	lw	a5,16(a5)
ffffffc050401f94:	2781                	sext.w	a5,a5
ffffffc050401f96:	873e                	mv	a4,a5
ffffffc050401f98:	4785                	li	a5,1
ffffffc050401f9a:	00f71463          	bne	a4,a5,ffffffc050401fa2 <try_mutex_lock_acquire+0x44>
ffffffc050401f9e:	4781                	li	a5,0
ffffffc050401fa0:	a025                	j	ffffffc050401fc8 <try_mutex_lock_acquire+0x6a>
ffffffc050401fa2:	fe843783          	ld	a5,-24(s0)
ffffffc050401fa6:	4705                	li	a4,1
ffffffc050401fa8:	cb98                	sw	a4,16(a5)
ffffffc050401faa:	fe843703          	ld	a4,-24(s0)
ffffffc050401fae:	0009d797          	auipc	a5,0x9d
ffffffc050401fb2:	20a78793          	addi	a5,a5,522 # ffffffc05049f1b8 <current_running>
ffffffc050401fb6:	639c                	ld	a5,0(a5)
ffffffc050401fb8:	639c                	ld	a5,0(a5)
ffffffc050401fba:	07078793          	addi	a5,a5,112
ffffffc050401fbe:	85be                	mv	a1,a5
ffffffc050401fc0:	853a                	mv	a0,a4
ffffffc050401fc2:	e11ff0ef          	jal	ra,ffffffc050401dd2 <list_add>
ffffffc050401fc6:	4785                	li	a5,1
ffffffc050401fc8:	853e                	mv	a0,a5
ffffffc050401fca:	60e2                	ld	ra,24(sp)
ffffffc050401fcc:	6442                	ld	s0,16(sp)
ffffffc050401fce:	6105                	addi	sp,sp,32
ffffffc050401fd0:	8082                	ret

ffffffc050401fd2 <mutex_get>:
ffffffc050401fd2:	7179                	addi	sp,sp,-48
ffffffc050401fd4:	f406                	sd	ra,40(sp)
ffffffc050401fd6:	f022                	sd	s0,32(sp)
ffffffc050401fd8:	1800                	addi	s0,sp,48
ffffffc050401fda:	87aa                	mv	a5,a0
ffffffc050401fdc:	fcf42e23          	sw	a5,-36(s0)
ffffffc050401fe0:	4785                	li	a5,1
ffffffc050401fe2:	fef42623          	sw	a5,-20(s0)
ffffffc050401fe6:	a815                	j	ffffffc05040201a <mutex_get+0x48>
ffffffc050401fe8:	0009d697          	auipc	a3,0x9d
ffffffc050401fec:	eb868693          	addi	a3,a3,-328 # ffffffc05049eea0 <mutex_lock_array>
ffffffc050401ff0:	fec42703          	lw	a4,-20(s0)
ffffffc050401ff4:	87ba                	mv	a5,a4
ffffffc050401ff6:	0786                	slli	a5,a5,0x1
ffffffc050401ff8:	97ba                	add	a5,a5,a4
ffffffc050401ffa:	0792                	slli	a5,a5,0x4
ffffffc050401ffc:	97b6                	add	a5,a5,a3
ffffffc050401ffe:	4398                	lw	a4,0(a5)
ffffffc050402000:	fdc42783          	lw	a5,-36(s0)
ffffffc050402004:	2781                	sext.w	a5,a5
ffffffc050402006:	00e79563          	bne	a5,a4,ffffffc050402010 <mutex_get+0x3e>
ffffffc05040200a:	fec42783          	lw	a5,-20(s0)
ffffffc05040200e:	a04d                	j	ffffffc0504020b0 <mutex_get+0xde>
ffffffc050402010:	fec42783          	lw	a5,-20(s0)
ffffffc050402014:	2785                	addiw	a5,a5,1
ffffffc050402016:	fef42623          	sw	a5,-20(s0)
ffffffc05040201a:	fec42783          	lw	a5,-20(s0)
ffffffc05040201e:	0007871b          	sext.w	a4,a5
ffffffc050402022:	47bd                	li	a5,15
ffffffc050402024:	fce7d2e3          	bge	a5,a4,ffffffc050401fe8 <mutex_get+0x16>
ffffffc050402028:	4785                	li	a5,1
ffffffc05040202a:	fef42623          	sw	a5,-20(s0)
ffffffc05040202e:	a09d                	j	ffffffc050402094 <mutex_get+0xc2>
ffffffc050402030:	0009d697          	auipc	a3,0x9d
ffffffc050402034:	e7068693          	addi	a3,a3,-400 # ffffffc05049eea0 <mutex_lock_array>
ffffffc050402038:	fec42703          	lw	a4,-20(s0)
ffffffc05040203c:	87ba                	mv	a5,a4
ffffffc05040203e:	0786                	slli	a5,a5,0x1
ffffffc050402040:	97ba                	add	a5,a5,a4
ffffffc050402042:	0792                	slli	a5,a5,0x4
ffffffc050402044:	97b6                	add	a5,a5,a3
ffffffc050402046:	439c                	lw	a5,0(a5)
ffffffc050402048:	e3a9                	bnez	a5,ffffffc05040208a <mutex_get+0xb8>
ffffffc05040204a:	0009d697          	auipc	a3,0x9d
ffffffc05040204e:	e5668693          	addi	a3,a3,-426 # ffffffc05049eea0 <mutex_lock_array>
ffffffc050402052:	fec42703          	lw	a4,-20(s0)
ffffffc050402056:	87ba                	mv	a5,a4
ffffffc050402058:	0786                	slli	a5,a5,0x1
ffffffc05040205a:	97ba                	add	a5,a5,a4
ffffffc05040205c:	0792                	slli	a5,a5,0x4
ffffffc05040205e:	97b6                	add	a5,a5,a3
ffffffc050402060:	fdc42703          	lw	a4,-36(s0)
ffffffc050402064:	c398                	sw	a4,0(a5)
ffffffc050402066:	fec42703          	lw	a4,-20(s0)
ffffffc05040206a:	87ba                	mv	a5,a4
ffffffc05040206c:	0786                	slli	a5,a5,0x1
ffffffc05040206e:	97ba                	add	a5,a5,a4
ffffffc050402070:	0792                	slli	a5,a5,0x4
ffffffc050402072:	0009d717          	auipc	a4,0x9d
ffffffc050402076:	e2e70713          	addi	a4,a4,-466 # ffffffc05049eea0 <mutex_lock_array>
ffffffc05040207a:	97ba                	add	a5,a5,a4
ffffffc05040207c:	07a1                	addi	a5,a5,8
ffffffc05040207e:	853e                	mv	a0,a5
ffffffc050402080:	de3ff0ef          	jal	ra,ffffffc050401e62 <do_mutex_lock_init>
ffffffc050402084:	fec42783          	lw	a5,-20(s0)
ffffffc050402088:	a025                	j	ffffffc0504020b0 <mutex_get+0xde>
ffffffc05040208a:	fec42783          	lw	a5,-20(s0)
ffffffc05040208e:	2785                	addiw	a5,a5,1
ffffffc050402090:	fef42623          	sw	a5,-20(s0)
ffffffc050402094:	fec42783          	lw	a5,-20(s0)
ffffffc050402098:	0007871b          	sext.w	a4,a5
ffffffc05040209c:	47bd                	li	a5,15
ffffffc05040209e:	f8e7d9e3          	bge	a5,a4,ffffffc050402030 <mutex_get+0x5e>
ffffffc0504020a2:	00005517          	auipc	a0,0x5
ffffffc0504020a6:	1c650513          	addi	a0,a0,454 # ffffffc050407268 <__FUNCTION__.1619+0x30>
ffffffc0504020aa:	3d5040ef          	jal	ra,ffffffc050406c7e <printk>
ffffffc0504020ae:	4781                	li	a5,0
ffffffc0504020b0:	853e                	mv	a0,a5
ffffffc0504020b2:	70a2                	ld	ra,40(sp)
ffffffc0504020b4:	7402                	ld	s0,32(sp)
ffffffc0504020b6:	6145                	addi	sp,sp,48
ffffffc0504020b8:	8082                	ret

ffffffc0504020ba <mutex_lock>:
ffffffc0504020ba:	1101                	addi	sp,sp,-32
ffffffc0504020bc:	ec06                	sd	ra,24(sp)
ffffffc0504020be:	e822                	sd	s0,16(sp)
ffffffc0504020c0:	1000                	addi	s0,sp,32
ffffffc0504020c2:	87aa                	mv	a5,a0
ffffffc0504020c4:	fef42623          	sw	a5,-20(s0)
ffffffc0504020c8:	fec42783          	lw	a5,-20(s0)
ffffffc0504020cc:	2781                	sext.w	a5,a5
ffffffc0504020ce:	02f05663          	blez	a5,ffffffc0504020fa <mutex_lock+0x40>
ffffffc0504020d2:	fec42783          	lw	a5,-20(s0)
ffffffc0504020d6:	0007871b          	sext.w	a4,a5
ffffffc0504020da:	47bd                	li	a5,15
ffffffc0504020dc:	00e7cf63          	blt	a5,a4,ffffffc0504020fa <mutex_lock+0x40>
ffffffc0504020e0:	0009d697          	auipc	a3,0x9d
ffffffc0504020e4:	dc068693          	addi	a3,a3,-576 # ffffffc05049eea0 <mutex_lock_array>
ffffffc0504020e8:	fec42703          	lw	a4,-20(s0)
ffffffc0504020ec:	87ba                	mv	a5,a4
ffffffc0504020ee:	0786                	slli	a5,a5,0x1
ffffffc0504020f0:	97ba                	add	a5,a5,a4
ffffffc0504020f2:	0792                	slli	a5,a5,0x4
ffffffc0504020f4:	97b6                	add	a5,a5,a3
ffffffc0504020f6:	439c                	lw	a5,0(a5)
ffffffc0504020f8:	eb89                	bnez	a5,ffffffc05040210a <mutex_lock+0x50>
ffffffc0504020fa:	00005517          	auipc	a0,0x5
ffffffc0504020fe:	19650513          	addi	a0,a0,406 # ffffffc050407290 <__FUNCTION__.1619+0x58>
ffffffc050402102:	37d040ef          	jal	ra,ffffffc050406c7e <printk>
ffffffc050402106:	4781                	li	a5,0
ffffffc050402108:	a00d                	j	ffffffc05040212a <mutex_lock+0x70>
ffffffc05040210a:	fec42703          	lw	a4,-20(s0)
ffffffc05040210e:	87ba                	mv	a5,a4
ffffffc050402110:	0786                	slli	a5,a5,0x1
ffffffc050402112:	97ba                	add	a5,a5,a4
ffffffc050402114:	0792                	slli	a5,a5,0x4
ffffffc050402116:	0009d717          	auipc	a4,0x9d
ffffffc05040211a:	d8a70713          	addi	a4,a4,-630 # ffffffc05049eea0 <mutex_lock_array>
ffffffc05040211e:	97ba                	add	a5,a5,a4
ffffffc050402120:	07a1                	addi	a5,a5,8
ffffffc050402122:	853e                	mv	a0,a5
ffffffc050402124:	d69ff0ef          	jal	ra,ffffffc050401e8c <do_mutex_lock_acquire>
ffffffc050402128:	4785                	li	a5,1
ffffffc05040212a:	853e                	mv	a0,a5
ffffffc05040212c:	60e2                	ld	ra,24(sp)
ffffffc05040212e:	6442                	ld	s0,16(sp)
ffffffc050402130:	6105                	addi	sp,sp,32
ffffffc050402132:	8082                	ret

ffffffc050402134 <mutex_unlock>:
ffffffc050402134:	1101                	addi	sp,sp,-32
ffffffc050402136:	ec06                	sd	ra,24(sp)
ffffffc050402138:	e822                	sd	s0,16(sp)
ffffffc05040213a:	1000                	addi	s0,sp,32
ffffffc05040213c:	87aa                	mv	a5,a0
ffffffc05040213e:	fef42623          	sw	a5,-20(s0)
ffffffc050402142:	fec42783          	lw	a5,-20(s0)
ffffffc050402146:	2781                	sext.w	a5,a5
ffffffc050402148:	02f05663          	blez	a5,ffffffc050402174 <mutex_unlock+0x40>
ffffffc05040214c:	fec42783          	lw	a5,-20(s0)
ffffffc050402150:	0007871b          	sext.w	a4,a5
ffffffc050402154:	47bd                	li	a5,15
ffffffc050402156:	00e7cf63          	blt	a5,a4,ffffffc050402174 <mutex_unlock+0x40>
ffffffc05040215a:	0009d697          	auipc	a3,0x9d
ffffffc05040215e:	d4668693          	addi	a3,a3,-698 # ffffffc05049eea0 <mutex_lock_array>
ffffffc050402162:	fec42703          	lw	a4,-20(s0)
ffffffc050402166:	87ba                	mv	a5,a4
ffffffc050402168:	0786                	slli	a5,a5,0x1
ffffffc05040216a:	97ba                	add	a5,a5,a4
ffffffc05040216c:	0792                	slli	a5,a5,0x4
ffffffc05040216e:	97b6                	add	a5,a5,a3
ffffffc050402170:	439c                	lw	a5,0(a5)
ffffffc050402172:	eb89                	bnez	a5,ffffffc050402184 <mutex_unlock+0x50>
ffffffc050402174:	00005517          	auipc	a0,0x5
ffffffc050402178:	11c50513          	addi	a0,a0,284 # ffffffc050407290 <__FUNCTION__.1619+0x58>
ffffffc05040217c:	303040ef          	jal	ra,ffffffc050406c7e <printk>
ffffffc050402180:	4781                	li	a5,0
ffffffc050402182:	a00d                	j	ffffffc0504021a4 <mutex_unlock+0x70>
ffffffc050402184:	fec42703          	lw	a4,-20(s0)
ffffffc050402188:	87ba                	mv	a5,a4
ffffffc05040218a:	0786                	slli	a5,a5,0x1
ffffffc05040218c:	97ba                	add	a5,a5,a4
ffffffc05040218e:	0792                	slli	a5,a5,0x4
ffffffc050402190:	0009d717          	auipc	a4,0x9d
ffffffc050402194:	d1070713          	addi	a4,a4,-752 # ffffffc05049eea0 <mutex_lock_array>
ffffffc050402198:	97ba                	add	a5,a5,a4
ffffffc05040219a:	07a1                	addi	a5,a5,8
ffffffc05040219c:	853e                	mv	a0,a5
ffffffc05040219e:	d7dff0ef          	jal	ra,ffffffc050401f1a <do_mutex_lock_release>
ffffffc0504021a2:	4785                	li	a5,1
ffffffc0504021a4:	853e                	mv	a0,a5
ffffffc0504021a6:	60e2                	ld	ra,24(sp)
ffffffc0504021a8:	6442                	ld	s0,16(sp)
ffffffc0504021aa:	6105                	addi	sp,sp,32
ffffffc0504021ac:	8082                	ret

ffffffc0504021ae <mutex_destory>:
ffffffc0504021ae:	1101                	addi	sp,sp,-32
ffffffc0504021b0:	ec06                	sd	ra,24(sp)
ffffffc0504021b2:	e822                	sd	s0,16(sp)
ffffffc0504021b4:	1000                	addi	s0,sp,32
ffffffc0504021b6:	87aa                	mv	a5,a0
ffffffc0504021b8:	fef42623          	sw	a5,-20(s0)
ffffffc0504021bc:	fec42783          	lw	a5,-20(s0)
ffffffc0504021c0:	2781                	sext.w	a5,a5
ffffffc0504021c2:	02f05663          	blez	a5,ffffffc0504021ee <mutex_destory+0x40>
ffffffc0504021c6:	fec42783          	lw	a5,-20(s0)
ffffffc0504021ca:	0007871b          	sext.w	a4,a5
ffffffc0504021ce:	47bd                	li	a5,15
ffffffc0504021d0:	00e7cf63          	blt	a5,a4,ffffffc0504021ee <mutex_destory+0x40>
ffffffc0504021d4:	0009d697          	auipc	a3,0x9d
ffffffc0504021d8:	ccc68693          	addi	a3,a3,-820 # ffffffc05049eea0 <mutex_lock_array>
ffffffc0504021dc:	fec42703          	lw	a4,-20(s0)
ffffffc0504021e0:	87ba                	mv	a5,a4
ffffffc0504021e2:	0786                	slli	a5,a5,0x1
ffffffc0504021e4:	97ba                	add	a5,a5,a4
ffffffc0504021e6:	0792                	slli	a5,a5,0x4
ffffffc0504021e8:	97b6                	add	a5,a5,a3
ffffffc0504021ea:	439c                	lw	a5,0(a5)
ffffffc0504021ec:	eb89                	bnez	a5,ffffffc0504021fe <mutex_destory+0x50>
ffffffc0504021ee:	00005517          	auipc	a0,0x5
ffffffc0504021f2:	0a250513          	addi	a0,a0,162 # ffffffc050407290 <__FUNCTION__.1619+0x58>
ffffffc0504021f6:	289040ef          	jal	ra,ffffffc050406c7e <printk>
ffffffc0504021fa:	4781                	li	a5,0
ffffffc0504021fc:	a839                	j	ffffffc05040221a <mutex_destory+0x6c>
ffffffc0504021fe:	0009d697          	auipc	a3,0x9d
ffffffc050402202:	ca268693          	addi	a3,a3,-862 # ffffffc05049eea0 <mutex_lock_array>
ffffffc050402206:	fec42703          	lw	a4,-20(s0)
ffffffc05040220a:	87ba                	mv	a5,a4
ffffffc05040220c:	0786                	slli	a5,a5,0x1
ffffffc05040220e:	97ba                	add	a5,a5,a4
ffffffc050402210:	0792                	slli	a5,a5,0x4
ffffffc050402212:	97b6                	add	a5,a5,a3
ffffffc050402214:	0007a023          	sw	zero,0(a5)
ffffffc050402218:	4785                	li	a5,1
ffffffc05040221a:	853e                	mv	a0,a5
ffffffc05040221c:	60e2                	ld	ra,24(sp)
ffffffc05040221e:	6442                	ld	s0,16(sp)
ffffffc050402220:	6105                	addi	sp,sp,32
ffffffc050402222:	8082                	ret

ffffffc050402224 <mutex_trylock>:
ffffffc050402224:	1101                	addi	sp,sp,-32
ffffffc050402226:	ec06                	sd	ra,24(sp)
ffffffc050402228:	e822                	sd	s0,16(sp)
ffffffc05040222a:	1000                	addi	s0,sp,32
ffffffc05040222c:	87aa                	mv	a5,a0
ffffffc05040222e:	fef42623          	sw	a5,-20(s0)
ffffffc050402232:	fec42783          	lw	a5,-20(s0)
ffffffc050402236:	2781                	sext.w	a5,a5
ffffffc050402238:	02f05663          	blez	a5,ffffffc050402264 <mutex_trylock+0x40>
ffffffc05040223c:	fec42783          	lw	a5,-20(s0)
ffffffc050402240:	0007871b          	sext.w	a4,a5
ffffffc050402244:	47bd                	li	a5,15
ffffffc050402246:	00e7cf63          	blt	a5,a4,ffffffc050402264 <mutex_trylock+0x40>
ffffffc05040224a:	0009d697          	auipc	a3,0x9d
ffffffc05040224e:	c5668693          	addi	a3,a3,-938 # ffffffc05049eea0 <mutex_lock_array>
ffffffc050402252:	fec42703          	lw	a4,-20(s0)
ffffffc050402256:	87ba                	mv	a5,a4
ffffffc050402258:	0786                	slli	a5,a5,0x1
ffffffc05040225a:	97ba                	add	a5,a5,a4
ffffffc05040225c:	0792                	slli	a5,a5,0x4
ffffffc05040225e:	97b6                	add	a5,a5,a3
ffffffc050402260:	439c                	lw	a5,0(a5)
ffffffc050402262:	eb89                	bnez	a5,ffffffc050402274 <mutex_trylock+0x50>
ffffffc050402264:	00005517          	auipc	a0,0x5
ffffffc050402268:	02c50513          	addi	a0,a0,44 # ffffffc050407290 <__FUNCTION__.1619+0x58>
ffffffc05040226c:	213040ef          	jal	ra,ffffffc050406c7e <printk>
ffffffc050402270:	4781                	li	a5,0
ffffffc050402272:	a00d                	j	ffffffc050402294 <mutex_trylock+0x70>
ffffffc050402274:	fec42703          	lw	a4,-20(s0)
ffffffc050402278:	87ba                	mv	a5,a4
ffffffc05040227a:	0786                	slli	a5,a5,0x1
ffffffc05040227c:	97ba                	add	a5,a5,a4
ffffffc05040227e:	0792                	slli	a5,a5,0x4
ffffffc050402280:	0009d717          	auipc	a4,0x9d
ffffffc050402284:	c2070713          	addi	a4,a4,-992 # ffffffc05049eea0 <mutex_lock_array>
ffffffc050402288:	97ba                	add	a5,a5,a4
ffffffc05040228a:	07a1                	addi	a5,a5,8
ffffffc05040228c:	853e                	mv	a0,a5
ffffffc05040228e:	cd1ff0ef          	jal	ra,ffffffc050401f5e <try_mutex_lock_acquire>
ffffffc050402292:	87aa                	mv	a5,a0
ffffffc050402294:	853e                	mv	a0,a5
ffffffc050402296:	60e2                	ld	ra,24(sp)
ffffffc050402298:	6442                	ld	s0,16(sp)
ffffffc05040229a:	6105                	addi	sp,sp,32
ffffffc05040229c:	8082                	ret

ffffffc05040229e <do_binsemget>:
ffffffc05040229e:	1101                	addi	sp,sp,-32
ffffffc0504022a0:	ec06                	sd	ra,24(sp)
ffffffc0504022a2:	e822                	sd	s0,16(sp)
ffffffc0504022a4:	1000                	addi	s0,sp,32
ffffffc0504022a6:	87aa                	mv	a5,a0
ffffffc0504022a8:	fef42623          	sw	a5,-20(s0)
ffffffc0504022ac:	fec42783          	lw	a5,-20(s0)
ffffffc0504022b0:	853e                	mv	a0,a5
ffffffc0504022b2:	d21ff0ef          	jal	ra,ffffffc050401fd2 <mutex_get>
ffffffc0504022b6:	87aa                	mv	a5,a0
ffffffc0504022b8:	853e                	mv	a0,a5
ffffffc0504022ba:	60e2                	ld	ra,24(sp)
ffffffc0504022bc:	6442                	ld	s0,16(sp)
ffffffc0504022be:	6105                	addi	sp,sp,32
ffffffc0504022c0:	8082                	ret

ffffffc0504022c2 <do_binsemop>:
ffffffc0504022c2:	1101                	addi	sp,sp,-32
ffffffc0504022c4:	ec06                	sd	ra,24(sp)
ffffffc0504022c6:	e822                	sd	s0,16(sp)
ffffffc0504022c8:	1000                	addi	s0,sp,32
ffffffc0504022ca:	87aa                	mv	a5,a0
ffffffc0504022cc:	872e                	mv	a4,a1
ffffffc0504022ce:	fef42623          	sw	a5,-20(s0)
ffffffc0504022d2:	87ba                	mv	a5,a4
ffffffc0504022d4:	fef42423          	sw	a5,-24(s0)
ffffffc0504022d8:	fe842783          	lw	a5,-24(s0)
ffffffc0504022dc:	2781                	sext.w	a5,a5
ffffffc0504022de:	cb81                	beqz	a5,ffffffc0504022ee <do_binsemop+0x2c>
ffffffc0504022e0:	fec42783          	lw	a5,-20(s0)
ffffffc0504022e4:	853e                	mv	a0,a5
ffffffc0504022e6:	e4fff0ef          	jal	ra,ffffffc050402134 <mutex_unlock>
ffffffc0504022ea:	87aa                	mv	a5,a0
ffffffc0504022ec:	a039                	j	ffffffc0504022fa <do_binsemop+0x38>
ffffffc0504022ee:	fec42783          	lw	a5,-20(s0)
ffffffc0504022f2:	853e                	mv	a0,a5
ffffffc0504022f4:	dc7ff0ef          	jal	ra,ffffffc0504020ba <mutex_lock>
ffffffc0504022f8:	87aa                	mv	a5,a0
ffffffc0504022fa:	853e                	mv	a0,a5
ffffffc0504022fc:	60e2                	ld	ra,24(sp)
ffffffc0504022fe:	6442                	ld	s0,16(sp)
ffffffc050402300:	6105                	addi	sp,sp,32
ffffffc050402302:	8082                	ret

ffffffc050402304 <init_list_head>:
ffffffc050402304:	1101                	addi	sp,sp,-32
ffffffc050402306:	ec22                	sd	s0,24(sp)
ffffffc050402308:	1000                	addi	s0,sp,32
ffffffc05040230a:	fea43423          	sd	a0,-24(s0)
ffffffc05040230e:	fe843783          	ld	a5,-24(s0)
ffffffc050402312:	fe843703          	ld	a4,-24(s0)
ffffffc050402316:	e398                	sd	a4,0(a5)
ffffffc050402318:	fe843783          	ld	a5,-24(s0)
ffffffc05040231c:	fe843703          	ld	a4,-24(s0)
ffffffc050402320:	e798                	sd	a4,8(a5)
ffffffc050402322:	0001                	nop
ffffffc050402324:	6462                	ld	s0,24(sp)
ffffffc050402326:	6105                	addi	sp,sp,32
ffffffc050402328:	8082                	ret

ffffffc05040232a <list_add>:
ffffffc05040232a:	1101                	addi	sp,sp,-32
ffffffc05040232c:	ec22                	sd	s0,24(sp)
ffffffc05040232e:	1000                	addi	s0,sp,32
ffffffc050402330:	fea43423          	sd	a0,-24(s0)
ffffffc050402334:	feb43023          	sd	a1,-32(s0)
ffffffc050402338:	fe043783          	ld	a5,-32(s0)
ffffffc05040233c:	639c                	ld	a5,0(a5)
ffffffc05040233e:	fe843703          	ld	a4,-24(s0)
ffffffc050402342:	e798                	sd	a4,8(a5)
ffffffc050402344:	fe043783          	ld	a5,-32(s0)
ffffffc050402348:	6398                	ld	a4,0(a5)
ffffffc05040234a:	fe843783          	ld	a5,-24(s0)
ffffffc05040234e:	e398                	sd	a4,0(a5)
ffffffc050402350:	fe843783          	ld	a5,-24(s0)
ffffffc050402354:	fe043703          	ld	a4,-32(s0)
ffffffc050402358:	e798                	sd	a4,8(a5)
ffffffc05040235a:	fe043783          	ld	a5,-32(s0)
ffffffc05040235e:	fe843703          	ld	a4,-24(s0)
ffffffc050402362:	e398                	sd	a4,0(a5)
ffffffc050402364:	0001                	nop
ffffffc050402366:	6462                	ld	s0,24(sp)
ffffffc050402368:	6105                	addi	sp,sp,32
ffffffc05040236a:	8082                	ret

ffffffc05040236c <list_del>:
ffffffc05040236c:	1101                	addi	sp,sp,-32
ffffffc05040236e:	ec22                	sd	s0,24(sp)
ffffffc050402370:	1000                	addi	s0,sp,32
ffffffc050402372:	fea43423          	sd	a0,-24(s0)
ffffffc050402376:	fe843783          	ld	a5,-24(s0)
ffffffc05040237a:	679c                	ld	a5,8(a5)
ffffffc05040237c:	cb9d                	beqz	a5,ffffffc0504023b2 <list_del+0x46>
ffffffc05040237e:	fe843783          	ld	a5,-24(s0)
ffffffc050402382:	639c                	ld	a5,0(a5)
ffffffc050402384:	c79d                	beqz	a5,ffffffc0504023b2 <list_del+0x46>
ffffffc050402386:	fe843783          	ld	a5,-24(s0)
ffffffc05040238a:	639c                	ld	a5,0(a5)
ffffffc05040238c:	fe843703          	ld	a4,-24(s0)
ffffffc050402390:	6718                	ld	a4,8(a4)
ffffffc050402392:	e798                	sd	a4,8(a5)
ffffffc050402394:	fe843783          	ld	a5,-24(s0)
ffffffc050402398:	679c                	ld	a5,8(a5)
ffffffc05040239a:	fe843703          	ld	a4,-24(s0)
ffffffc05040239e:	6318                	ld	a4,0(a4)
ffffffc0504023a0:	e398                	sd	a4,0(a5)
ffffffc0504023a2:	fe843783          	ld	a5,-24(s0)
ffffffc0504023a6:	0007b023          	sd	zero,0(a5)
ffffffc0504023aa:	fe843783          	ld	a5,-24(s0)
ffffffc0504023ae:	0007b423          	sd	zero,8(a5)
ffffffc0504023b2:	0001                	nop
ffffffc0504023b4:	6462                	ld	s0,24(sp)
ffffffc0504023b6:	6105                	addi	sp,sp,32
ffffffc0504023b8:	8082                	ret

ffffffc0504023ba <local_flush_tlb_all>:
ffffffc0504023ba:	1141                	addi	sp,sp,-16
ffffffc0504023bc:	e422                	sd	s0,8(sp)
ffffffc0504023be:	0800                	addi	s0,sp,16
ffffffc0504023c0:	12000073          	sfence.vma
ffffffc0504023c4:	0001                	nop
ffffffc0504023c6:	6422                	ld	s0,8(sp)
ffffffc0504023c8:	0141                	addi	sp,sp,16
ffffffc0504023ca:	8082                	ret

ffffffc0504023cc <set_satp>:
ffffffc0504023cc:	7179                	addi	sp,sp,-48
ffffffc0504023ce:	f422                	sd	s0,40(sp)
ffffffc0504023d0:	1800                	addi	s0,sp,48
ffffffc0504023d2:	87aa                	mv	a5,a0
ffffffc0504023d4:	872e                	mv	a4,a1
ffffffc0504023d6:	fcc43823          	sd	a2,-48(s0)
ffffffc0504023da:	fcf42e23          	sw	a5,-36(s0)
ffffffc0504023de:	87ba                	mv	a5,a4
ffffffc0504023e0:	fcf42c23          	sw	a5,-40(s0)
ffffffc0504023e4:	fdc46783          	lwu	a5,-36(s0)
ffffffc0504023e8:	03c79713          	slli	a4,a5,0x3c
ffffffc0504023ec:	fd846783          	lwu	a5,-40(s0)
ffffffc0504023f0:	17b2                	slli	a5,a5,0x2c
ffffffc0504023f2:	8fd9                	or	a5,a5,a4
ffffffc0504023f4:	fd043703          	ld	a4,-48(s0)
ffffffc0504023f8:	8fd9                	or	a5,a5,a4
ffffffc0504023fa:	fef43423          	sd	a5,-24(s0)
ffffffc0504023fe:	fe843783          	ld	a5,-24(s0)
ffffffc050402402:	12000073          	sfence.vma
ffffffc050402406:	18079073          	csrw	satp,a5
ffffffc05040240a:	0001                	nop
ffffffc05040240c:	7422                	ld	s0,40(sp)
ffffffc05040240e:	6145                	addi	sp,sp,48
ffffffc050402410:	8082                	ret

ffffffc050402412 <kva2pa>:
ffffffc050402412:	1101                	addi	sp,sp,-32
ffffffc050402414:	ec22                	sd	s0,24(sp)
ffffffc050402416:	1000                	addi	s0,sp,32
ffffffc050402418:	fea43423          	sd	a0,-24(s0)
ffffffc05040241c:	fe843703          	ld	a4,-24(s0)
ffffffc050402420:	4785                	li	a5,1
ffffffc050402422:	179a                	slli	a5,a5,0x26
ffffffc050402424:	97ba                	add	a5,a5,a4
ffffffc050402426:	853e                	mv	a0,a5
ffffffc050402428:	6462                	ld	s0,24(sp)
ffffffc05040242a:	6105                	addi	sp,sp,32
ffffffc05040242c:	8082                	ret

ffffffc05040242e <pa2kva>:
ffffffc05040242e:	1101                	addi	sp,sp,-32
ffffffc050402430:	ec22                	sd	s0,24(sp)
ffffffc050402432:	1000                	addi	s0,sp,32
ffffffc050402434:	fea43423          	sd	a0,-24(s0)
ffffffc050402438:	fe843703          	ld	a4,-24(s0)
ffffffc05040243c:	57fd                	li	a5,-1
ffffffc05040243e:	179a                	slli	a5,a5,0x26
ffffffc050402440:	97ba                	add	a5,a5,a4
ffffffc050402442:	853e                	mv	a0,a5
ffffffc050402444:	6462                	ld	s0,24(sp)
ffffffc050402446:	6105                	addi	sp,sp,32
ffffffc050402448:	8082                	ret

ffffffc05040244a <clear_pgdir>:
ffffffc05040244a:	7179                	addi	sp,sp,-48
ffffffc05040244c:	f422                	sd	s0,40(sp)
ffffffc05040244e:	1800                	addi	s0,sp,48
ffffffc050402450:	fca43c23          	sd	a0,-40(s0)
ffffffc050402454:	fd843783          	ld	a5,-40(s0)
ffffffc050402458:	fef43423          	sd	a5,-24(s0)
ffffffc05040245c:	fe042223          	sw	zero,-28(s0)
ffffffc050402460:	a839                	j	ffffffc05040247e <clear_pgdir+0x34>
ffffffc050402462:	fe843783          	ld	a5,-24(s0)
ffffffc050402466:	0007b023          	sd	zero,0(a5)
ffffffc05040246a:	fe442783          	lw	a5,-28(s0)
ffffffc05040246e:	2785                	addiw	a5,a5,1
ffffffc050402470:	fef42223          	sw	a5,-28(s0)
ffffffc050402474:	fe843783          	ld	a5,-24(s0)
ffffffc050402478:	07a1                	addi	a5,a5,8
ffffffc05040247a:	fef43423          	sd	a5,-24(s0)
ffffffc05040247e:	fe442783          	lw	a5,-28(s0)
ffffffc050402482:	0007871b          	sext.w	a4,a5
ffffffc050402486:	1ff00793          	li	a5,511
ffffffc05040248a:	fce7dce3          	bge	a5,a4,ffffffc050402462 <clear_pgdir+0x18>
ffffffc05040248e:	0001                	nop
ffffffc050402490:	0001                	nop
ffffffc050402492:	7422                	ld	s0,40(sp)
ffffffc050402494:	6145                	addi	sp,sp,48
ffffffc050402496:	8082                	ret

ffffffc050402498 <is_elf_format>:
ffffffc050402498:	7179                	addi	sp,sp,-48
ffffffc05040249a:	f422                	sd	s0,40(sp)
ffffffc05040249c:	1800                	addi	s0,sp,48
ffffffc05040249e:	fca43c23          	sd	a0,-40(s0)
ffffffc0504024a2:	fd843783          	ld	a5,-40(s0)
ffffffc0504024a6:	fef43423          	sd	a5,-24(s0)
ffffffc0504024aa:	fe843783          	ld	a5,-24(s0)
ffffffc0504024ae:	0007c783          	lbu	a5,0(a5)
ffffffc0504024b2:	eb9d                	bnez	a5,ffffffc0504024e8 <is_elf_format+0x50>
ffffffc0504024b4:	fe843783          	ld	a5,-24(s0)
ffffffc0504024b8:	0017c783          	lbu	a5,1(a5)
ffffffc0504024bc:	873e                	mv	a4,a5
ffffffc0504024be:	4785                	li	a5,1
ffffffc0504024c0:	02f71463          	bne	a4,a5,ffffffc0504024e8 <is_elf_format+0x50>
ffffffc0504024c4:	fe843783          	ld	a5,-24(s0)
ffffffc0504024c8:	0027c783          	lbu	a5,2(a5)
ffffffc0504024cc:	873e                	mv	a4,a5
ffffffc0504024ce:	4789                	li	a5,2
ffffffc0504024d0:	00f71c63          	bne	a4,a5,ffffffc0504024e8 <is_elf_format+0x50>
ffffffc0504024d4:	fe843783          	ld	a5,-24(s0)
ffffffc0504024d8:	0037c783          	lbu	a5,3(a5)
ffffffc0504024dc:	873e                	mv	a4,a5
ffffffc0504024de:	478d                	li	a5,3
ffffffc0504024e0:	00f71463          	bne	a4,a5,ffffffc0504024e8 <is_elf_format+0x50>
ffffffc0504024e4:	4781                	li	a5,0
ffffffc0504024e6:	a011                	j	ffffffc0504024ea <is_elf_format+0x52>
ffffffc0504024e8:	4785                	li	a5,1
ffffffc0504024ea:	853e                	mv	a0,a5
ffffffc0504024ec:	7422                	ld	s0,40(sp)
ffffffc0504024ee:	6145                	addi	sp,sp,48
ffffffc0504024f0:	8082                	ret

ffffffc0504024f2 <load_elf>:
ffffffc0504024f2:	7159                	addi	sp,sp,-112
ffffffc0504024f4:	f486                	sd	ra,104(sp)
ffffffc0504024f6:	f0a2                	sd	s0,96(sp)
ffffffc0504024f8:	1880                	addi	s0,sp,112
ffffffc0504024fa:	faa43423          	sd	a0,-88(s0)
ffffffc0504024fe:	87ae                	mv	a5,a1
ffffffc050402500:	f8c43c23          	sd	a2,-104(s0)
ffffffc050402504:	f8d43823          	sd	a3,-112(s0)
ffffffc050402508:	faf42223          	sw	a5,-92(s0)
ffffffc05040250c:	fa843783          	ld	a5,-88(s0)
ffffffc050402510:	fcf43823          	sd	a5,-48(s0)
ffffffc050402514:	fc043423          	sd	zero,-56(s0)
ffffffc050402518:	fe043423          	sd	zero,-24(s0)
ffffffc05040251c:	fe042023          	sw	zero,-32(s0)
ffffffc050402520:	fa442783          	lw	a5,-92(s0)
ffffffc050402524:	0007871b          	sext.w	a4,a5
ffffffc050402528:	478d                	li	a5,3
ffffffc05040252a:	00e7f863          	bgeu	a5,a4,ffffffc05040253a <load_elf+0x48>
ffffffc05040252e:	fa843503          	ld	a0,-88(s0)
ffffffc050402532:	f67ff0ef          	jal	ra,ffffffc050402498 <is_elf_format>
ffffffc050402536:	87aa                	mv	a5,a0
ffffffc050402538:	e399                	bnez	a5,ffffffc05040253e <load_elf+0x4c>
ffffffc05040253a:	4781                	li	a5,0
ffffffc05040253c:	a269                	j	ffffffc0504026c6 <load_elf+0x1d4>
ffffffc05040253e:	fd043783          	ld	a5,-48(s0)
ffffffc050402542:	739c                	ld	a5,32(a5)
ffffffc050402544:	fa843703          	ld	a4,-88(s0)
ffffffc050402548:	97ba                	add	a5,a5,a4
ffffffc05040254a:	fef43423          	sd	a5,-24(s0)
ffffffc05040254e:	fd043783          	ld	a5,-48(s0)
ffffffc050402552:	0387d783          	lhu	a5,56(a5)
ffffffc050402556:	fef41323          	sh	a5,-26(s0)
ffffffc05040255a:	fd043783          	ld	a5,-48(s0)
ffffffc05040255e:	0367d783          	lhu	a5,54(a5)
ffffffc050402562:	fcf41323          	sh	a5,-58(s0)
ffffffc050402566:	a2a9                	j	ffffffc0504026b0 <load_elf+0x1be>
ffffffc050402568:	fe843783          	ld	a5,-24(s0)
ffffffc05040256c:	fcf43423          	sd	a5,-56(s0)
ffffffc050402570:	fc843783          	ld	a5,-56(s0)
ffffffc050402574:	439c                	lw	a5,0(a5)
ffffffc050402576:	873e                	mv	a4,a5
ffffffc050402578:	4785                	li	a5,1
ffffffc05040257a:	12f71463          	bne	a4,a5,ffffffc0504026a2 <load_elf+0x1b0>
ffffffc05040257e:	fe042023          	sw	zero,-32(s0)
ffffffc050402582:	aa09                	j	ffffffc050402694 <load_elf+0x1a2>
ffffffc050402584:	fe042703          	lw	a4,-32(s0)
ffffffc050402588:	fc843783          	ld	a5,-56(s0)
ffffffc05040258c:	739c                	ld	a5,32(a5)
ffffffc05040258e:	0af77563          	bgeu	a4,a5,ffffffc050402638 <load_elf+0x146>
ffffffc050402592:	fc843783          	ld	a5,-56(s0)
ffffffc050402596:	6b98                	ld	a4,16(a5)
ffffffc050402598:	fe042783          	lw	a5,-32(s0)
ffffffc05040259c:	97ba                	add	a5,a5,a4
ffffffc05040259e:	f9043703          	ld	a4,-112(s0)
ffffffc0504025a2:	4601                	li	a2,0
ffffffc0504025a4:	f9843583          	ld	a1,-104(s0)
ffffffc0504025a8:	853e                	mv	a0,a5
ffffffc0504025aa:	9702                	jalr	a4
ffffffc0504025ac:	87aa                	mv	a5,a0
ffffffc0504025ae:	faf43823          	sd	a5,-80(s0)
ffffffc0504025b2:	fc843783          	ld	a5,-56(s0)
ffffffc0504025b6:	6798                	ld	a4,8(a5)
ffffffc0504025b8:	fe042783          	lw	a5,-32(s0)
ffffffc0504025bc:	97ba                	add	a5,a5,a4
ffffffc0504025be:	fa843703          	ld	a4,-88(s0)
ffffffc0504025c2:	00f706b3          	add	a3,a4,a5
ffffffc0504025c6:	fc843783          	ld	a5,-56(s0)
ffffffc0504025ca:	7398                	ld	a4,32(a5)
ffffffc0504025cc:	fe042783          	lw	a5,-32(s0)
ffffffc0504025d0:	40f707b3          	sub	a5,a4,a5
ffffffc0504025d4:	6705                	lui	a4,0x1
ffffffc0504025d6:	00f77363          	bgeu	a4,a5,ffffffc0504025dc <load_elf+0xea>
ffffffc0504025da:	6785                	lui	a5,0x1
ffffffc0504025dc:	2781                	sext.w	a5,a5
ffffffc0504025de:	863e                	mv	a2,a5
ffffffc0504025e0:	85b6                	mv	a1,a3
ffffffc0504025e2:	fb043503          	ld	a0,-80(s0)
ffffffc0504025e6:	467030ef          	jal	ra,ffffffc05040624c <kmemcpy>
ffffffc0504025ea:	fc843783          	ld	a5,-56(s0)
ffffffc0504025ee:	7398                	ld	a4,32(a5)
ffffffc0504025f0:	fe042783          	lw	a5,-32(s0)
ffffffc0504025f4:	8f1d                	sub	a4,a4,a5
ffffffc0504025f6:	6785                	lui	a5,0x1
ffffffc0504025f8:	08f77763          	bgeu	a4,a5,ffffffc050402686 <load_elf+0x194>
ffffffc0504025fc:	fc843783          	ld	a5,-56(s0)
ffffffc050402600:	739c                	ld	a5,32(a5)
ffffffc050402602:	0007871b          	sext.w	a4,a5
ffffffc050402606:	6785                	lui	a5,0x1
ffffffc050402608:	17fd                	addi	a5,a5,-1
ffffffc05040260a:	8ff9                	and	a5,a5,a4
ffffffc05040260c:	fcf42e23          	sw	a5,-36(s0)
ffffffc050402610:	a829                	j	ffffffc05040262a <load_elf+0x138>
ffffffc050402612:	fdc42783          	lw	a5,-36(s0)
ffffffc050402616:	fb043703          	ld	a4,-80(s0)
ffffffc05040261a:	97ba                	add	a5,a5,a4
ffffffc05040261c:	00078023          	sb	zero,0(a5) # 1000 <_start-0xffffffc0503ff000>
ffffffc050402620:	fdc42783          	lw	a5,-36(s0)
ffffffc050402624:	2785                	addiw	a5,a5,1
ffffffc050402626:	fcf42e23          	sw	a5,-36(s0)
ffffffc05040262a:	fdc42783          	lw	a5,-36(s0)
ffffffc05040262e:	873e                	mv	a4,a5
ffffffc050402630:	6785                	lui	a5,0x1
ffffffc050402632:	fef760e3          	bltu	a4,a5,ffffffc050402612 <load_elf+0x120>
ffffffc050402636:	a881                	j	ffffffc050402686 <load_elf+0x194>
ffffffc050402638:	fc843783          	ld	a5,-56(s0)
ffffffc05040263c:	6b98                	ld	a4,16(a5)
ffffffc05040263e:	fe042783          	lw	a5,-32(s0)
ffffffc050402642:	97ba                	add	a5,a5,a4
ffffffc050402644:	f9043703          	ld	a4,-112(s0)
ffffffc050402648:	4601                	li	a2,0
ffffffc05040264a:	f9843583          	ld	a1,-104(s0)
ffffffc05040264e:	853e                	mv	a0,a5
ffffffc050402650:	9702                	jalr	a4
ffffffc050402652:	87aa                	mv	a5,a0
ffffffc050402654:	faf43c23          	sd	a5,-72(s0)
ffffffc050402658:	fc042c23          	sw	zero,-40(s0)
ffffffc05040265c:	a831                	j	ffffffc050402678 <load_elf+0x186>
ffffffc05040265e:	fd842783          	lw	a5,-40(s0)
ffffffc050402662:	078e                	slli	a5,a5,0x3
ffffffc050402664:	fb843703          	ld	a4,-72(s0)
ffffffc050402668:	97ba                	add	a5,a5,a4
ffffffc05040266a:	0007b023          	sd	zero,0(a5) # 1000 <_start-0xffffffc0503ff000>
ffffffc05040266e:	fd842783          	lw	a5,-40(s0)
ffffffc050402672:	2785                	addiw	a5,a5,1
ffffffc050402674:	fcf42c23          	sw	a5,-40(s0)
ffffffc050402678:	fd842783          	lw	a5,-40(s0)
ffffffc05040267c:	873e                	mv	a4,a5
ffffffc05040267e:	1ff00793          	li	a5,511
ffffffc050402682:	fce7fee3          	bgeu	a5,a4,ffffffc05040265e <load_elf+0x16c>
ffffffc050402686:	fe042703          	lw	a4,-32(s0)
ffffffc05040268a:	6785                	lui	a5,0x1
ffffffc05040268c:	9fb9                	addw	a5,a5,a4
ffffffc05040268e:	2781                	sext.w	a5,a5
ffffffc050402690:	fef42023          	sw	a5,-32(s0)
ffffffc050402694:	fe042703          	lw	a4,-32(s0)
ffffffc050402698:	fc843783          	ld	a5,-56(s0)
ffffffc05040269c:	779c                	ld	a5,40(a5)
ffffffc05040269e:	eef763e3          	bltu	a4,a5,ffffffc050402584 <load_elf+0x92>
ffffffc0504026a2:	fc645783          	lhu	a5,-58(s0)
ffffffc0504026a6:	fe843703          	ld	a4,-24(s0)
ffffffc0504026aa:	97ba                	add	a5,a5,a4
ffffffc0504026ac:	fef43423          	sd	a5,-24(s0)
ffffffc0504026b0:	fe645783          	lhu	a5,-26(s0)
ffffffc0504026b4:	fff7871b          	addiw	a4,a5,-1
ffffffc0504026b8:	fee41323          	sh	a4,-26(s0)
ffffffc0504026bc:	ea0796e3          	bnez	a5,ffffffc050402568 <load_elf+0x76>
ffffffc0504026c0:	fd043783          	ld	a5,-48(s0)
ffffffc0504026c4:	6f9c                	ld	a5,24(a5)
ffffffc0504026c6:	853e                	mv	a0,a5
ffffffc0504026c8:	70a6                	ld	ra,104(sp)
ffffffc0504026ca:	7406                	ld	s0,96(sp)
ffffffc0504026cc:	6165                	addi	sp,sp,112
ffffffc0504026ce:	8082                	ret

ffffffc0504026d0 <cal_pcb_weight>:
ffffffc0504026d0:	7179                	addi	sp,sp,-48
ffffffc0504026d2:	f406                	sd	ra,40(sp)
ffffffc0504026d4:	f022                	sd	s0,32(sp)
ffffffc0504026d6:	ec26                	sd	s1,24(sp)
ffffffc0504026d8:	1800                	addi	s0,sp,48
ffffffc0504026da:	fca43c23          	sd	a0,-40(s0)
ffffffc0504026de:	fd843783          	ld	a5,-40(s0)
ffffffc0504026e2:	53f8                	lw	a4,100(a5)
ffffffc0504026e4:	84818793          	addi	a5,gp,-1976 # ffffffc050455410 <time_base>
ffffffc0504026e8:	439c                	lw	a5,0(a5)
ffffffc0504026ea:	02f707bb          	mulw	a5,a4,a5
ffffffc0504026ee:	2781                	sext.w	a5,a5
ffffffc0504026f0:	0067d79b          	srliw	a5,a5,0x6
ffffffc0504026f4:	2781                	sext.w	a5,a5
ffffffc0504026f6:	02079493          	slli	s1,a5,0x20
ffffffc0504026fa:	9081                	srli	s1,s1,0x20
ffffffc0504026fc:	057010ef          	jal	ra,ffffffc050403f52 <get_ticks>
ffffffc050402700:	87aa                	mv	a5,a0
ffffffc050402702:	00f48733          	add	a4,s1,a5
ffffffc050402706:	fd843783          	ld	a5,-40(s0)
ffffffc05040270a:	57bc                	lw	a5,104(a5)
ffffffc05040270c:	1782                	slli	a5,a5,0x20
ffffffc05040270e:	9381                	srli	a5,a5,0x20
ffffffc050402710:	40f707b3          	sub	a5,a4,a5
ffffffc050402714:	853e                	mv	a0,a5
ffffffc050402716:	70a2                	ld	ra,40(sp)
ffffffc050402718:	7402                	ld	s0,32(sp)
ffffffc05040271a:	64e2                	ld	s1,24(sp)
ffffffc05040271c:	6145                	addi	sp,sp,48
ffffffc05040271e:	8082                	ret

ffffffc050402720 <find_next_proc>:
ffffffc050402720:	7139                	addi	sp,sp,-64
ffffffc050402722:	fc06                	sd	ra,56(sp)
ffffffc050402724:	f822                	sd	s0,48(sp)
ffffffc050402726:	0080                	addi	s0,sp,64
ffffffc050402728:	87aa                	mv	a5,a0
ffffffc05040272a:	fcf42623          	sw	a5,-52(s0)
ffffffc05040272e:	fe043423          	sd	zero,-24(s0)
ffffffc050402732:	fc043c23          	sd	zero,-40(s0)
ffffffc050402736:	0009d797          	auipc	a5,0x9d
ffffffc05040273a:	a7278793          	addi	a5,a5,-1422 # ffffffc05049f1a8 <ready_queue>
ffffffc05040273e:	6798                	ld	a4,8(a5)
ffffffc050402740:	0009d797          	auipc	a5,0x9d
ffffffc050402744:	a6878793          	addi	a5,a5,-1432 # ffffffc05049f1a8 <ready_queue>
ffffffc050402748:	00f71463          	bne	a4,a5,ffffffc050402750 <find_next_proc+0x30>
ffffffc05040274c:	4781                	li	a5,0
ffffffc05040274e:	a041                	j	ffffffc0504027ce <find_next_proc+0xae>
ffffffc050402750:	0009d797          	auipc	a5,0x9d
ffffffc050402754:	a5878793          	addi	a5,a5,-1448 # ffffffc05049f1a8 <ready_queue>
ffffffc050402758:	679c                	ld	a5,8(a5)
ffffffc05040275a:	fef43023          	sd	a5,-32(s0)
ffffffc05040275e:	a8b1                	j	ffffffc0504027ba <find_next_proc+0x9a>
ffffffc050402760:	fe043783          	ld	a5,-32(s0)
ffffffc050402764:	fd878793          	addi	a5,a5,-40
ffffffc050402768:	0807a703          	lw	a4,128(a5)
ffffffc05040276c:	fcc42783          	lw	a5,-52(s0)
ffffffc050402770:	40f757bb          	sraw	a5,a4,a5
ffffffc050402774:	2781                	sext.w	a5,a5
ffffffc050402776:	2781                	sext.w	a5,a5
ffffffc050402778:	8b85                	andi	a5,a5,1
ffffffc05040277a:	2781                	sext.w	a5,a5
ffffffc05040277c:	cb8d                	beqz	a5,ffffffc0504027ae <find_next_proc+0x8e>
ffffffc05040277e:	fe043783          	ld	a5,-32(s0)
ffffffc050402782:	fd878793          	addi	a5,a5,-40
ffffffc050402786:	853e                	mv	a0,a5
ffffffc050402788:	f49ff0ef          	jal	ra,ffffffc0504026d0 <cal_pcb_weight>
ffffffc05040278c:	fca43823          	sd	a0,-48(s0)
ffffffc050402790:	fd043703          	ld	a4,-48(s0)
ffffffc050402794:	fe843783          	ld	a5,-24(s0)
ffffffc050402798:	00e7fc63          	bgeu	a5,a4,ffffffc0504027b0 <find_next_proc+0x90>
ffffffc05040279c:	fe043783          	ld	a5,-32(s0)
ffffffc0504027a0:	fcf43c23          	sd	a5,-40(s0)
ffffffc0504027a4:	fd043783          	ld	a5,-48(s0)
ffffffc0504027a8:	fef43423          	sd	a5,-24(s0)
ffffffc0504027ac:	a011                	j	ffffffc0504027b0 <find_next_proc+0x90>
ffffffc0504027ae:	0001                	nop
ffffffc0504027b0:	fe043783          	ld	a5,-32(s0)
ffffffc0504027b4:	679c                	ld	a5,8(a5)
ffffffc0504027b6:	fef43023          	sd	a5,-32(s0)
ffffffc0504027ba:	fe043703          	ld	a4,-32(s0)
ffffffc0504027be:	0009d797          	auipc	a5,0x9d
ffffffc0504027c2:	9ea78793          	addi	a5,a5,-1558 # ffffffc05049f1a8 <ready_queue>
ffffffc0504027c6:	f8f71de3          	bne	a4,a5,ffffffc050402760 <find_next_proc+0x40>
ffffffc0504027ca:	fd843783          	ld	a5,-40(s0)
ffffffc0504027ce:	853e                	mv	a0,a5
ffffffc0504027d0:	70e2                	ld	ra,56(sp)
ffffffc0504027d2:	7442                	ld	s0,48(sp)
ffffffc0504027d4:	6121                	addi	sp,sp,64
ffffffc0504027d6:	8082                	ret

ffffffc0504027d8 <do_scheduler>:
ffffffc0504027d8:	7139                	addi	sp,sp,-64
ffffffc0504027da:	fc06                	sd	ra,56(sp)
ffffffc0504027dc:	f822                	sd	s0,48(sp)
ffffffc0504027de:	f426                	sd	s1,40(sp)
ffffffc0504027e0:	0080                	addi	s0,sp,64
ffffffc0504027e2:	aebfd0ef          	jal	ra,ffffffc0504002cc <get_current_cpu_id>
ffffffc0504027e6:	87aa                	mv	a5,a0
ffffffc0504027e8:	fcf42c23          	sw	a5,-40(s0)
ffffffc0504027ec:	fc042e23          	sw	zero,-36(s0)
ffffffc0504027f0:	fd842783          	lw	a5,-40(s0)
ffffffc0504027f4:	2781                	sext.w	a5,a5
ffffffc0504027f6:	c791                	beqz	a5,ffffffc050402802 <do_scheduler+0x2a>
ffffffc0504027f8:	0009d797          	auipc	a5,0x9d
ffffffc0504027fc:	3c878793          	addi	a5,a5,968 # ffffffc05049fbc0 <current_running_1>
ffffffc050402800:	a029                	j	ffffffc05040280a <do_scheduler+0x32>
ffffffc050402802:	0009d797          	auipc	a5,0x9d
ffffffc050402806:	99e78793          	addi	a5,a5,-1634 # ffffffc05049f1a0 <current_running_0>
ffffffc05040280a:	0009d717          	auipc	a4,0x9d
ffffffc05040280e:	9ae70713          	addi	a4,a4,-1618 # ffffffc05049f1b8 <current_running>
ffffffc050402812:	e31c                	sd	a5,0(a4)
ffffffc050402814:	0009d797          	auipc	a5,0x9d
ffffffc050402818:	9a478793          	addi	a5,a5,-1628 # ffffffc05049f1b8 <current_running>
ffffffc05040281c:	639c                	ld	a5,0(a5)
ffffffc05040281e:	639c                	ld	a5,0(a5)
ffffffc050402820:	fcf43823          	sd	a5,-48(s0)
ffffffc050402824:	72e010ef          	jal	ra,ffffffc050403f52 <get_ticks>
ffffffc050402828:	872a                	mv	a4,a0
ffffffc05040282a:	0009d797          	auipc	a5,0x9d
ffffffc05040282e:	98e78793          	addi	a5,a5,-1650 # ffffffc05049f1b8 <current_running>
ffffffc050402832:	639c                	ld	a5,0(a5)
ffffffc050402834:	639c                	ld	a5,0(a5)
ffffffc050402836:	2701                	sext.w	a4,a4
ffffffc050402838:	d7b8                	sw	a4,104(a5)
ffffffc05040283a:	fd842783          	lw	a5,-40(s0)
ffffffc05040283e:	853e                	mv	a0,a5
ffffffc050402840:	ee1ff0ef          	jal	ra,ffffffc050402720 <find_next_proc>
ffffffc050402844:	fca43423          	sd	a0,-56(s0)
ffffffc050402848:	fc843783          	ld	a5,-56(s0)
ffffffc05040284c:	10079663          	bnez	a5,ffffffc050402958 <do_scheduler+0x180>
ffffffc050402850:	0009d797          	auipc	a5,0x9d
ffffffc050402854:	96878793          	addi	a5,a5,-1688 # ffffffc05049f1b8 <current_running>
ffffffc050402858:	639c                	ld	a5,0(a5)
ffffffc05040285a:	639c                	ld	a5,0(a5)
ffffffc05040285c:	4bbc                	lw	a5,80(a5)
ffffffc05040285e:	873e                	mv	a4,a5
ffffffc050402860:	4791                	li	a5,4
ffffffc050402862:	0af71c63          	bne	a4,a5,ffffffc05040291a <do_scheduler+0x142>
ffffffc050402866:	4785                	li	a5,1
ffffffc050402868:	fcf42e23          	sw	a5,-36(s0)
ffffffc05040286c:	0009d797          	auipc	a5,0x9d
ffffffc050402870:	94c78793          	addi	a5,a5,-1716 # ffffffc05049f1b8 <current_running>
ffffffc050402874:	639c                	ld	a5,0(a5)
ffffffc050402876:	639c                	ld	a5,0(a5)
ffffffc050402878:	02878793          	addi	a5,a5,40
ffffffc05040287c:	853e                	mv	a0,a5
ffffffc05040287e:	aefff0ef          	jal	ra,ffffffc05040236c <list_del>
ffffffc050402882:	a819                	j	ffffffc050402898 <do_scheduler+0xc0>
ffffffc050402884:	0009d797          	auipc	a5,0x9d
ffffffc050402888:	93478793          	addi	a5,a5,-1740 # ffffffc05049f1b8 <current_running>
ffffffc05040288c:	639c                	ld	a5,0(a5)
ffffffc05040288e:	639c                	ld	a5,0(a5)
ffffffc050402890:	7f9c                	ld	a5,56(a5)
ffffffc050402892:	853e                	mv	a0,a5
ffffffc050402894:	268000ef          	jal	ra,ffffffc050402afc <do_unblock>
ffffffc050402898:	0009d797          	auipc	a5,0x9d
ffffffc05040289c:	92078793          	addi	a5,a5,-1760 # ffffffc05049f1b8 <current_running>
ffffffc0504028a0:	639c                	ld	a5,0(a5)
ffffffc0504028a2:	639c                	ld	a5,0(a5)
ffffffc0504028a4:	7f98                	ld	a4,56(a5)
ffffffc0504028a6:	0009d797          	auipc	a5,0x9d
ffffffc0504028aa:	91278793          	addi	a5,a5,-1774 # ffffffc05049f1b8 <current_running>
ffffffc0504028ae:	639c                	ld	a5,0(a5)
ffffffc0504028b0:	639c                	ld	a5,0(a5)
ffffffc0504028b2:	03878793          	addi	a5,a5,56
ffffffc0504028b6:	fcf717e3          	bne	a4,a5,ffffffc050402884 <do_scheduler+0xac>
ffffffc0504028ba:	a819                	j	ffffffc0504028d0 <do_scheduler+0xf8>
ffffffc0504028bc:	0009d797          	auipc	a5,0x9d
ffffffc0504028c0:	8fc78793          	addi	a5,a5,-1796 # ffffffc05049f1b8 <current_running>
ffffffc0504028c4:	639c                	ld	a5,0(a5)
ffffffc0504028c6:	639c                	ld	a5,0(a5)
ffffffc0504028c8:	7bbc                	ld	a5,112(a5)
ffffffc0504028ca:	853e                	mv	a0,a5
ffffffc0504028cc:	e4eff0ef          	jal	ra,ffffffc050401f1a <do_mutex_lock_release>
ffffffc0504028d0:	0009d797          	auipc	a5,0x9d
ffffffc0504028d4:	8e878793          	addi	a5,a5,-1816 # ffffffc05049f1b8 <current_running>
ffffffc0504028d8:	639c                	ld	a5,0(a5)
ffffffc0504028da:	639c                	ld	a5,0(a5)
ffffffc0504028dc:	7bb8                	ld	a4,112(a5)
ffffffc0504028de:	0009d797          	auipc	a5,0x9d
ffffffc0504028e2:	8da78793          	addi	a5,a5,-1830 # ffffffc05049f1b8 <current_running>
ffffffc0504028e6:	639c                	ld	a5,0(a5)
ffffffc0504028e8:	639c                	ld	a5,0(a5)
ffffffc0504028ea:	07078793          	addi	a5,a5,112
ffffffc0504028ee:	fcf717e3          	bne	a4,a5,ffffffc0504028bc <do_scheduler+0xe4>
ffffffc0504028f2:	fd842783          	lw	a5,-40(s0)
ffffffc0504028f6:	2781                	sext.w	a5,a5
ffffffc0504028f8:	c791                	beqz	a5,ffffffc050402904 <do_scheduler+0x12c>
ffffffc0504028fa:	00005797          	auipc	a5,0x5
ffffffc0504028fe:	fc678793          	addi	a5,a5,-58 # ffffffc0504078c0 <pid0_pcb_1>
ffffffc050402902:	a029                	j	ffffffc05040290c <do_scheduler+0x134>
ffffffc050402904:	00005797          	auipc	a5,0x5
ffffffc050402908:	f1c78793          	addi	a5,a5,-228 # ffffffc050407820 <pid0_pcb_0>
ffffffc05040290c:	0009d717          	auipc	a4,0x9d
ffffffc050402910:	8ac70713          	addi	a4,a4,-1876 # ffffffc05049f1b8 <current_running>
ffffffc050402914:	6318                	ld	a4,0(a4)
ffffffc050402916:	e31c                	sd	a5,0(a4)
ffffffc050402918:	a8b1                	j	ffffffc050402974 <do_scheduler+0x19c>
ffffffc05040291a:	0009d797          	auipc	a5,0x9d
ffffffc05040291e:	89e78793          	addi	a5,a5,-1890 # ffffffc05049f1b8 <current_running>
ffffffc050402922:	639c                	ld	a5,0(a5)
ffffffc050402924:	639c                	ld	a5,0(a5)
ffffffc050402926:	4bbc                	lw	a5,80(a5)
ffffffc050402928:	873e                	mv	a4,a5
ffffffc05040292a:	4785                	li	a5,1
ffffffc05040292c:	0ef70163          	beq	a4,a5,ffffffc050402a0e <do_scheduler+0x236>
ffffffc050402930:	fd842783          	lw	a5,-40(s0)
ffffffc050402934:	2781                	sext.w	a5,a5
ffffffc050402936:	c791                	beqz	a5,ffffffc050402942 <do_scheduler+0x16a>
ffffffc050402938:	00005797          	auipc	a5,0x5
ffffffc05040293c:	f8878793          	addi	a5,a5,-120 # ffffffc0504078c0 <pid0_pcb_1>
ffffffc050402940:	a029                	j	ffffffc05040294a <do_scheduler+0x172>
ffffffc050402942:	00005797          	auipc	a5,0x5
ffffffc050402946:	ede78793          	addi	a5,a5,-290 # ffffffc050407820 <pid0_pcb_0>
ffffffc05040294a:	0009d717          	auipc	a4,0x9d
ffffffc05040294e:	86e70713          	addi	a4,a4,-1938 # ffffffc05049f1b8 <current_running>
ffffffc050402952:	6318                	ld	a4,0(a4)
ffffffc050402954:	e31c                	sd	a5,0(a4)
ffffffc050402956:	a839                	j	ffffffc050402974 <do_scheduler+0x19c>
ffffffc050402958:	fc843503          	ld	a0,-56(s0)
ffffffc05040295c:	a11ff0ef          	jal	ra,ffffffc05040236c <list_del>
ffffffc050402960:	0009d797          	auipc	a5,0x9d
ffffffc050402964:	85878793          	addi	a5,a5,-1960 # ffffffc05049f1b8 <current_running>
ffffffc050402968:	639c                	ld	a5,0(a5)
ffffffc05040296a:	fc843703          	ld	a4,-56(s0)
ffffffc05040296e:	fd870713          	addi	a4,a4,-40
ffffffc050402972:	e398                	sd	a4,0(a5)
ffffffc050402974:	0009d797          	auipc	a5,0x9d
ffffffc050402978:	84478793          	addi	a5,a5,-1980 # ffffffc05049f1b8 <current_running>
ffffffc05040297c:	639c                	ld	a5,0(a5)
ffffffc05040297e:	639c                	ld	a5,0(a5)
ffffffc050402980:	4705                	li	a4,1
ffffffc050402982:	cbb8                	sw	a4,80(a5)
ffffffc050402984:	fd043783          	ld	a5,-48(s0)
ffffffc050402988:	47bc                	lw	a5,72(a5)
ffffffc05040298a:	c79d                	beqz	a5,ffffffc0504029b8 <do_scheduler+0x1e0>
ffffffc05040298c:	fd043783          	ld	a5,-48(s0)
ffffffc050402990:	4bbc                	lw	a5,80(a5)
ffffffc050402992:	873e                	mv	a4,a5
ffffffc050402994:	4785                	li	a5,1
ffffffc050402996:	02f71163          	bne	a4,a5,ffffffc0504029b8 <do_scheduler+0x1e0>
ffffffc05040299a:	fd043783          	ld	a5,-48(s0)
ffffffc05040299e:	4709                	li	a4,2
ffffffc0504029a0:	cbb8                	sw	a4,80(a5)
ffffffc0504029a2:	fd043783          	ld	a5,-48(s0)
ffffffc0504029a6:	02878793          	addi	a5,a5,40
ffffffc0504029aa:	0009c597          	auipc	a1,0x9c
ffffffc0504029ae:	7fe58593          	addi	a1,a1,2046 # ffffffc05049f1a8 <ready_queue>
ffffffc0504029b2:	853e                	mv	a0,a5
ffffffc0504029b4:	977ff0ef          	jal	ra,ffffffc05040232a <list_add>
ffffffc0504029b8:	0009d797          	auipc	a5,0x9d
ffffffc0504029bc:	80078793          	addi	a5,a5,-2048 # ffffffc05049f1b8 <current_running>
ffffffc0504029c0:	639c                	ld	a5,0(a5)
ffffffc0504029c2:	639c                	ld	a5,0(a5)
ffffffc0504029c4:	47bc                	lw	a5,72(a5)
ffffffc0504029c6:	0007849b          	sext.w	s1,a5
ffffffc0504029ca:	0009c797          	auipc	a5,0x9c
ffffffc0504029ce:	7ee78793          	addi	a5,a5,2030 # ffffffc05049f1b8 <current_running>
ffffffc0504029d2:	639c                	ld	a5,0(a5)
ffffffc0504029d4:	639c                	ld	a5,0(a5)
ffffffc0504029d6:	67dc                	ld	a5,136(a5)
ffffffc0504029d8:	853e                	mv	a0,a5
ffffffc0504029da:	a39ff0ef          	jal	ra,ffffffc050402412 <kva2pa>
ffffffc0504029de:	87aa                	mv	a5,a0
ffffffc0504029e0:	83b1                	srli	a5,a5,0xc
ffffffc0504029e2:	863e                	mv	a2,a5
ffffffc0504029e4:	85a6                	mv	a1,s1
ffffffc0504029e6:	4521                	li	a0,8
ffffffc0504029e8:	9e5ff0ef          	jal	ra,ffffffc0504023cc <set_satp>
ffffffc0504029ec:	9cfff0ef          	jal	ra,ffffffc0504023ba <local_flush_tlb_all>
ffffffc0504029f0:	0009c797          	auipc	a5,0x9c
ffffffc0504029f4:	7c878793          	addi	a5,a5,1992 # ffffffc05049f1b8 <current_running>
ffffffc0504029f8:	639c                	ld	a5,0(a5)
ffffffc0504029fa:	639c                	ld	a5,0(a5)
ffffffc0504029fc:	fdc42703          	lw	a4,-36(s0)
ffffffc050402a00:	863a                	mv	a2,a4
ffffffc050402a02:	85be                	mv	a1,a5
ffffffc050402a04:	fd043503          	ld	a0,-48(s0)
ffffffc050402a08:	f24fd0ef          	jal	ra,ffffffc05040012c <switch_to>
ffffffc050402a0c:	a011                	j	ffffffc050402a10 <do_scheduler+0x238>
ffffffc050402a0e:	0001                	nop
ffffffc050402a10:	70e2                	ld	ra,56(sp)
ffffffc050402a12:	7442                	ld	s0,48(sp)
ffffffc050402a14:	74a2                	ld	s1,40(sp)
ffffffc050402a16:	6121                	addi	sp,sp,64
ffffffc050402a18:	8082                	ret

ffffffc050402a1a <do_sleep>:
ffffffc050402a1a:	1101                	addi	sp,sp,-32
ffffffc050402a1c:	ec06                	sd	ra,24(sp)
ffffffc050402a1e:	e822                	sd	s0,16(sp)
ffffffc050402a20:	1000                	addi	s0,sp,32
ffffffc050402a22:	87aa                	mv	a5,a0
ffffffc050402a24:	fef42623          	sw	a5,-20(s0)
ffffffc050402a28:	8a5fd0ef          	jal	ra,ffffffc0504002cc <get_current_cpu_id>
ffffffc050402a2c:	87aa                	mv	a5,a0
ffffffc050402a2e:	c791                	beqz	a5,ffffffc050402a3a <do_sleep+0x20>
ffffffc050402a30:	0009d797          	auipc	a5,0x9d
ffffffc050402a34:	19078793          	addi	a5,a5,400 # ffffffc05049fbc0 <current_running_1>
ffffffc050402a38:	a029                	j	ffffffc050402a42 <do_sleep+0x28>
ffffffc050402a3a:	0009c797          	auipc	a5,0x9c
ffffffc050402a3e:	76678793          	addi	a5,a5,1894 # ffffffc05049f1a0 <current_running_0>
ffffffc050402a42:	0009c717          	auipc	a4,0x9c
ffffffc050402a46:	77670713          	addi	a4,a4,1910 # ffffffc05049f1b8 <current_running>
ffffffc050402a4a:	e31c                	sd	a5,0(a4)
ffffffc050402a4c:	0009c797          	auipc	a5,0x9c
ffffffc050402a50:	76c78793          	addi	a5,a5,1900 # ffffffc05049f1b8 <current_running>
ffffffc050402a54:	639c                	ld	a5,0(a5)
ffffffc050402a56:	639c                	ld	a5,0(a5)
ffffffc050402a58:	0407a823          	sw	zero,80(a5)
ffffffc050402a5c:	4f6010ef          	jal	ra,ffffffc050403f52 <get_ticks>
ffffffc050402a60:	87aa                	mv	a5,a0
ffffffc050402a62:	0007869b          	sext.w	a3,a5
ffffffc050402a66:	84818793          	addi	a5,gp,-1976 # ffffffc050455410 <time_base>
ffffffc050402a6a:	439c                	lw	a5,0(a5)
ffffffc050402a6c:	fec42703          	lw	a4,-20(s0)
ffffffc050402a70:	02f707bb          	mulw	a5,a4,a5
ffffffc050402a74:	0007871b          	sext.w	a4,a5
ffffffc050402a78:	0009c797          	auipc	a5,0x9c
ffffffc050402a7c:	74078793          	addi	a5,a5,1856 # ffffffc05049f1b8 <current_running>
ffffffc050402a80:	639c                	ld	a5,0(a5)
ffffffc050402a82:	639c                	ld	a5,0(a5)
ffffffc050402a84:	9f35                	addw	a4,a4,a3
ffffffc050402a86:	2701                	sext.w	a4,a4
ffffffc050402a88:	d3b8                	sw	a4,96(a5)
ffffffc050402a8a:	0009c797          	auipc	a5,0x9c
ffffffc050402a8e:	72e78793          	addi	a5,a5,1838 # ffffffc05049f1b8 <current_running>
ffffffc050402a92:	639c                	ld	a5,0(a5)
ffffffc050402a94:	639c                	ld	a5,0(a5)
ffffffc050402a96:	02878793          	addi	a5,a5,40
ffffffc050402a9a:	0009d597          	auipc	a1,0x9d
ffffffc050402a9e:	12e58593          	addi	a1,a1,302 # ffffffc05049fbc8 <sleep_queue>
ffffffc050402aa2:	853e                	mv	a0,a5
ffffffc050402aa4:	887ff0ef          	jal	ra,ffffffc05040232a <list_add>
ffffffc050402aa8:	d31ff0ef          	jal	ra,ffffffc0504027d8 <do_scheduler>
ffffffc050402aac:	0001                	nop
ffffffc050402aae:	60e2                	ld	ra,24(sp)
ffffffc050402ab0:	6442                	ld	s0,16(sp)
ffffffc050402ab2:	6105                	addi	sp,sp,32
ffffffc050402ab4:	8082                	ret

ffffffc050402ab6 <do_block>:
ffffffc050402ab6:	7179                	addi	sp,sp,-48
ffffffc050402ab8:	f406                	sd	ra,40(sp)
ffffffc050402aba:	f022                	sd	s0,32(sp)
ffffffc050402abc:	1800                	addi	s0,sp,48
ffffffc050402abe:	fca43c23          	sd	a0,-40(s0)
ffffffc050402ac2:	fcb43823          	sd	a1,-48(s0)
ffffffc050402ac6:	fd843503          	ld	a0,-40(s0)
ffffffc050402aca:	8a3ff0ef          	jal	ra,ffffffc05040236c <list_del>
ffffffc050402ace:	fd043583          	ld	a1,-48(s0)
ffffffc050402ad2:	fd843503          	ld	a0,-40(s0)
ffffffc050402ad6:	855ff0ef          	jal	ra,ffffffc05040232a <list_add>
ffffffc050402ada:	fd843783          	ld	a5,-40(s0)
ffffffc050402ade:	fd878793          	addi	a5,a5,-40
ffffffc050402ae2:	fef43423          	sd	a5,-24(s0)
ffffffc050402ae6:	fe843783          	ld	a5,-24(s0)
ffffffc050402aea:	0407a823          	sw	zero,80(a5)
ffffffc050402aee:	cebff0ef          	jal	ra,ffffffc0504027d8 <do_scheduler>
ffffffc050402af2:	0001                	nop
ffffffc050402af4:	70a2                	ld	ra,40(sp)
ffffffc050402af6:	7402                	ld	s0,32(sp)
ffffffc050402af8:	6145                	addi	sp,sp,48
ffffffc050402afa:	8082                	ret

ffffffc050402afc <do_unblock>:
ffffffc050402afc:	7179                	addi	sp,sp,-48
ffffffc050402afe:	f406                	sd	ra,40(sp)
ffffffc050402b00:	f022                	sd	s0,32(sp)
ffffffc050402b02:	1800                	addi	s0,sp,48
ffffffc050402b04:	fca43c23          	sd	a0,-40(s0)
ffffffc050402b08:	fd843503          	ld	a0,-40(s0)
ffffffc050402b0c:	861ff0ef          	jal	ra,ffffffc05040236c <list_del>
ffffffc050402b10:	0009c597          	auipc	a1,0x9c
ffffffc050402b14:	69858593          	addi	a1,a1,1688 # ffffffc05049f1a8 <ready_queue>
ffffffc050402b18:	fd843503          	ld	a0,-40(s0)
ffffffc050402b1c:	80fff0ef          	jal	ra,ffffffc05040232a <list_add>
ffffffc050402b20:	fd843783          	ld	a5,-40(s0)
ffffffc050402b24:	fd878793          	addi	a5,a5,-40
ffffffc050402b28:	fef43423          	sd	a5,-24(s0)
ffffffc050402b2c:	fe843783          	ld	a5,-24(s0)
ffffffc050402b30:	4709                	li	a4,2
ffffffc050402b32:	cbb8                	sw	a4,80(a5)
ffffffc050402b34:	0001                	nop
ffffffc050402b36:	70a2                	ld	ra,40(sp)
ffffffc050402b38:	7402                	ld	s0,32(sp)
ffffffc050402b3a:	6145                	addi	sp,sp,48
ffffffc050402b3c:	8082                	ret

ffffffc050402b3e <do_priority>:
ffffffc050402b3e:	1101                	addi	sp,sp,-32
ffffffc050402b40:	ec06                	sd	ra,24(sp)
ffffffc050402b42:	e822                	sd	s0,16(sp)
ffffffc050402b44:	1000                	addi	s0,sp,32
ffffffc050402b46:	87aa                	mv	a5,a0
ffffffc050402b48:	fef42623          	sw	a5,-20(s0)
ffffffc050402b4c:	f80fd0ef          	jal	ra,ffffffc0504002cc <get_current_cpu_id>
ffffffc050402b50:	87aa                	mv	a5,a0
ffffffc050402b52:	c791                	beqz	a5,ffffffc050402b5e <do_priority+0x20>
ffffffc050402b54:	0009d797          	auipc	a5,0x9d
ffffffc050402b58:	06c78793          	addi	a5,a5,108 # ffffffc05049fbc0 <current_running_1>
ffffffc050402b5c:	a029                	j	ffffffc050402b66 <do_priority+0x28>
ffffffc050402b5e:	0009c797          	auipc	a5,0x9c
ffffffc050402b62:	64278793          	addi	a5,a5,1602 # ffffffc05049f1a0 <current_running_0>
ffffffc050402b66:	0009c717          	auipc	a4,0x9c
ffffffc050402b6a:	65270713          	addi	a4,a4,1618 # ffffffc05049f1b8 <current_running>
ffffffc050402b6e:	e31c                	sd	a5,0(a4)
ffffffc050402b70:	fec42783          	lw	a5,-20(s0)
ffffffc050402b74:	0007871b          	sext.w	a4,a5
ffffffc050402b78:	47a5                	li	a5,9
ffffffc050402b7a:	00e7fa63          	bgeu	a5,a4,ffffffc050402b8e <do_priority+0x50>
ffffffc050402b7e:	00004517          	auipc	a0,0x4
ffffffc050402b82:	74a50513          	addi	a0,a0,1866 # ffffffc0504072c8 <__FUNCTION__.1619+0x90>
ffffffc050402b86:	182040ef          	jal	ra,ffffffc050406d08 <prints>
ffffffc050402b8a:	fe042623          	sw	zero,-20(s0)
ffffffc050402b8e:	0009c797          	auipc	a5,0x9c
ffffffc050402b92:	62a78793          	addi	a5,a5,1578 # ffffffc05049f1b8 <current_running>
ffffffc050402b96:	639c                	ld	a5,0(a5)
ffffffc050402b98:	639c                	ld	a5,0(a5)
ffffffc050402b9a:	fec42703          	lw	a4,-20(s0)
ffffffc050402b9e:	d3f8                	sw	a4,100(a5)
ffffffc050402ba0:	0001                	nop
ffffffc050402ba2:	60e2                	ld	ra,24(sp)
ffffffc050402ba4:	6442                	ld	s0,16(sp)
ffffffc050402ba6:	6105                	addi	sp,sp,32
ffffffc050402ba8:	8082                	ret

ffffffc050402baa <do_fork>:
ffffffc050402baa:	1141                	addi	sp,sp,-16
ffffffc050402bac:	e406                	sd	ra,8(sp)
ffffffc050402bae:	e022                	sd	s0,0(sp)
ffffffc050402bb0:	0800                	addi	s0,sp,16
ffffffc050402bb2:	00004517          	auipc	a0,0x4
ffffffc050402bb6:	74650513          	addi	a0,a0,1862 # ffffffc0504072f8 <__FUNCTION__.1619+0xc0>
ffffffc050402bba:	14e040ef          	jal	ra,ffffffc050406d08 <prints>
ffffffc050402bbe:	57fd                	li	a5,-1
ffffffc050402bc0:	853e                	mv	a0,a5
ffffffc050402bc2:	60a2                	ld	ra,8(sp)
ffffffc050402bc4:	6402                	ld	s0,0(sp)
ffffffc050402bc6:	0141                	addi	sp,sp,16
ffffffc050402bc8:	8082                	ret

ffffffc050402bca <do_ps>:
ffffffc050402bca:	1101                	addi	sp,sp,-32
ffffffc050402bcc:	ec06                	sd	ra,24(sp)
ffffffc050402bce:	e822                	sd	s0,16(sp)
ffffffc050402bd0:	1000                	addi	s0,sp,32
ffffffc050402bd2:	00004517          	auipc	a0,0x4
ffffffc050402bd6:	73e50513          	addi	a0,a0,1854 # ffffffc050407310 <__FUNCTION__.1619+0xd8>
ffffffc050402bda:	12e040ef          	jal	ra,ffffffc050406d08 <prints>
ffffffc050402bde:	fe042623          	sw	zero,-20(s0)
ffffffc050402be2:	fe042423          	sw	zero,-24(s0)
ffffffc050402be6:	a281                	j	ffffffc050402d26 <do_ps+0x15c>
ffffffc050402be8:	0009c697          	auipc	a3,0x9c
ffffffc050402bec:	5d868693          	addi	a3,a3,1496 # ffffffc05049f1c0 <pcb>
ffffffc050402bf0:	fec42703          	lw	a4,-20(s0)
ffffffc050402bf4:	87ba                	mv	a5,a4
ffffffc050402bf6:	078a                	slli	a5,a5,0x2
ffffffc050402bf8:	97ba                	add	a5,a5,a4
ffffffc050402bfa:	0796                	slli	a5,a5,0x5
ffffffc050402bfc:	97b6                	add	a5,a5,a3
ffffffc050402bfe:	4bbc                	lw	a5,80(a5)
ffffffc050402c00:	873e                	mv	a4,a5
ffffffc050402c02:	4791                	li	a5,4
ffffffc050402c04:	10f70c63          	beq	a4,a5,ffffffc050402d1c <do_ps+0x152>
ffffffc050402c08:	0009c697          	auipc	a3,0x9c
ffffffc050402c0c:	5b868693          	addi	a3,a3,1464 # ffffffc05049f1c0 <pcb>
ffffffc050402c10:	fec42703          	lw	a4,-20(s0)
ffffffc050402c14:	87ba                	mv	a5,a4
ffffffc050402c16:	078a                	slli	a5,a5,0x2
ffffffc050402c18:	97ba                	add	a5,a5,a4
ffffffc050402c1a:	0796                	slli	a5,a5,0x5
ffffffc050402c1c:	97b6                	add	a5,a5,a3
ffffffc050402c1e:	0987a783          	lw	a5,152(a5)
ffffffc050402c22:	c791                	beqz	a5,ffffffc050402c2e <do_ps+0x64>
ffffffc050402c24:	00004717          	auipc	a4,0x4
ffffffc050402c28:	70470713          	addi	a4,a4,1796 # ffffffc050407328 <__FUNCTION__.1619+0xf0>
ffffffc050402c2c:	a029                	j	ffffffc050402c36 <do_ps+0x6c>
ffffffc050402c2e:	00004717          	auipc	a4,0x4
ffffffc050402c32:	70270713          	addi	a4,a4,1794 # ffffffc050407330 <__FUNCTION__.1619+0xf8>
ffffffc050402c36:	0009c617          	auipc	a2,0x9c
ffffffc050402c3a:	58a60613          	addi	a2,a2,1418 # ffffffc05049f1c0 <pcb>
ffffffc050402c3e:	fec42683          	lw	a3,-20(s0)
ffffffc050402c42:	87b6                	mv	a5,a3
ffffffc050402c44:	078a                	slli	a5,a5,0x2
ffffffc050402c46:	97b6                	add	a5,a5,a3
ffffffc050402c48:	0796                	slli	a5,a5,0x5
ffffffc050402c4a:	97b2                	add	a5,a5,a2
ffffffc050402c4c:	47b4                	lw	a3,72(a5)
ffffffc050402c4e:	fe842783          	lw	a5,-24(s0)
ffffffc050402c52:	863a                	mv	a2,a4
ffffffc050402c54:	85be                	mv	a1,a5
ffffffc050402c56:	00004517          	auipc	a0,0x4
ffffffc050402c5a:	6e250513          	addi	a0,a0,1762 # ffffffc050407338 <__FUNCTION__.1619+0x100>
ffffffc050402c5e:	0aa040ef          	jal	ra,ffffffc050406d08 <prints>
ffffffc050402c62:	0009c697          	auipc	a3,0x9c
ffffffc050402c66:	55e68693          	addi	a3,a3,1374 # ffffffc05049f1c0 <pcb>
ffffffc050402c6a:	fec42703          	lw	a4,-20(s0)
ffffffc050402c6e:	87ba                	mv	a5,a4
ffffffc050402c70:	078a                	slli	a5,a5,0x2
ffffffc050402c72:	97ba                	add	a5,a5,a4
ffffffc050402c74:	0796                	slli	a5,a5,0x5
ffffffc050402c76:	97b6                	add	a5,a5,a3
ffffffc050402c78:	4bbc                	lw	a5,80(a5)
ffffffc050402c7a:	86be                	mv	a3,a5
ffffffc050402c7c:	470d                	li	a4,3
ffffffc050402c7e:	04e68963          	beq	a3,a4,ffffffc050402cd0 <do_ps+0x106>
ffffffc050402c82:	86be                	mv	a3,a5
ffffffc050402c84:	470d                	li	a4,3
ffffffc050402c86:	04d76c63          	bltu	a4,a3,ffffffc050402cde <do_ps+0x114>
ffffffc050402c8a:	86be                	mv	a3,a5
ffffffc050402c8c:	4709                	li	a4,2
ffffffc050402c8e:	02e68a63          	beq	a3,a4,ffffffc050402cc2 <do_ps+0xf8>
ffffffc050402c92:	86be                	mv	a3,a5
ffffffc050402c94:	4709                	li	a4,2
ffffffc050402c96:	04d76463          	bltu	a4,a3,ffffffc050402cde <do_ps+0x114>
ffffffc050402c9a:	c791                	beqz	a5,ffffffc050402ca6 <do_ps+0xdc>
ffffffc050402c9c:	873e                	mv	a4,a5
ffffffc050402c9e:	4785                	li	a5,1
ffffffc050402ca0:	00f70a63          	beq	a4,a5,ffffffc050402cb4 <do_ps+0xea>
ffffffc050402ca4:	a82d                	j	ffffffc050402cde <do_ps+0x114>
ffffffc050402ca6:	00004517          	auipc	a0,0x4
ffffffc050402caa:	6aa50513          	addi	a0,a0,1706 # ffffffc050407350 <__FUNCTION__.1619+0x118>
ffffffc050402cae:	05a040ef          	jal	ra,ffffffc050406d08 <prints>
ffffffc050402cb2:	a825                	j	ffffffc050402cea <do_ps+0x120>
ffffffc050402cb4:	00004517          	auipc	a0,0x4
ffffffc050402cb8:	6ac50513          	addi	a0,a0,1708 # ffffffc050407360 <__FUNCTION__.1619+0x128>
ffffffc050402cbc:	04c040ef          	jal	ra,ffffffc050406d08 <prints>
ffffffc050402cc0:	a02d                	j	ffffffc050402cea <do_ps+0x120>
ffffffc050402cc2:	00004517          	auipc	a0,0x4
ffffffc050402cc6:	6ae50513          	addi	a0,a0,1710 # ffffffc050407370 <__FUNCTION__.1619+0x138>
ffffffc050402cca:	03e040ef          	jal	ra,ffffffc050406d08 <prints>
ffffffc050402cce:	a831                	j	ffffffc050402cea <do_ps+0x120>
ffffffc050402cd0:	00004517          	auipc	a0,0x4
ffffffc050402cd4:	6b050513          	addi	a0,a0,1712 # ffffffc050407380 <__FUNCTION__.1619+0x148>
ffffffc050402cd8:	030040ef          	jal	ra,ffffffc050406d08 <prints>
ffffffc050402cdc:	a039                	j	ffffffc050402cea <do_ps+0x120>
ffffffc050402cde:	00004517          	auipc	a0,0x4
ffffffc050402ce2:	6b250513          	addi	a0,a0,1714 # ffffffc050407390 <__FUNCTION__.1619+0x158>
ffffffc050402ce6:	022040ef          	jal	ra,ffffffc050406d08 <prints>
ffffffc050402cea:	0009c697          	auipc	a3,0x9c
ffffffc050402cee:	4d668693          	addi	a3,a3,1238 # ffffffc05049f1c0 <pcb>
ffffffc050402cf2:	fec42703          	lw	a4,-20(s0)
ffffffc050402cf6:	87ba                	mv	a5,a4
ffffffc050402cf8:	078a                	slli	a5,a5,0x2
ffffffc050402cfa:	97ba                	add	a5,a5,a4
ffffffc050402cfc:	0796                	slli	a5,a5,0x5
ffffffc050402cfe:	97b6                	add	a5,a5,a3
ffffffc050402d00:	0807a783          	lw	a5,128(a5)
ffffffc050402d04:	85be                	mv	a1,a5
ffffffc050402d06:	00004517          	auipc	a0,0x4
ffffffc050402d0a:	69a50513          	addi	a0,a0,1690 # ffffffc0504073a0 <__FUNCTION__.1619+0x168>
ffffffc050402d0e:	7fb030ef          	jal	ra,ffffffc050406d08 <prints>
ffffffc050402d12:	fe842783          	lw	a5,-24(s0)
ffffffc050402d16:	2785                	addiw	a5,a5,1
ffffffc050402d18:	fef42423          	sw	a5,-24(s0)
ffffffc050402d1c:	fec42783          	lw	a5,-20(s0)
ffffffc050402d20:	2785                	addiw	a5,a5,1
ffffffc050402d22:	fef42623          	sw	a5,-20(s0)
ffffffc050402d26:	fec42783          	lw	a5,-20(s0)
ffffffc050402d2a:	0007871b          	sext.w	a4,a5
ffffffc050402d2e:	47bd                	li	a5,15
ffffffc050402d30:	eae7dce3          	bge	a5,a4,ffffffc050402be8 <do_ps+0x1e>
ffffffc050402d34:	0001                	nop
ffffffc050402d36:	0001                	nop
ffffffc050402d38:	60e2                	ld	ra,24(sp)
ffffffc050402d3a:	6442                	ld	s0,16(sp)
ffffffc050402d3c:	6105                	addi	sp,sp,32
ffffffc050402d3e:	8082                	ret

ffffffc050402d40 <do_spawn>:
ffffffc050402d40:	7179                	addi	sp,sp,-48
ffffffc050402d42:	f406                	sd	ra,40(sp)
ffffffc050402d44:	f022                	sd	s0,32(sp)
ffffffc050402d46:	1800                	addi	s0,sp,48
ffffffc050402d48:	fea43423          	sd	a0,-24(s0)
ffffffc050402d4c:	feb43023          	sd	a1,-32(s0)
ffffffc050402d50:	87b2                	mv	a5,a2
ffffffc050402d52:	8736                	mv	a4,a3
ffffffc050402d54:	fcf42e23          	sw	a5,-36(s0)
ffffffc050402d58:	87ba                	mv	a5,a4
ffffffc050402d5a:	fcf42c23          	sw	a5,-40(s0)
ffffffc050402d5e:	d6efd0ef          	jal	ra,ffffffc0504002cc <get_current_cpu_id>
ffffffc050402d62:	87aa                	mv	a5,a0
ffffffc050402d64:	c791                	beqz	a5,ffffffc050402d70 <do_spawn+0x30>
ffffffc050402d66:	0009d797          	auipc	a5,0x9d
ffffffc050402d6a:	e5a78793          	addi	a5,a5,-422 # ffffffc05049fbc0 <current_running_1>
ffffffc050402d6e:	a029                	j	ffffffc050402d78 <do_spawn+0x38>
ffffffc050402d70:	0009c797          	auipc	a5,0x9c
ffffffc050402d74:	43078793          	addi	a5,a5,1072 # ffffffc05049f1a0 <current_running_0>
ffffffc050402d78:	0009c717          	auipc	a4,0x9c
ffffffc050402d7c:	44070713          	addi	a4,a4,1088 # ffffffc05049f1b8 <current_running>
ffffffc050402d80:	e31c                	sd	a5,0(a4)
ffffffc050402d82:	00004517          	auipc	a0,0x4
ffffffc050402d86:	62e50513          	addi	a0,a0,1582 # ffffffc0504073b0 <__FUNCTION__.1619+0x178>
ffffffc050402d8a:	77f030ef          	jal	ra,ffffffc050406d08 <prints>
ffffffc050402d8e:	57fd                	li	a5,-1
ffffffc050402d90:	853e                	mv	a0,a5
ffffffc050402d92:	70a2                	ld	ra,40(sp)
ffffffc050402d94:	7402                	ld	s0,32(sp)
ffffffc050402d96:	6145                	addi	sp,sp,48
ffffffc050402d98:	8082                	ret

ffffffc050402d9a <do_kill>:
ffffffc050402d9a:	7179                	addi	sp,sp,-48
ffffffc050402d9c:	f406                	sd	ra,40(sp)
ffffffc050402d9e:	f022                	sd	s0,32(sp)
ffffffc050402da0:	1800                	addi	s0,sp,48
ffffffc050402da2:	87aa                	mv	a5,a0
ffffffc050402da4:	fcf42e23          	sw	a5,-36(s0)
ffffffc050402da8:	fdc42783          	lw	a5,-36(s0)
ffffffc050402dac:	37fd                	addiw	a5,a5,-1
ffffffc050402dae:	fef42423          	sw	a5,-24(s0)
ffffffc050402db2:	fe842783          	lw	a5,-24(s0)
ffffffc050402db6:	0007871b          	sext.w	a4,a5
ffffffc050402dba:	57fd                	li	a5,-1
ffffffc050402dbc:	02f74963          	blt	a4,a5,ffffffc050402dee <do_kill+0x54>
ffffffc050402dc0:	fe842783          	lw	a5,-24(s0)
ffffffc050402dc4:	0007871b          	sext.w	a4,a5
ffffffc050402dc8:	47bd                	li	a5,15
ffffffc050402dca:	02e7c263          	blt	a5,a4,ffffffc050402dee <do_kill+0x54>
ffffffc050402dce:	0009c697          	auipc	a3,0x9c
ffffffc050402dd2:	3f268693          	addi	a3,a3,1010 # ffffffc05049f1c0 <pcb>
ffffffc050402dd6:	fe842703          	lw	a4,-24(s0)
ffffffc050402dda:	87ba                	mv	a5,a4
ffffffc050402ddc:	078a                	slli	a5,a5,0x2
ffffffc050402dde:	97ba                	add	a5,a5,a4
ffffffc050402de0:	0796                	slli	a5,a5,0x5
ffffffc050402de2:	97b6                	add	a5,a5,a3
ffffffc050402de4:	4bbc                	lw	a5,80(a5)
ffffffc050402de6:	873e                	mv	a4,a5
ffffffc050402de8:	4791                	li	a5,4
ffffffc050402dea:	00f71a63          	bne	a4,a5,ffffffc050402dfe <do_kill+0x64>
ffffffc050402dee:	00004517          	auipc	a0,0x4
ffffffc050402df2:	5f250513          	addi	a0,a0,1522 # ffffffc0504073e0 <__FUNCTION__.1619+0x1a8>
ffffffc050402df6:	713030ef          	jal	ra,ffffffc050406d08 <prints>
ffffffc050402dfa:	4781                	li	a5,0
ffffffc050402dfc:	a4f5                	j	ffffffc0504030e8 <do_kill+0x34e>
ffffffc050402dfe:	fe842783          	lw	a5,-24(s0)
ffffffc050402e02:	2781                	sext.w	a5,a5
ffffffc050402e04:	eb89                	bnez	a5,ffffffc050402e16 <do_kill+0x7c>
ffffffc050402e06:	00004517          	auipc	a0,0x4
ffffffc050402e0a:	61250513          	addi	a0,a0,1554 # ffffffc050407418 <__FUNCTION__.1619+0x1e0>
ffffffc050402e0e:	6fb030ef          	jal	ra,ffffffc050406d08 <prints>
ffffffc050402e12:	4781                	li	a5,0
ffffffc050402e14:	acd1                	j	ffffffc0504030e8 <do_kill+0x34e>
ffffffc050402e16:	fe842783          	lw	a5,-24(s0)
ffffffc050402e1a:	0007871b          	sext.w	a4,a5
ffffffc050402e1e:	57fd                	li	a5,-1
ffffffc050402e20:	00f71a63          	bne	a4,a5,ffffffc050402e34 <do_kill+0x9a>
ffffffc050402e24:	00004517          	auipc	a0,0x4
ffffffc050402e28:	61450513          	addi	a0,a0,1556 # ffffffc050407438 <__FUNCTION__.1619+0x200>
ffffffc050402e2c:	6dd030ef          	jal	ra,ffffffc050406d08 <prints>
ffffffc050402e30:	4781                	li	a5,0
ffffffc050402e32:	ac5d                	j	ffffffc0504030e8 <do_kill+0x34e>
ffffffc050402e34:	0009c697          	auipc	a3,0x9c
ffffffc050402e38:	38c68693          	addi	a3,a3,908 # ffffffc05049f1c0 <pcb>
ffffffc050402e3c:	fe842703          	lw	a4,-24(s0)
ffffffc050402e40:	87ba                	mv	a5,a4
ffffffc050402e42:	078a                	slli	a5,a5,0x2
ffffffc050402e44:	97ba                	add	a5,a5,a4
ffffffc050402e46:	0796                	slli	a5,a5,0x5
ffffffc050402e48:	97b6                	add	a5,a5,a3
ffffffc050402e4a:	0987a783          	lw	a5,152(a5)
ffffffc050402e4e:	cb89                	beqz	a5,ffffffc050402e60 <do_kill+0xc6>
ffffffc050402e50:	00004517          	auipc	a0,0x4
ffffffc050402e54:	60850513          	addi	a0,a0,1544 # ffffffc050407458 <__FUNCTION__.1619+0x220>
ffffffc050402e58:	6b1030ef          	jal	ra,ffffffc050406d08 <prints>
ffffffc050402e5c:	4781                	li	a5,0
ffffffc050402e5e:	a469                	j	ffffffc0504030e8 <do_kill+0x34e>
ffffffc050402e60:	0009c697          	auipc	a3,0x9c
ffffffc050402e64:	36068693          	addi	a3,a3,864 # ffffffc05049f1c0 <pcb>
ffffffc050402e68:	fe842703          	lw	a4,-24(s0)
ffffffc050402e6c:	87ba                	mv	a5,a4
ffffffc050402e6e:	078a                	slli	a5,a5,0x2
ffffffc050402e70:	97ba                	add	a5,a5,a4
ffffffc050402e72:	0796                	slli	a5,a5,0x5
ffffffc050402e74:	97b6                	add	a5,a5,a3
ffffffc050402e76:	4bbc                	lw	a5,80(a5)
ffffffc050402e78:	873e                	mv	a4,a5
ffffffc050402e7a:	4785                	li	a5,1
ffffffc050402e7c:	24f70863          	beq	a4,a5,ffffffc0504030cc <do_kill+0x332>
ffffffc050402e80:	fe842703          	lw	a4,-24(s0)
ffffffc050402e84:	87ba                	mv	a5,a4
ffffffc050402e86:	078a                	slli	a5,a5,0x2
ffffffc050402e88:	97ba                	add	a5,a5,a4
ffffffc050402e8a:	0796                	slli	a5,a5,0x5
ffffffc050402e8c:	02078713          	addi	a4,a5,32
ffffffc050402e90:	0009c797          	auipc	a5,0x9c
ffffffc050402e94:	33078793          	addi	a5,a5,816 # ffffffc05049f1c0 <pcb>
ffffffc050402e98:	97ba                	add	a5,a5,a4
ffffffc050402e9a:	07a1                	addi	a5,a5,8
ffffffc050402e9c:	853e                	mv	a0,a5
ffffffc050402e9e:	cceff0ef          	jal	ra,ffffffc05040236c <list_del>
ffffffc050402ea2:	a005                	j	ffffffc050402ec2 <do_kill+0x128>
ffffffc050402ea4:	0009c697          	auipc	a3,0x9c
ffffffc050402ea8:	31c68693          	addi	a3,a3,796 # ffffffc05049f1c0 <pcb>
ffffffc050402eac:	fe842703          	lw	a4,-24(s0)
ffffffc050402eb0:	87ba                	mv	a5,a4
ffffffc050402eb2:	078a                	slli	a5,a5,0x2
ffffffc050402eb4:	97ba                	add	a5,a5,a4
ffffffc050402eb6:	0796                	slli	a5,a5,0x5
ffffffc050402eb8:	97b6                	add	a5,a5,a3
ffffffc050402eba:	7f9c                	ld	a5,56(a5)
ffffffc050402ebc:	853e                	mv	a0,a5
ffffffc050402ebe:	c3fff0ef          	jal	ra,ffffffc050402afc <do_unblock>
ffffffc050402ec2:	0009c697          	auipc	a3,0x9c
ffffffc050402ec6:	2fe68693          	addi	a3,a3,766 # ffffffc05049f1c0 <pcb>
ffffffc050402eca:	fe842703          	lw	a4,-24(s0)
ffffffc050402ece:	87ba                	mv	a5,a4
ffffffc050402ed0:	078a                	slli	a5,a5,0x2
ffffffc050402ed2:	97ba                	add	a5,a5,a4
ffffffc050402ed4:	0796                	slli	a5,a5,0x5
ffffffc050402ed6:	97b6                	add	a5,a5,a3
ffffffc050402ed8:	7f94                	ld	a3,56(a5)
ffffffc050402eda:	fe842703          	lw	a4,-24(s0)
ffffffc050402ede:	87ba                	mv	a5,a4
ffffffc050402ee0:	078a                	slli	a5,a5,0x2
ffffffc050402ee2:	97ba                	add	a5,a5,a4
ffffffc050402ee4:	0796                	slli	a5,a5,0x5
ffffffc050402ee6:	03078713          	addi	a4,a5,48
ffffffc050402eea:	0009c797          	auipc	a5,0x9c
ffffffc050402eee:	2d678793          	addi	a5,a5,726 # ffffffc05049f1c0 <pcb>
ffffffc050402ef2:	97ba                	add	a5,a5,a4
ffffffc050402ef4:	07a1                	addi	a5,a5,8
ffffffc050402ef6:	faf697e3          	bne	a3,a5,ffffffc050402ea4 <do_kill+0x10a>
ffffffc050402efa:	a005                	j	ffffffc050402f1a <do_kill+0x180>
ffffffc050402efc:	0009c697          	auipc	a3,0x9c
ffffffc050402f00:	2c468693          	addi	a3,a3,708 # ffffffc05049f1c0 <pcb>
ffffffc050402f04:	fe842703          	lw	a4,-24(s0)
ffffffc050402f08:	87ba                	mv	a5,a4
ffffffc050402f0a:	078a                	slli	a5,a5,0x2
ffffffc050402f0c:	97ba                	add	a5,a5,a4
ffffffc050402f0e:	0796                	slli	a5,a5,0x5
ffffffc050402f10:	97b6                	add	a5,a5,a3
ffffffc050402f12:	7bbc                	ld	a5,112(a5)
ffffffc050402f14:	853e                	mv	a0,a5
ffffffc050402f16:	804ff0ef          	jal	ra,ffffffc050401f1a <do_mutex_lock_release>
ffffffc050402f1a:	0009c697          	auipc	a3,0x9c
ffffffc050402f1e:	2a668693          	addi	a3,a3,678 # ffffffc05049f1c0 <pcb>
ffffffc050402f22:	fe842703          	lw	a4,-24(s0)
ffffffc050402f26:	87ba                	mv	a5,a4
ffffffc050402f28:	078a                	slli	a5,a5,0x2
ffffffc050402f2a:	97ba                	add	a5,a5,a4
ffffffc050402f2c:	0796                	slli	a5,a5,0x5
ffffffc050402f2e:	97b6                	add	a5,a5,a3
ffffffc050402f30:	7bb4                	ld	a3,112(a5)
ffffffc050402f32:	fe842703          	lw	a4,-24(s0)
ffffffc050402f36:	87ba                	mv	a5,a4
ffffffc050402f38:	078a                	slli	a5,a5,0x2
ffffffc050402f3a:	97ba                	add	a5,a5,a4
ffffffc050402f3c:	0796                	slli	a5,a5,0x5
ffffffc050402f3e:	07078713          	addi	a4,a5,112
ffffffc050402f42:	0009c797          	auipc	a5,0x9c
ffffffc050402f46:	27e78793          	addi	a5,a5,638 # ffffffc05049f1c0 <pcb>
ffffffc050402f4a:	97ba                	add	a5,a5,a4
ffffffc050402f4c:	faf698e3          	bne	a3,a5,ffffffc050402efc <do_kill+0x162>
ffffffc050402f50:	0009c697          	auipc	a3,0x9c
ffffffc050402f54:	27068693          	addi	a3,a3,624 # ffffffc05049f1c0 <pcb>
ffffffc050402f58:	fe842703          	lw	a4,-24(s0)
ffffffc050402f5c:	87ba                	mv	a5,a4
ffffffc050402f5e:	078a                	slli	a5,a5,0x2
ffffffc050402f60:	97ba                	add	a5,a5,a4
ffffffc050402f62:	0796                	slli	a5,a5,0x5
ffffffc050402f64:	97b6                	add	a5,a5,a3
ffffffc050402f66:	0987a783          	lw	a5,152(a5)
ffffffc050402f6a:	14079063          	bnez	a5,ffffffc0504030aa <do_kill+0x310>
ffffffc050402f6e:	0009c697          	auipc	a3,0x9c
ffffffc050402f72:	25268693          	addi	a3,a3,594 # ffffffc05049f1c0 <pcb>
ffffffc050402f76:	fe842703          	lw	a4,-24(s0)
ffffffc050402f7a:	87ba                	mv	a5,a4
ffffffc050402f7c:	078a                	slli	a5,a5,0x2
ffffffc050402f7e:	97ba                	add	a5,a5,a4
ffffffc050402f80:	0796                	slli	a5,a5,0x5
ffffffc050402f82:	97b6                	add	a5,a5,a3
ffffffc050402f84:	0947a783          	lw	a5,148(a5)
ffffffc050402f88:	fef42623          	sw	a5,-20(s0)
ffffffc050402f8c:	aa11                	j	ffffffc0504030a0 <do_kill+0x306>
ffffffc050402f8e:	fec42783          	lw	a5,-20(s0)
ffffffc050402f92:	37fd                	addiw	a5,a5,-1
ffffffc050402f94:	fef42223          	sw	a5,-28(s0)
ffffffc050402f98:	fe442703          	lw	a4,-28(s0)
ffffffc050402f9c:	87ba                	mv	a5,a4
ffffffc050402f9e:	078a                	slli	a5,a5,0x2
ffffffc050402fa0:	97ba                	add	a5,a5,a4
ffffffc050402fa2:	0796                	slli	a5,a5,0x5
ffffffc050402fa4:	02078713          	addi	a4,a5,32
ffffffc050402fa8:	0009c797          	auipc	a5,0x9c
ffffffc050402fac:	21878793          	addi	a5,a5,536 # ffffffc05049f1c0 <pcb>
ffffffc050402fb0:	97ba                	add	a5,a5,a4
ffffffc050402fb2:	07a1                	addi	a5,a5,8
ffffffc050402fb4:	853e                	mv	a0,a5
ffffffc050402fb6:	bb6ff0ef          	jal	ra,ffffffc05040236c <list_del>
ffffffc050402fba:	a005                	j	ffffffc050402fda <do_kill+0x240>
ffffffc050402fbc:	0009c697          	auipc	a3,0x9c
ffffffc050402fc0:	20468693          	addi	a3,a3,516 # ffffffc05049f1c0 <pcb>
ffffffc050402fc4:	fe442703          	lw	a4,-28(s0)
ffffffc050402fc8:	87ba                	mv	a5,a4
ffffffc050402fca:	078a                	slli	a5,a5,0x2
ffffffc050402fcc:	97ba                	add	a5,a5,a4
ffffffc050402fce:	0796                	slli	a5,a5,0x5
ffffffc050402fd0:	97b6                	add	a5,a5,a3
ffffffc050402fd2:	7f9c                	ld	a5,56(a5)
ffffffc050402fd4:	853e                	mv	a0,a5
ffffffc050402fd6:	b27ff0ef          	jal	ra,ffffffc050402afc <do_unblock>
ffffffc050402fda:	0009c697          	auipc	a3,0x9c
ffffffc050402fde:	1e668693          	addi	a3,a3,486 # ffffffc05049f1c0 <pcb>
ffffffc050402fe2:	fe442703          	lw	a4,-28(s0)
ffffffc050402fe6:	87ba                	mv	a5,a4
ffffffc050402fe8:	078a                	slli	a5,a5,0x2
ffffffc050402fea:	97ba                	add	a5,a5,a4
ffffffc050402fec:	0796                	slli	a5,a5,0x5
ffffffc050402fee:	97b6                	add	a5,a5,a3
ffffffc050402ff0:	7f94                	ld	a3,56(a5)
ffffffc050402ff2:	fe442703          	lw	a4,-28(s0)
ffffffc050402ff6:	87ba                	mv	a5,a4
ffffffc050402ff8:	078a                	slli	a5,a5,0x2
ffffffc050402ffa:	97ba                	add	a5,a5,a4
ffffffc050402ffc:	0796                	slli	a5,a5,0x5
ffffffc050402ffe:	03078713          	addi	a4,a5,48
ffffffc050403002:	0009c797          	auipc	a5,0x9c
ffffffc050403006:	1be78793          	addi	a5,a5,446 # ffffffc05049f1c0 <pcb>
ffffffc05040300a:	97ba                	add	a5,a5,a4
ffffffc05040300c:	07a1                	addi	a5,a5,8
ffffffc05040300e:	faf697e3          	bne	a3,a5,ffffffc050402fbc <do_kill+0x222>
ffffffc050403012:	a005                	j	ffffffc050403032 <do_kill+0x298>
ffffffc050403014:	0009c697          	auipc	a3,0x9c
ffffffc050403018:	1ac68693          	addi	a3,a3,428 # ffffffc05049f1c0 <pcb>
ffffffc05040301c:	fe442703          	lw	a4,-28(s0)
ffffffc050403020:	87ba                	mv	a5,a4
ffffffc050403022:	078a                	slli	a5,a5,0x2
ffffffc050403024:	97ba                	add	a5,a5,a4
ffffffc050403026:	0796                	slli	a5,a5,0x5
ffffffc050403028:	97b6                	add	a5,a5,a3
ffffffc05040302a:	7bbc                	ld	a5,112(a5)
ffffffc05040302c:	853e                	mv	a0,a5
ffffffc05040302e:	eedfe0ef          	jal	ra,ffffffc050401f1a <do_mutex_lock_release>
ffffffc050403032:	0009c697          	auipc	a3,0x9c
ffffffc050403036:	18e68693          	addi	a3,a3,398 # ffffffc05049f1c0 <pcb>
ffffffc05040303a:	fe442703          	lw	a4,-28(s0)
ffffffc05040303e:	87ba                	mv	a5,a4
ffffffc050403040:	078a                	slli	a5,a5,0x2
ffffffc050403042:	97ba                	add	a5,a5,a4
ffffffc050403044:	0796                	slli	a5,a5,0x5
ffffffc050403046:	97b6                	add	a5,a5,a3
ffffffc050403048:	7bb4                	ld	a3,112(a5)
ffffffc05040304a:	fe442703          	lw	a4,-28(s0)
ffffffc05040304e:	87ba                	mv	a5,a4
ffffffc050403050:	078a                	slli	a5,a5,0x2
ffffffc050403052:	97ba                	add	a5,a5,a4
ffffffc050403054:	0796                	slli	a5,a5,0x5
ffffffc050403056:	07078713          	addi	a4,a5,112
ffffffc05040305a:	0009c797          	auipc	a5,0x9c
ffffffc05040305e:	16678793          	addi	a5,a5,358 # ffffffc05049f1c0 <pcb>
ffffffc050403062:	97ba                	add	a5,a5,a4
ffffffc050403064:	faf698e3          	bne	a3,a5,ffffffc050403014 <do_kill+0x27a>
ffffffc050403068:	0009c697          	auipc	a3,0x9c
ffffffc05040306c:	15868693          	addi	a3,a3,344 # ffffffc05049f1c0 <pcb>
ffffffc050403070:	fe442703          	lw	a4,-28(s0)
ffffffc050403074:	87ba                	mv	a5,a4
ffffffc050403076:	078a                	slli	a5,a5,0x2
ffffffc050403078:	97ba                	add	a5,a5,a4
ffffffc05040307a:	0796                	slli	a5,a5,0x5
ffffffc05040307c:	97b6                	add	a5,a5,a3
ffffffc05040307e:	4711                	li	a4,4
ffffffc050403080:	cbb8                	sw	a4,80(a5)
ffffffc050403082:	0009c697          	auipc	a3,0x9c
ffffffc050403086:	13e68693          	addi	a3,a3,318 # ffffffc05049f1c0 <pcb>
ffffffc05040308a:	fec42703          	lw	a4,-20(s0)
ffffffc05040308e:	87ba                	mv	a5,a4
ffffffc050403090:	078a                	slli	a5,a5,0x2
ffffffc050403092:	97ba                	add	a5,a5,a4
ffffffc050403094:	0796                	slli	a5,a5,0x5
ffffffc050403096:	97b6                	add	a5,a5,a3
ffffffc050403098:	0947a783          	lw	a5,148(a5)
ffffffc05040309c:	fef42623          	sw	a5,-20(s0)
ffffffc0504030a0:	fec42783          	lw	a5,-20(s0)
ffffffc0504030a4:	2781                	sext.w	a5,a5
ffffffc0504030a6:	ee0794e3          	bnez	a5,ffffffc050402f8e <do_kill+0x1f4>
ffffffc0504030aa:	0009c697          	auipc	a3,0x9c
ffffffc0504030ae:	11668693          	addi	a3,a3,278 # ffffffc05049f1c0 <pcb>
ffffffc0504030b2:	fe842703          	lw	a4,-24(s0)
ffffffc0504030b6:	87ba                	mv	a5,a4
ffffffc0504030b8:	078a                	slli	a5,a5,0x2
ffffffc0504030ba:	97ba                	add	a5,a5,a4
ffffffc0504030bc:	0796                	slli	a5,a5,0x5
ffffffc0504030be:	97b6                	add	a5,a5,a3
ffffffc0504030c0:	67dc                	ld	a5,136(a5)
ffffffc0504030c2:	853e                	mv	a0,a5
ffffffc0504030c4:	30d020ef          	jal	ra,ffffffc050405bd0 <free_mem>
ffffffc0504030c8:	f10ff0ef          	jal	ra,ffffffc0504027d8 <do_scheduler>
ffffffc0504030cc:	0009c697          	auipc	a3,0x9c
ffffffc0504030d0:	0f468693          	addi	a3,a3,244 # ffffffc05049f1c0 <pcb>
ffffffc0504030d4:	fe842703          	lw	a4,-24(s0)
ffffffc0504030d8:	87ba                	mv	a5,a4
ffffffc0504030da:	078a                	slli	a5,a5,0x2
ffffffc0504030dc:	97ba                	add	a5,a5,a4
ffffffc0504030de:	0796                	slli	a5,a5,0x5
ffffffc0504030e0:	97b6                	add	a5,a5,a3
ffffffc0504030e2:	4711                	li	a4,4
ffffffc0504030e4:	cbb8                	sw	a4,80(a5)
ffffffc0504030e6:	4785                	li	a5,1
ffffffc0504030e8:	853e                	mv	a0,a5
ffffffc0504030ea:	70a2                	ld	ra,40(sp)
ffffffc0504030ec:	7402                	ld	s0,32(sp)
ffffffc0504030ee:	6145                	addi	sp,sp,48
ffffffc0504030f0:	8082                	ret

ffffffc0504030f2 <do_exit>:
ffffffc0504030f2:	1141                	addi	sp,sp,-16
ffffffc0504030f4:	e406                	sd	ra,8(sp)
ffffffc0504030f6:	e022                	sd	s0,0(sp)
ffffffc0504030f8:	0800                	addi	s0,sp,16
ffffffc0504030fa:	9d2fd0ef          	jal	ra,ffffffc0504002cc <get_current_cpu_id>
ffffffc0504030fe:	87aa                	mv	a5,a0
ffffffc050403100:	c791                	beqz	a5,ffffffc05040310c <do_exit+0x1a>
ffffffc050403102:	0009d797          	auipc	a5,0x9d
ffffffc050403106:	abe78793          	addi	a5,a5,-1346 # ffffffc05049fbc0 <current_running_1>
ffffffc05040310a:	a029                	j	ffffffc050403114 <do_exit+0x22>
ffffffc05040310c:	0009c797          	auipc	a5,0x9c
ffffffc050403110:	09478793          	addi	a5,a5,148 # ffffffc05049f1a0 <current_running_0>
ffffffc050403114:	0009c717          	auipc	a4,0x9c
ffffffc050403118:	0a470713          	addi	a4,a4,164 # ffffffc05049f1b8 <current_running>
ffffffc05040311c:	e31c                	sd	a5,0(a4)
ffffffc05040311e:	0009c797          	auipc	a5,0x9c
ffffffc050403122:	09a78793          	addi	a5,a5,154 # ffffffc05049f1b8 <current_running>
ffffffc050403126:	639c                	ld	a5,0(a5)
ffffffc050403128:	639c                	ld	a5,0(a5)
ffffffc05040312a:	4bbc                	lw	a5,80(a5)
ffffffc05040312c:	873e                	mv	a4,a5
ffffffc05040312e:	4791                	li	a5,4
ffffffc050403130:	02f70363          	beq	a4,a5,ffffffc050403156 <do_exit+0x64>
ffffffc050403134:	0009c797          	auipc	a5,0x9c
ffffffc050403138:	08478793          	addi	a5,a5,132 # ffffffc05049f1b8 <current_running>
ffffffc05040313c:	639c                	ld	a5,0(a5)
ffffffc05040313e:	639c                	ld	a5,0(a5)
ffffffc050403140:	4bfc                	lw	a5,84(a5)
ffffffc050403142:	eb91                	bnez	a5,ffffffc050403156 <do_exit+0x64>
ffffffc050403144:	0009c797          	auipc	a5,0x9c
ffffffc050403148:	07478793          	addi	a5,a5,116 # ffffffc05049f1b8 <current_running>
ffffffc05040314c:	639c                	ld	a5,0(a5)
ffffffc05040314e:	639c                	ld	a5,0(a5)
ffffffc050403150:	470d                	li	a4,3
ffffffc050403152:	cbb8                	sw	a4,80(a5)
ffffffc050403154:	a809                	j	ffffffc050403166 <do_exit+0x74>
ffffffc050403156:	0009c797          	auipc	a5,0x9c
ffffffc05040315a:	06278793          	addi	a5,a5,98 # ffffffc05049f1b8 <current_running>
ffffffc05040315e:	639c                	ld	a5,0(a5)
ffffffc050403160:	639c                	ld	a5,0(a5)
ffffffc050403162:	4711                	li	a4,4
ffffffc050403164:	cbb8                	sw	a4,80(a5)
ffffffc050403166:	0009c797          	auipc	a5,0x9c
ffffffc05040316a:	05278793          	addi	a5,a5,82 # ffffffc05049f1b8 <current_running>
ffffffc05040316e:	639c                	ld	a5,0(a5)
ffffffc050403170:	639c                	ld	a5,0(a5)
ffffffc050403172:	02878793          	addi	a5,a5,40
ffffffc050403176:	853e                	mv	a0,a5
ffffffc050403178:	9f4ff0ef          	jal	ra,ffffffc05040236c <list_del>
ffffffc05040317c:	a819                	j	ffffffc050403192 <do_exit+0xa0>
ffffffc05040317e:	0009c797          	auipc	a5,0x9c
ffffffc050403182:	03a78793          	addi	a5,a5,58 # ffffffc05049f1b8 <current_running>
ffffffc050403186:	639c                	ld	a5,0(a5)
ffffffc050403188:	639c                	ld	a5,0(a5)
ffffffc05040318a:	7f9c                	ld	a5,56(a5)
ffffffc05040318c:	853e                	mv	a0,a5
ffffffc05040318e:	96fff0ef          	jal	ra,ffffffc050402afc <do_unblock>
ffffffc050403192:	0009c797          	auipc	a5,0x9c
ffffffc050403196:	02678793          	addi	a5,a5,38 # ffffffc05049f1b8 <current_running>
ffffffc05040319a:	639c                	ld	a5,0(a5)
ffffffc05040319c:	639c                	ld	a5,0(a5)
ffffffc05040319e:	7f98                	ld	a4,56(a5)
ffffffc0504031a0:	0009c797          	auipc	a5,0x9c
ffffffc0504031a4:	01878793          	addi	a5,a5,24 # ffffffc05049f1b8 <current_running>
ffffffc0504031a8:	639c                	ld	a5,0(a5)
ffffffc0504031aa:	639c                	ld	a5,0(a5)
ffffffc0504031ac:	03878793          	addi	a5,a5,56
ffffffc0504031b0:	fcf717e3          	bne	a4,a5,ffffffc05040317e <do_exit+0x8c>
ffffffc0504031b4:	a819                	j	ffffffc0504031ca <do_exit+0xd8>
ffffffc0504031b6:	0009c797          	auipc	a5,0x9c
ffffffc0504031ba:	00278793          	addi	a5,a5,2 # ffffffc05049f1b8 <current_running>
ffffffc0504031be:	639c                	ld	a5,0(a5)
ffffffc0504031c0:	639c                	ld	a5,0(a5)
ffffffc0504031c2:	7bbc                	ld	a5,112(a5)
ffffffc0504031c4:	853e                	mv	a0,a5
ffffffc0504031c6:	d55fe0ef          	jal	ra,ffffffc050401f1a <do_mutex_lock_release>
ffffffc0504031ca:	0009c797          	auipc	a5,0x9c
ffffffc0504031ce:	fee78793          	addi	a5,a5,-18 # ffffffc05049f1b8 <current_running>
ffffffc0504031d2:	639c                	ld	a5,0(a5)
ffffffc0504031d4:	639c                	ld	a5,0(a5)
ffffffc0504031d6:	7bb8                	ld	a4,112(a5)
ffffffc0504031d8:	0009c797          	auipc	a5,0x9c
ffffffc0504031dc:	fe078793          	addi	a5,a5,-32 # ffffffc05049f1b8 <current_running>
ffffffc0504031e0:	639c                	ld	a5,0(a5)
ffffffc0504031e2:	639c                	ld	a5,0(a5)
ffffffc0504031e4:	07078793          	addi	a5,a5,112
ffffffc0504031e8:	fcf717e3          	bne	a4,a5,ffffffc0504031b6 <do_exit+0xc4>
ffffffc0504031ec:	0009c797          	auipc	a5,0x9c
ffffffc0504031f0:	fcc78793          	addi	a5,a5,-52 # ffffffc05049f1b8 <current_running>
ffffffc0504031f4:	639c                	ld	a5,0(a5)
ffffffc0504031f6:	639c                	ld	a5,0(a5)
ffffffc0504031f8:	67dc                	ld	a5,136(a5)
ffffffc0504031fa:	853e                	mv	a0,a5
ffffffc0504031fc:	1d5020ef          	jal	ra,ffffffc050405bd0 <free_mem>
ffffffc050403200:	dd8ff0ef          	jal	ra,ffffffc0504027d8 <do_scheduler>
ffffffc050403204:	0001                	nop
ffffffc050403206:	60a2                	ld	ra,8(sp)
ffffffc050403208:	6402                	ld	s0,0(sp)
ffffffc05040320a:	0141                	addi	sp,sp,16
ffffffc05040320c:	8082                	ret

ffffffc05040320e <do_waitpid>:
ffffffc05040320e:	7179                	addi	sp,sp,-48
ffffffc050403210:	f406                	sd	ra,40(sp)
ffffffc050403212:	f022                	sd	s0,32(sp)
ffffffc050403214:	1800                	addi	s0,sp,48
ffffffc050403216:	87aa                	mv	a5,a0
ffffffc050403218:	fcf42e23          	sw	a5,-36(s0)
ffffffc05040321c:	8b0fd0ef          	jal	ra,ffffffc0504002cc <get_current_cpu_id>
ffffffc050403220:	87aa                	mv	a5,a0
ffffffc050403222:	c791                	beqz	a5,ffffffc05040322e <do_waitpid+0x20>
ffffffc050403224:	0009d797          	auipc	a5,0x9d
ffffffc050403228:	99c78793          	addi	a5,a5,-1636 # ffffffc05049fbc0 <current_running_1>
ffffffc05040322c:	a029                	j	ffffffc050403236 <do_waitpid+0x28>
ffffffc05040322e:	0009c797          	auipc	a5,0x9c
ffffffc050403232:	f7278793          	addi	a5,a5,-142 # ffffffc05049f1a0 <current_running_0>
ffffffc050403236:	0009c717          	auipc	a4,0x9c
ffffffc05040323a:	f8270713          	addi	a4,a4,-126 # ffffffc05049f1b8 <current_running>
ffffffc05040323e:	e31c                	sd	a5,0(a4)
ffffffc050403240:	fdc42783          	lw	a5,-36(s0)
ffffffc050403244:	37fd                	addiw	a5,a5,-1
ffffffc050403246:	fef42623          	sw	a5,-20(s0)
ffffffc05040324a:	fec42783          	lw	a5,-20(s0)
ffffffc05040324e:	2781                	sext.w	a5,a5
ffffffc050403250:	0207c963          	bltz	a5,ffffffc050403282 <do_waitpid+0x74>
ffffffc050403254:	fec42783          	lw	a5,-20(s0)
ffffffc050403258:	0007871b          	sext.w	a4,a5
ffffffc05040325c:	47bd                	li	a5,15
ffffffc05040325e:	02e7c263          	blt	a5,a4,ffffffc050403282 <do_waitpid+0x74>
ffffffc050403262:	0009c697          	auipc	a3,0x9c
ffffffc050403266:	f5e68693          	addi	a3,a3,-162 # ffffffc05049f1c0 <pcb>
ffffffc05040326a:	fec42703          	lw	a4,-20(s0)
ffffffc05040326e:	87ba                	mv	a5,a4
ffffffc050403270:	078a                	slli	a5,a5,0x2
ffffffc050403272:	97ba                	add	a5,a5,a4
ffffffc050403274:	0796                	slli	a5,a5,0x5
ffffffc050403276:	97b6                	add	a5,a5,a3
ffffffc050403278:	4bbc                	lw	a5,80(a5)
ffffffc05040327a:	873e                	mv	a4,a5
ffffffc05040327c:	4791                	li	a5,4
ffffffc05040327e:	00f71a63          	bne	a4,a5,ffffffc050403292 <do_waitpid+0x84>
ffffffc050403282:	00004517          	auipc	a0,0x4
ffffffc050403286:	1f650513          	addi	a0,a0,502 # ffffffc050407478 <__FUNCTION__.1619+0x240>
ffffffc05040328a:	27f030ef          	jal	ra,ffffffc050406d08 <prints>
ffffffc05040328e:	4781                	li	a5,0
ffffffc050403290:	a849                	j	ffffffc050403322 <do_waitpid+0x114>
ffffffc050403292:	fec42783          	lw	a5,-20(s0)
ffffffc050403296:	2781                	sext.w	a5,a5
ffffffc050403298:	eb89                	bnez	a5,ffffffc0504032aa <do_waitpid+0x9c>
ffffffc05040329a:	00004517          	auipc	a0,0x4
ffffffc05040329e:	21650513          	addi	a0,a0,534 # ffffffc0504074b0 <__FUNCTION__.1619+0x278>
ffffffc0504032a2:	267030ef          	jal	ra,ffffffc050406d08 <prints>
ffffffc0504032a6:	4781                	li	a5,0
ffffffc0504032a8:	a8ad                	j	ffffffc050403322 <do_waitpid+0x114>
ffffffc0504032aa:	0009c697          	auipc	a3,0x9c
ffffffc0504032ae:	f1668693          	addi	a3,a3,-234 # ffffffc05049f1c0 <pcb>
ffffffc0504032b2:	fec42703          	lw	a4,-20(s0)
ffffffc0504032b6:	87ba                	mv	a5,a4
ffffffc0504032b8:	078a                	slli	a5,a5,0x2
ffffffc0504032ba:	97ba                	add	a5,a5,a4
ffffffc0504032bc:	0796                	slli	a5,a5,0x5
ffffffc0504032be:	97b6                	add	a5,a5,a3
ffffffc0504032c0:	4bbc                	lw	a5,80(a5)
ffffffc0504032c2:	873e                	mv	a4,a5
ffffffc0504032c4:	478d                	li	a5,3
ffffffc0504032c6:	02f71363          	bne	a4,a5,ffffffc0504032ec <do_waitpid+0xde>
ffffffc0504032ca:	0009c697          	auipc	a3,0x9c
ffffffc0504032ce:	ef668693          	addi	a3,a3,-266 # ffffffc05049f1c0 <pcb>
ffffffc0504032d2:	fec42703          	lw	a4,-20(s0)
ffffffc0504032d6:	87ba                	mv	a5,a4
ffffffc0504032d8:	078a                	slli	a5,a5,0x2
ffffffc0504032da:	97ba                	add	a5,a5,a4
ffffffc0504032dc:	0796                	slli	a5,a5,0x5
ffffffc0504032de:	97b6                	add	a5,a5,a3
ffffffc0504032e0:	47bc                	lw	a5,72(a5)
ffffffc0504032e2:	853e                	mv	a0,a5
ffffffc0504032e4:	ab7ff0ef          	jal	ra,ffffffc050402d9a <do_kill>
ffffffc0504032e8:	4785                	li	a5,1
ffffffc0504032ea:	a825                	j	ffffffc050403322 <do_waitpid+0x114>
ffffffc0504032ec:	0009c797          	auipc	a5,0x9c
ffffffc0504032f0:	ecc78793          	addi	a5,a5,-308 # ffffffc05049f1b8 <current_running>
ffffffc0504032f4:	639c                	ld	a5,0(a5)
ffffffc0504032f6:	639c                	ld	a5,0(a5)
ffffffc0504032f8:	02878693          	addi	a3,a5,40
ffffffc0504032fc:	fec42703          	lw	a4,-20(s0)
ffffffc050403300:	87ba                	mv	a5,a4
ffffffc050403302:	078a                	slli	a5,a5,0x2
ffffffc050403304:	97ba                	add	a5,a5,a4
ffffffc050403306:	0796                	slli	a5,a5,0x5
ffffffc050403308:	03078713          	addi	a4,a5,48
ffffffc05040330c:	0009c797          	auipc	a5,0x9c
ffffffc050403310:	eb478793          	addi	a5,a5,-332 # ffffffc05049f1c0 <pcb>
ffffffc050403314:	97ba                	add	a5,a5,a4
ffffffc050403316:	07a1                	addi	a5,a5,8
ffffffc050403318:	85be                	mv	a1,a5
ffffffc05040331a:	8536                	mv	a0,a3
ffffffc05040331c:	f9aff0ef          	jal	ra,ffffffc050402ab6 <do_block>
ffffffc050403320:	4785                	li	a5,1
ffffffc050403322:	853e                	mv	a0,a5
ffffffc050403324:	70a2                	ld	ra,40(sp)
ffffffc050403326:	7402                	ld	s0,32(sp)
ffffffc050403328:	6145                	addi	sp,sp,48
ffffffc05040332a:	8082                	ret

ffffffc05040332c <do_getpid>:
ffffffc05040332c:	1141                	addi	sp,sp,-16
ffffffc05040332e:	e406                	sd	ra,8(sp)
ffffffc050403330:	e022                	sd	s0,0(sp)
ffffffc050403332:	0800                	addi	s0,sp,16
ffffffc050403334:	f99fc0ef          	jal	ra,ffffffc0504002cc <get_current_cpu_id>
ffffffc050403338:	87aa                	mv	a5,a0
ffffffc05040333a:	c791                	beqz	a5,ffffffc050403346 <do_getpid+0x1a>
ffffffc05040333c:	0009d797          	auipc	a5,0x9d
ffffffc050403340:	88478793          	addi	a5,a5,-1916 # ffffffc05049fbc0 <current_running_1>
ffffffc050403344:	a029                	j	ffffffc05040334e <do_getpid+0x22>
ffffffc050403346:	0009c797          	auipc	a5,0x9c
ffffffc05040334a:	e5a78793          	addi	a5,a5,-422 # ffffffc05049f1a0 <current_running_0>
ffffffc05040334e:	0009c717          	auipc	a4,0x9c
ffffffc050403352:	e6a70713          	addi	a4,a4,-406 # ffffffc05049f1b8 <current_running>
ffffffc050403356:	e31c                	sd	a5,0(a4)
ffffffc050403358:	0009c797          	auipc	a5,0x9c
ffffffc05040335c:	e6078793          	addi	a5,a5,-416 # ffffffc05049f1b8 <current_running>
ffffffc050403360:	639c                	ld	a5,0(a5)
ffffffc050403362:	639c                	ld	a5,0(a5)
ffffffc050403364:	47bc                	lw	a5,72(a5)
ffffffc050403366:	853e                	mv	a0,a5
ffffffc050403368:	60a2                	ld	ra,8(sp)
ffffffc05040336a:	6402                	ld	s0,0(sp)
ffffffc05040336c:	0141                	addi	sp,sp,16
ffffffc05040336e:	8082                	ret

ffffffc050403370 <do_setmask>:
ffffffc050403370:	1101                	addi	sp,sp,-32
ffffffc050403372:	ec22                	sd	s0,24(sp)
ffffffc050403374:	1000                	addi	s0,sp,32
ffffffc050403376:	87aa                	mv	a5,a0
ffffffc050403378:	872e                	mv	a4,a1
ffffffc05040337a:	fef42623          	sw	a5,-20(s0)
ffffffc05040337e:	87ba                	mv	a5,a4
ffffffc050403380:	fef42423          	sw	a5,-24(s0)
ffffffc050403384:	fe842783          	lw	a5,-24(s0)
ffffffc050403388:	37fd                	addiw	a5,a5,-1
ffffffc05040338a:	0007871b          	sext.w	a4,a5
ffffffc05040338e:	0009c697          	auipc	a3,0x9c
ffffffc050403392:	e3268693          	addi	a3,a3,-462 # ffffffc05049f1c0 <pcb>
ffffffc050403396:	87ba                	mv	a5,a4
ffffffc050403398:	078a                	slli	a5,a5,0x2
ffffffc05040339a:	97ba                	add	a5,a5,a4
ffffffc05040339c:	0796                	slli	a5,a5,0x5
ffffffc05040339e:	97b6                	add	a5,a5,a3
ffffffc0504033a0:	fec42703          	lw	a4,-20(s0)
ffffffc0504033a4:	08e7a023          	sw	a4,128(a5)
ffffffc0504033a8:	0001                	nop
ffffffc0504033aa:	6462                	ld	s0,24(sp)
ffffffc0504033ac:	6105                	addi	sp,sp,32
ffffffc0504033ae:	8082                	ret

ffffffc0504033b0 <name_to_id>:
ffffffc0504033b0:	7179                	addi	sp,sp,-48
ffffffc0504033b2:	f406                	sd	ra,40(sp)
ffffffc0504033b4:	f022                	sd	s0,32(sp)
ffffffc0504033b6:	1800                	addi	s0,sp,48
ffffffc0504033b8:	fca43c23          	sd	a0,-40(s0)
ffffffc0504033bc:	4785                	li	a5,1
ffffffc0504033be:	fef42623          	sw	a5,-20(s0)
ffffffc0504033c2:	a825                	j	ffffffc0504033fa <name_to_id+0x4a>
ffffffc0504033c4:	00052697          	auipc	a3,0x52
ffffffc0504033c8:	f5c68693          	addi	a3,a3,-164 # ffffffc050455320 <elf_files>
ffffffc0504033cc:	fec42703          	lw	a4,-20(s0)
ffffffc0504033d0:	87ba                	mv	a5,a4
ffffffc0504033d2:	0786                	slli	a5,a5,0x1
ffffffc0504033d4:	97ba                	add	a5,a5,a4
ffffffc0504033d6:	078e                	slli	a5,a5,0x3
ffffffc0504033d8:	97b6                	add	a5,a5,a3
ffffffc0504033da:	639c                	ld	a5,0(a5)
ffffffc0504033dc:	85be                	mv	a1,a5
ffffffc0504033de:	fd843503          	ld	a0,-40(s0)
ffffffc0504033e2:	73b020ef          	jal	ra,ffffffc05040631c <kstrcmp>
ffffffc0504033e6:	87aa                	mv	a5,a0
ffffffc0504033e8:	e781                	bnez	a5,ffffffc0504033f0 <name_to_id+0x40>
ffffffc0504033ea:	fec42783          	lw	a5,-20(s0)
ffffffc0504033ee:	a831                	j	ffffffc05040340a <name_to_id+0x5a>
ffffffc0504033f0:	fec42783          	lw	a5,-20(s0)
ffffffc0504033f4:	2785                	addiw	a5,a5,1
ffffffc0504033f6:	fef42623          	sw	a5,-20(s0)
ffffffc0504033fa:	fec42783          	lw	a5,-20(s0)
ffffffc0504033fe:	0007871b          	sext.w	a4,a5
ffffffc050403402:	4791                	li	a5,4
ffffffc050403404:	fce7d0e3          	bge	a5,a4,ffffffc0504033c4 <name_to_id+0x14>
ffffffc050403408:	57fd                	li	a5,-1
ffffffc05040340a:	853e                	mv	a0,a5
ffffffc05040340c:	70a2                	ld	ra,40(sp)
ffffffc05040340e:	7402                	ld	s0,32(sp)
ffffffc050403410:	6145                	addi	sp,sp,48
ffffffc050403412:	8082                	ret

ffffffc050403414 <do_exec>:
ffffffc050403414:	7175                	addi	sp,sp,-144
ffffffc050403416:	e506                	sd	ra,136(sp)
ffffffc050403418:	e122                	sd	s0,128(sp)
ffffffc05040341a:	fca6                	sd	s1,120(sp)
ffffffc05040341c:	0900                	addi	s0,sp,144
ffffffc05040341e:	f8a43423          	sd	a0,-120(s0)
ffffffc050403422:	87ae                	mv	a5,a1
ffffffc050403424:	f6c43c23          	sd	a2,-136(s0)
ffffffc050403428:	8736                	mv	a4,a3
ffffffc05040342a:	f8f42223          	sw	a5,-124(s0)
ffffffc05040342e:	87ba                	mv	a5,a4
ffffffc050403430:	f8f42023          	sw	a5,-128(s0)
ffffffc050403434:	e99fc0ef          	jal	ra,ffffffc0504002cc <get_current_cpu_id>
ffffffc050403438:	87aa                	mv	a5,a0
ffffffc05040343a:	c791                	beqz	a5,ffffffc050403446 <do_exec+0x32>
ffffffc05040343c:	0009c797          	auipc	a5,0x9c
ffffffc050403440:	78478793          	addi	a5,a5,1924 # ffffffc05049fbc0 <current_running_1>
ffffffc050403444:	a029                	j	ffffffc05040344e <do_exec+0x3a>
ffffffc050403446:	0009c797          	auipc	a5,0x9c
ffffffc05040344a:	d5a78793          	addi	a5,a5,-678 # ffffffc05049f1a0 <current_running_0>
ffffffc05040344e:	0009c717          	auipc	a4,0x9c
ffffffc050403452:	d6a70713          	addi	a4,a4,-662 # ffffffc05049f1b8 <current_running>
ffffffc050403456:	e31c                	sd	a5,0(a4)
ffffffc050403458:	f8042783          	lw	a5,-128(s0)
ffffffc05040345c:	fcf42a23          	sw	a5,-44(s0)
ffffffc050403460:	f8442783          	lw	a5,-124(s0)
ffffffc050403464:	fcf42823          	sw	a5,-48(s0)
ffffffc050403468:	f9c40713          	addi	a4,s0,-100
ffffffc05040346c:	fa040793          	addi	a5,s0,-96
ffffffc050403470:	863a                	mv	a2,a4
ffffffc050403472:	85be                	mv	a1,a5
ffffffc050403474:	f8843503          	ld	a0,-120(s0)
ffffffc050403478:	0e9030ef          	jal	ra,ffffffc050406d60 <get_elf_file>
ffffffc05040347c:	87aa                	mv	a5,a0
ffffffc05040347e:	eb89                	bnez	a5,ffffffc050403490 <do_exec+0x7c>
ffffffc050403480:	00004517          	auipc	a0,0x4
ffffffc050403484:	05850513          	addi	a0,a0,88 # ffffffc0504074d8 <__FUNCTION__.1619+0x2a0>
ffffffc050403488:	081030ef          	jal	ra,ffffffc050406d08 <prints>
ffffffc05040348c:	57fd                	li	a5,-1
ffffffc05040348e:	a3b5                	j	ffffffc0504039fa <do_exec+0x5e6>
ffffffc050403490:	fd042783          	lw	a5,-48(s0)
ffffffc050403494:	f8f42223          	sw	a5,-124(s0)
ffffffc050403498:	fc042e23          	sw	zero,-36(s0)
ffffffc05040349c:	a389                	j	ffffffc0504039de <do_exec+0x5ca>
ffffffc05040349e:	0009c697          	auipc	a3,0x9c
ffffffc0504034a2:	d2268693          	addi	a3,a3,-734 # ffffffc05049f1c0 <pcb>
ffffffc0504034a6:	fdc42703          	lw	a4,-36(s0)
ffffffc0504034aa:	87ba                	mv	a5,a4
ffffffc0504034ac:	078a                	slli	a5,a5,0x2
ffffffc0504034ae:	97ba                	add	a5,a5,a4
ffffffc0504034b0:	0796                	slli	a5,a5,0x5
ffffffc0504034b2:	97b6                	add	a5,a5,a3
ffffffc0504034b4:	4bbc                	lw	a5,80(a5)
ffffffc0504034b6:	873e                	mv	a4,a5
ffffffc0504034b8:	4791                	li	a5,4
ffffffc0504034ba:	50f71d63          	bne	a4,a5,ffffffc0504039d4 <do_exec+0x5c0>
ffffffc0504034be:	0009c697          	auipc	a3,0x9c
ffffffc0504034c2:	d0268693          	addi	a3,a3,-766 # ffffffc05049f1c0 <pcb>
ffffffc0504034c6:	fdc42703          	lw	a4,-36(s0)
ffffffc0504034ca:	87ba                	mv	a5,a4
ffffffc0504034cc:	078a                	slli	a5,a5,0x2
ffffffc0504034ce:	97ba                	add	a5,a5,a4
ffffffc0504034d0:	0796                	slli	a5,a5,0x5
ffffffc0504034d2:	97b6                	add	a5,a5,a3
ffffffc0504034d4:	0007b823          	sd	zero,16(a5)
ffffffc0504034d8:	0009c697          	auipc	a3,0x9c
ffffffc0504034dc:	ce868693          	addi	a3,a3,-792 # ffffffc05049f1c0 <pcb>
ffffffc0504034e0:	fdc42703          	lw	a4,-36(s0)
ffffffc0504034e4:	87ba                	mv	a5,a4
ffffffc0504034e6:	078a                	slli	a5,a5,0x2
ffffffc0504034e8:	97ba                	add	a5,a5,a4
ffffffc0504034ea:	0796                	slli	a5,a5,0x5
ffffffc0504034ec:	97b6                	add	a5,a5,a3
ffffffc0504034ee:	4709                	li	a4,2
ffffffc0504034f0:	c7f8                	sw	a4,76(a5)
ffffffc0504034f2:	0009c697          	auipc	a3,0x9c
ffffffc0504034f6:	cce68693          	addi	a3,a3,-818 # ffffffc05049f1c0 <pcb>
ffffffc0504034fa:	fdc42703          	lw	a4,-36(s0)
ffffffc0504034fe:	87ba                	mv	a5,a4
ffffffc050403500:	078a                	slli	a5,a5,0x2
ffffffc050403502:	97ba                	add	a5,a5,a4
ffffffc050403504:	0796                	slli	a5,a5,0x5
ffffffc050403506:	97b6                	add	a5,a5,a3
ffffffc050403508:	0407ac23          	sw	zero,88(a5)
ffffffc05040350c:	0009c697          	auipc	a3,0x9c
ffffffc050403510:	cb468693          	addi	a3,a3,-844 # ffffffc05049f1c0 <pcb>
ffffffc050403514:	fdc42703          	lw	a4,-36(s0)
ffffffc050403518:	87ba                	mv	a5,a4
ffffffc05040351a:	078a                	slli	a5,a5,0x2
ffffffc05040351c:	97ba                	add	a5,a5,a4
ffffffc05040351e:	0796                	slli	a5,a5,0x5
ffffffc050403520:	97b6                	add	a5,a5,a3
ffffffc050403522:	0407ae23          	sw	zero,92(a5)
ffffffc050403526:	0009c697          	auipc	a3,0x9c
ffffffc05040352a:	c9a68693          	addi	a3,a3,-870 # ffffffc05049f1c0 <pcb>
ffffffc05040352e:	fdc42703          	lw	a4,-36(s0)
ffffffc050403532:	87ba                	mv	a5,a4
ffffffc050403534:	078a                	slli	a5,a5,0x2
ffffffc050403536:	97ba                	add	a5,a5,a4
ffffffc050403538:	0796                	slli	a5,a5,0x5
ffffffc05040353a:	97b6                	add	a5,a5,a3
ffffffc05040353c:	0607a023          	sw	zero,96(a5)
ffffffc050403540:	0009c697          	auipc	a3,0x9c
ffffffc050403544:	c8068693          	addi	a3,a3,-896 # ffffffc05049f1c0 <pcb>
ffffffc050403548:	fdc42703          	lw	a4,-36(s0)
ffffffc05040354c:	87ba                	mv	a5,a4
ffffffc05040354e:	078a                	slli	a5,a5,0x2
ffffffc050403550:	97ba                	add	a5,a5,a4
ffffffc050403552:	0796                	slli	a5,a5,0x5
ffffffc050403554:	97b6                	add	a5,a5,a3
ffffffc050403556:	4711                	li	a4,4
ffffffc050403558:	d3f8                	sw	a4,100(a5)
ffffffc05040355a:	1f9000ef          	jal	ra,ffffffc050403f52 <get_ticks>
ffffffc05040355e:	87aa                	mv	a5,a0
ffffffc050403560:	0007869b          	sext.w	a3,a5
ffffffc050403564:	0009c617          	auipc	a2,0x9c
ffffffc050403568:	c5c60613          	addi	a2,a2,-932 # ffffffc05049f1c0 <pcb>
ffffffc05040356c:	fdc42703          	lw	a4,-36(s0)
ffffffc050403570:	87ba                	mv	a5,a4
ffffffc050403572:	078a                	slli	a5,a5,0x2
ffffffc050403574:	97ba                	add	a5,a5,a4
ffffffc050403576:	0796                	slli	a5,a5,0x5
ffffffc050403578:	97b2                	add	a5,a5,a2
ffffffc05040357a:	d7b4                	sw	a3,104(a5)
ffffffc05040357c:	fd442683          	lw	a3,-44(s0)
ffffffc050403580:	0009c617          	auipc	a2,0x9c
ffffffc050403584:	c4060613          	addi	a2,a2,-960 # ffffffc05049f1c0 <pcb>
ffffffc050403588:	fdc42703          	lw	a4,-36(s0)
ffffffc05040358c:	87ba                	mv	a5,a4
ffffffc05040358e:	078a                	slli	a5,a5,0x2
ffffffc050403590:	97ba                	add	a5,a5,a4
ffffffc050403592:	0796                	slli	a5,a5,0x5
ffffffc050403594:	97b2                	add	a5,a5,a2
ffffffc050403596:	cbf4                	sw	a3,84(a5)
ffffffc050403598:	4505                	li	a0,1
ffffffc05040359a:	1b6020ef          	jal	ra,ffffffc050405750 <allocPage>
ffffffc05040359e:	862a                	mv	a2,a0
ffffffc0504035a0:	0009c697          	auipc	a3,0x9c
ffffffc0504035a4:	c2068693          	addi	a3,a3,-992 # ffffffc05049f1c0 <pcb>
ffffffc0504035a8:	fdc42703          	lw	a4,-36(s0)
ffffffc0504035ac:	87ba                	mv	a5,a4
ffffffc0504035ae:	078a                	slli	a5,a5,0x2
ffffffc0504035b0:	97ba                	add	a5,a5,a4
ffffffc0504035b2:	0796                	slli	a5,a5,0x5
ffffffc0504035b4:	97b6                	add	a5,a5,a3
ffffffc0504035b6:	e7d0                	sd	a2,136(a5)
ffffffc0504035b8:	0009c697          	auipc	a3,0x9c
ffffffc0504035bc:	c0868693          	addi	a3,a3,-1016 # ffffffc05049f1c0 <pcb>
ffffffc0504035c0:	fdc42703          	lw	a4,-36(s0)
ffffffc0504035c4:	87ba                	mv	a5,a4
ffffffc0504035c6:	078a                	slli	a5,a5,0x2
ffffffc0504035c8:	97ba                	add	a5,a5,a4
ffffffc0504035ca:	0796                	slli	a5,a5,0x5
ffffffc0504035cc:	97b6                	add	a5,a5,a3
ffffffc0504035ce:	67dc                	ld	a5,136(a5)
ffffffc0504035d0:	853e                	mv	a0,a5
ffffffc0504035d2:	e79fe0ef          	jal	ra,ffffffc05040244a <clear_pgdir>
ffffffc0504035d6:	0009c697          	auipc	a3,0x9c
ffffffc0504035da:	bea68693          	addi	a3,a3,-1046 # ffffffc05049f1c0 <pcb>
ffffffc0504035de:	fdc42703          	lw	a4,-36(s0)
ffffffc0504035e2:	87ba                	mv	a5,a4
ffffffc0504035e4:	078a                	slli	a5,a5,0x2
ffffffc0504035e6:	97ba                	add	a5,a5,a4
ffffffc0504035e8:	0796                	slli	a5,a5,0x5
ffffffc0504035ea:	97b6                	add	a5,a5,a3
ffffffc0504035ec:	67c4                	ld	s1,136(a5)
ffffffc0504035ee:	5e000537          	lui	a0,0x5e000
ffffffc0504035f2:	e3dfe0ef          	jal	ra,ffffffc05040242e <pa2kva>
ffffffc0504035f6:	87aa                	mv	a5,a0
ffffffc0504035f8:	85be                	mv	a1,a5
ffffffc0504035fa:	8526                	mv	a0,s1
ffffffc0504035fc:	286020ef          	jal	ra,ffffffc050405882 <share_pgtable>
ffffffc050403600:	0009c697          	auipc	a3,0x9c
ffffffc050403604:	bc068693          	addi	a3,a3,-1088 # ffffffc05049f1c0 <pcb>
ffffffc050403608:	fdc42703          	lw	a4,-36(s0)
ffffffc05040360c:	87ba                	mv	a5,a4
ffffffc05040360e:	078a                	slli	a5,a5,0x2
ffffffc050403610:	97ba                	add	a5,a5,a4
ffffffc050403612:	0796                	slli	a5,a5,0x5
ffffffc050403614:	97b6                	add	a5,a5,a3
ffffffc050403616:	67dc                	ld	a5,136(a5)
ffffffc050403618:	07a1                	addi	a5,a5,8
ffffffc05040361a:	0007b023          	sd	zero,0(a5)
ffffffc05040361e:	4505                	li	a0,1
ffffffc050403620:	130020ef          	jal	ra,ffffffc050405750 <allocPage>
ffffffc050403624:	872a                	mv	a4,a0
ffffffc050403626:	6785                	lui	a5,0x1
ffffffc050403628:	00f706b3          	add	a3,a4,a5
ffffffc05040362c:	0009c617          	auipc	a2,0x9c
ffffffc050403630:	b9460613          	addi	a2,a2,-1132 # ffffffc05049f1c0 <pcb>
ffffffc050403634:	fdc42703          	lw	a4,-36(s0)
ffffffc050403638:	87ba                	mv	a5,a4
ffffffc05040363a:	078a                	slli	a5,a5,0x2
ffffffc05040363c:	97ba                	add	a5,a5,a4
ffffffc05040363e:	0796                	slli	a5,a5,0x5
ffffffc050403640:	97b2                	add	a5,a5,a2
ffffffc050403642:	e394                	sd	a3,0(a5)
ffffffc050403644:	0009c697          	auipc	a3,0x9c
ffffffc050403648:	b7c68693          	addi	a3,a3,-1156 # ffffffc05049f1c0 <pcb>
ffffffc05040364c:	fdc42703          	lw	a4,-36(s0)
ffffffc050403650:	87ba                	mv	a5,a4
ffffffc050403652:	078a                	slli	a5,a5,0x2
ffffffc050403654:	97ba                	add	a5,a5,a4
ffffffc050403656:	0796                	slli	a5,a5,0x5
ffffffc050403658:	97b6                	add	a5,a5,a3
ffffffc05040365a:	000f0737          	lui	a4,0xf0
ffffffc05040365e:	0705                	addi	a4,a4,1
ffffffc050403660:	0742                	slli	a4,a4,0x10
ffffffc050403662:	e798                	sd	a4,8(a5)
ffffffc050403664:	0009c697          	auipc	a3,0x9c
ffffffc050403668:	b5c68693          	addi	a3,a3,-1188 # ffffffc05049f1c0 <pcb>
ffffffc05040366c:	fdc42703          	lw	a4,-36(s0)
ffffffc050403670:	87ba                	mv	a5,a4
ffffffc050403672:	078a                	slli	a5,a5,0x2
ffffffc050403674:	97ba                	add	a5,a5,a4
ffffffc050403676:	0796                	slli	a5,a5,0x5
ffffffc050403678:	97b6                	add	a5,a5,a3
ffffffc05040367a:	6798                	ld	a4,8(a5)
ffffffc05040367c:	77fd                	lui	a5,0xfffff
ffffffc05040367e:	00f70533          	add	a0,a4,a5
ffffffc050403682:	0009c697          	auipc	a3,0x9c
ffffffc050403686:	b3e68693          	addi	a3,a3,-1218 # ffffffc05049f1c0 <pcb>
ffffffc05040368a:	fdc42703          	lw	a4,-36(s0)
ffffffc05040368e:	87ba                	mv	a5,a4
ffffffc050403690:	078a                	slli	a5,a5,0x2
ffffffc050403692:	97ba                	add	a5,a5,a4
ffffffc050403694:	0796                	slli	a5,a5,0x5
ffffffc050403696:	97b6                	add	a5,a5,a3
ffffffc050403698:	67dc                	ld	a5,136(a5)
ffffffc05040369a:	4601                	li	a2,0
ffffffc05040369c:	85be                	mv	a1,a5
ffffffc05040369e:	210020ef          	jal	ra,ffffffc0504058ae <alloc_page_helper>
ffffffc0504036a2:	872a                	mv	a4,a0
ffffffc0504036a4:	6785                	lui	a5,0x1
ffffffc0504036a6:	97ba                	add	a5,a5,a4
ffffffc0504036a8:	fcf43423          	sd	a5,-56(s0)
ffffffc0504036ac:	0009c697          	auipc	a3,0x9c
ffffffc0504036b0:	b1468693          	addi	a3,a3,-1260 # ffffffc05049f1c0 <pcb>
ffffffc0504036b4:	fdc42703          	lw	a4,-36(s0)
ffffffc0504036b8:	87ba                	mv	a5,a4
ffffffc0504036ba:	078a                	slli	a5,a5,0x2
ffffffc0504036bc:	97ba                	add	a5,a5,a4
ffffffc0504036be:	0796                	slli	a5,a5,0x5
ffffffc0504036c0:	97b6                	add	a5,a5,a3
ffffffc0504036c2:	6394                	ld	a3,0(a5)
ffffffc0504036c4:	0009c617          	auipc	a2,0x9c
ffffffc0504036c8:	afc60613          	addi	a2,a2,-1284 # ffffffc05049f1c0 <pcb>
ffffffc0504036cc:	fdc42703          	lw	a4,-36(s0)
ffffffc0504036d0:	87ba                	mv	a5,a4
ffffffc0504036d2:	078a                	slli	a5,a5,0x2
ffffffc0504036d4:	97ba                	add	a5,a5,a4
ffffffc0504036d6:	0796                	slli	a5,a5,0x5
ffffffc0504036d8:	97b2                	add	a5,a5,a2
ffffffc0504036da:	ef94                	sd	a3,24(a5)
ffffffc0504036dc:	0009c697          	auipc	a3,0x9c
ffffffc0504036e0:	ae468693          	addi	a3,a3,-1308 # ffffffc05049f1c0 <pcb>
ffffffc0504036e4:	fdc42703          	lw	a4,-36(s0)
ffffffc0504036e8:	87ba                	mv	a5,a4
ffffffc0504036ea:	078a                	slli	a5,a5,0x2
ffffffc0504036ec:	97ba                	add	a5,a5,a4
ffffffc0504036ee:	0796                	slli	a5,a5,0x5
ffffffc0504036f0:	97b6                	add	a5,a5,a3
ffffffc0504036f2:	6794                	ld	a3,8(a5)
ffffffc0504036f4:	0009c617          	auipc	a2,0x9c
ffffffc0504036f8:	acc60613          	addi	a2,a2,-1332 # ffffffc05049f1c0 <pcb>
ffffffc0504036fc:	fdc42703          	lw	a4,-36(s0)
ffffffc050403700:	87ba                	mv	a5,a4
ffffffc050403702:	078a                	slli	a5,a5,0x2
ffffffc050403704:	97ba                	add	a5,a5,a4
ffffffc050403706:	0796                	slli	a5,a5,0x5
ffffffc050403708:	97b2                	add	a5,a5,a2
ffffffc05040370a:	f394                	sd	a3,32(a5)
ffffffc05040370c:	0009c697          	auipc	a3,0x9c
ffffffc050403710:	ab468693          	addi	a3,a3,-1356 # ffffffc05049f1c0 <pcb>
ffffffc050403714:	fdc42703          	lw	a4,-36(s0)
ffffffc050403718:	87ba                	mv	a5,a4
ffffffc05040371a:	078a                	slli	a5,a5,0x2
ffffffc05040371c:	97ba                	add	a5,a5,a4
ffffffc05040371e:	0796                	slli	a5,a5,0x5
ffffffc050403720:	97b6                	add	a5,a5,a3
ffffffc050403722:	470d                	li	a4,3
ffffffc050403724:	08e7a023          	sw	a4,128(a5) # 1080 <_start-0xffffffc0503fef80>
ffffffc050403728:	0009c697          	auipc	a3,0x9c
ffffffc05040372c:	a9868693          	addi	a3,a3,-1384 # ffffffc05049f1c0 <pcb>
ffffffc050403730:	fdc42703          	lw	a4,-36(s0)
ffffffc050403734:	87ba                	mv	a5,a4
ffffffc050403736:	078a                	slli	a5,a5,0x2
ffffffc050403738:	97ba                	add	a5,a5,a4
ffffffc05040373a:	0796                	slli	a5,a5,0x5
ffffffc05040373c:	97b6                	add	a5,a5,a3
ffffffc05040373e:	0807a823          	sw	zero,144(a5)
ffffffc050403742:	0009c697          	auipc	a3,0x9c
ffffffc050403746:	a7e68693          	addi	a3,a3,-1410 # ffffffc05049f1c0 <pcb>
ffffffc05040374a:	fdc42703          	lw	a4,-36(s0)
ffffffc05040374e:	87ba                	mv	a5,a4
ffffffc050403750:	078a                	slli	a5,a5,0x2
ffffffc050403752:	97ba                	add	a5,a5,a4
ffffffc050403754:	0796                	slli	a5,a5,0x5
ffffffc050403756:	97b6                	add	a5,a5,a3
ffffffc050403758:	0807aa23          	sw	zero,148(a5)
ffffffc05040375c:	0009c697          	auipc	a3,0x9c
ffffffc050403760:	a6468693          	addi	a3,a3,-1436 # ffffffc05049f1c0 <pcb>
ffffffc050403764:	fdc42703          	lw	a4,-36(s0)
ffffffc050403768:	87ba                	mv	a5,a4
ffffffc05040376a:	078a                	slli	a5,a5,0x2
ffffffc05040376c:	97ba                	add	a5,a5,a4
ffffffc05040376e:	0796                	slli	a5,a5,0x5
ffffffc050403770:	97b6                	add	a5,a5,a3
ffffffc050403772:	0807ac23          	sw	zero,152(a5)
ffffffc050403776:	0009c697          	auipc	a3,0x9c
ffffffc05040377a:	a4a68693          	addi	a3,a3,-1462 # ffffffc05049f1c0 <pcb>
ffffffc05040377e:	fdc42703          	lw	a4,-36(s0)
ffffffc050403782:	87ba                	mv	a5,a4
ffffffc050403784:	078a                	slli	a5,a5,0x2
ffffffc050403786:	97ba                	add	a5,a5,a4
ffffffc050403788:	0796                	slli	a5,a5,0x5
ffffffc05040378a:	97b6                	add	a5,a5,a3
ffffffc05040378c:	679c                	ld	a5,8(a5)
ffffffc05040378e:	fd042703          	lw	a4,-48(s0)
ffffffc050403792:	0057171b          	slliw	a4,a4,0x5
ffffffc050403796:	2701                	sext.w	a4,a4
ffffffc050403798:	40e786b3          	sub	a3,a5,a4
ffffffc05040379c:	0009c617          	auipc	a2,0x9c
ffffffc0504037a0:	a2460613          	addi	a2,a2,-1500 # ffffffc05049f1c0 <pcb>
ffffffc0504037a4:	fdc42703          	lw	a4,-36(s0)
ffffffc0504037a8:	87ba                	mv	a5,a4
ffffffc0504037aa:	078a                	slli	a5,a5,0x2
ffffffc0504037ac:	97ba                	add	a5,a5,a4
ffffffc0504037ae:	0796                	slli	a5,a5,0x5
ffffffc0504037b0:	97b2                	add	a5,a5,a2
ffffffc0504037b2:	e794                	sd	a3,8(a5)
ffffffc0504037b4:	fd042783          	lw	a5,-48(s0)
ffffffc0504037b8:	0057979b          	slliw	a5,a5,0x5
ffffffc0504037bc:	2781                	sext.w	a5,a5
ffffffc0504037be:	873e                	mv	a4,a5
ffffffc0504037c0:	fc843783          	ld	a5,-56(s0)
ffffffc0504037c4:	8f99                	sub	a5,a5,a4
ffffffc0504037c6:	fcf43023          	sd	a5,-64(s0)
ffffffc0504037ca:	0009c697          	auipc	a3,0x9c
ffffffc0504037ce:	9f668693          	addi	a3,a3,-1546 # ffffffc05049f1c0 <pcb>
ffffffc0504037d2:	fdc42703          	lw	a4,-36(s0)
ffffffc0504037d6:	87ba                	mv	a5,a4
ffffffc0504037d8:	078a                	slli	a5,a5,0x2
ffffffc0504037da:	97ba                	add	a5,a5,a4
ffffffc0504037dc:	0796                	slli	a5,a5,0x5
ffffffc0504037de:	97b6                	add	a5,a5,a3
ffffffc0504037e0:	679c                	ld	a5,8(a5)
ffffffc0504037e2:	faf43c23          	sd	a5,-72(s0)
ffffffc0504037e6:	0009c697          	auipc	a3,0x9c
ffffffc0504037ea:	9da68693          	addi	a3,a3,-1574 # ffffffc05049f1c0 <pcb>
ffffffc0504037ee:	fdc42703          	lw	a4,-36(s0)
ffffffc0504037f2:	87ba                	mv	a5,a4
ffffffc0504037f4:	078a                	slli	a5,a5,0x2
ffffffc0504037f6:	97ba                	add	a5,a5,a4
ffffffc0504037f8:	0796                	slli	a5,a5,0x5
ffffffc0504037fa:	97b6                	add	a5,a5,a3
ffffffc0504037fc:	679c                	ld	a5,8(a5)
ffffffc0504037fe:	fe078693          	addi	a3,a5,-32
ffffffc050403802:	0009c617          	auipc	a2,0x9c
ffffffc050403806:	9be60613          	addi	a2,a2,-1602 # ffffffc05049f1c0 <pcb>
ffffffc05040380a:	fdc42703          	lw	a4,-36(s0)
ffffffc05040380e:	87ba                	mv	a5,a4
ffffffc050403810:	078a                	slli	a5,a5,0x2
ffffffc050403812:	97ba                	add	a5,a5,a4
ffffffc050403814:	0796                	slli	a5,a5,0x5
ffffffc050403816:	97b2                	add	a5,a5,a2
ffffffc050403818:	e794                	sd	a3,8(a5)
ffffffc05040381a:	fc043783          	ld	a5,-64(s0)
ffffffc05040381e:	1781                	addi	a5,a5,-32
ffffffc050403820:	faf43823          	sd	a5,-80(s0)
ffffffc050403824:	fc042c23          	sw	zero,-40(s0)
ffffffc050403828:	a899                	j	ffffffc05040387e <do_exec+0x46a>
ffffffc05040382a:	fd842783          	lw	a5,-40(s0)
ffffffc05040382e:	0057979b          	slliw	a5,a5,0x5
ffffffc050403832:	2781                	sext.w	a5,a5
ffffffc050403834:	873e                	mv	a4,a5
ffffffc050403836:	fc043783          	ld	a5,-64(s0)
ffffffc05040383a:	00e786b3          	add	a3,a5,a4
ffffffc05040383e:	fd842783          	lw	a5,-40(s0)
ffffffc050403842:	078e                	slli	a5,a5,0x3
ffffffc050403844:	f7843703          	ld	a4,-136(s0)
ffffffc050403848:	97ba                	add	a5,a5,a4
ffffffc05040384a:	639c                	ld	a5,0(a5)
ffffffc05040384c:	85be                	mv	a1,a5
ffffffc05040384e:	8536                	mv	a0,a3
ffffffc050403850:	35b020ef          	jal	ra,ffffffc0504063aa <kstrcpy>
ffffffc050403854:	fd842783          	lw	a5,-40(s0)
ffffffc050403858:	0057979b          	slliw	a5,a5,0x5
ffffffc05040385c:	2781                	sext.w	a5,a5
ffffffc05040385e:	86be                	mv	a3,a5
ffffffc050403860:	fd842783          	lw	a5,-40(s0)
ffffffc050403864:	078e                	slli	a5,a5,0x3
ffffffc050403866:	fb043703          	ld	a4,-80(s0)
ffffffc05040386a:	97ba                	add	a5,a5,a4
ffffffc05040386c:	fb843703          	ld	a4,-72(s0)
ffffffc050403870:	9736                	add	a4,a4,a3
ffffffc050403872:	e398                	sd	a4,0(a5)
ffffffc050403874:	fd842783          	lw	a5,-40(s0)
ffffffc050403878:	2785                	addiw	a5,a5,1
ffffffc05040387a:	fcf42c23          	sw	a5,-40(s0)
ffffffc05040387e:	fd842703          	lw	a4,-40(s0)
ffffffc050403882:	fd042783          	lw	a5,-48(s0)
ffffffc050403886:	2701                	sext.w	a4,a4
ffffffc050403888:	2781                	sext.w	a5,a5
ffffffc05040388a:	faf740e3          	blt	a4,a5,ffffffc05040382a <do_exec+0x416>
ffffffc05040388e:	fa043503          	ld	a0,-96(s0)
ffffffc050403892:	f9c42783          	lw	a5,-100(s0)
ffffffc050403896:	0007859b          	sext.w	a1,a5
ffffffc05040389a:	0009c697          	auipc	a3,0x9c
ffffffc05040389e:	92668693          	addi	a3,a3,-1754 # ffffffc05049f1c0 <pcb>
ffffffc0504038a2:	fdc42703          	lw	a4,-36(s0)
ffffffc0504038a6:	87ba                	mv	a5,a4
ffffffc0504038a8:	078a                	slli	a5,a5,0x2
ffffffc0504038aa:	97ba                	add	a5,a5,a4
ffffffc0504038ac:	0796                	slli	a5,a5,0x5
ffffffc0504038ae:	97b6                	add	a5,a5,a3
ffffffc0504038b0:	67dc                	ld	a5,136(a5)
ffffffc0504038b2:	00002697          	auipc	a3,0x2
ffffffc0504038b6:	ffc68693          	addi	a3,a3,-4 # ffffffc0504058ae <alloc_page_helper>
ffffffc0504038ba:	863e                	mv	a2,a5
ffffffc0504038bc:	c37fe0ef          	jal	ra,ffffffc0504024f2 <load_elf>
ffffffc0504038c0:	faa43423          	sd	a0,-88(s0)
ffffffc0504038c4:	0009c697          	auipc	a3,0x9c
ffffffc0504038c8:	8fc68693          	addi	a3,a3,-1796 # ffffffc05049f1c0 <pcb>
ffffffc0504038cc:	fdc42703          	lw	a4,-36(s0)
ffffffc0504038d0:	87ba                	mv	a5,a4
ffffffc0504038d2:	078a                	slli	a5,a5,0x2
ffffffc0504038d4:	97ba                	add	a5,a5,a4
ffffffc0504038d6:	0796                	slli	a5,a5,0x5
ffffffc0504038d8:	97b6                	add	a5,a5,a3
ffffffc0504038da:	6388                	ld	a0,0(a5)
ffffffc0504038dc:	0009c697          	auipc	a3,0x9c
ffffffc0504038e0:	8e468693          	addi	a3,a3,-1820 # ffffffc05049f1c0 <pcb>
ffffffc0504038e4:	fdc42703          	lw	a4,-36(s0)
ffffffc0504038e8:	87ba                	mv	a5,a4
ffffffc0504038ea:	078a                	slli	a5,a5,0x2
ffffffc0504038ec:	97ba                	add	a5,a5,a4
ffffffc0504038ee:	0796                	slli	a5,a5,0x5
ffffffc0504038f0:	97b6                	add	a5,a5,a3
ffffffc0504038f2:	678c                	ld	a1,8(a5)
ffffffc0504038f4:	fdc42703          	lw	a4,-36(s0)
ffffffc0504038f8:	87ba                	mv	a5,a4
ffffffc0504038fa:	078a                	slli	a5,a5,0x2
ffffffc0504038fc:	97ba                	add	a5,a5,a4
ffffffc0504038fe:	0796                	slli	a5,a5,0x5
ffffffc050403900:	873e                	mv	a4,a5
ffffffc050403902:	0009c797          	auipc	a5,0x9c
ffffffc050403906:	8be78793          	addi	a5,a5,-1858 # ffffffc05049f1c0 <pcb>
ffffffc05040390a:	00f70633          	add	a2,a4,a5
ffffffc05040390e:	0009c697          	auipc	a3,0x9c
ffffffc050403912:	8b268693          	addi	a3,a3,-1870 # ffffffc05049f1c0 <pcb>
ffffffc050403916:	fdc42703          	lw	a4,-36(s0)
ffffffc05040391a:	87ba                	mv	a5,a4
ffffffc05040391c:	078a                	slli	a5,a5,0x2
ffffffc05040391e:	97ba                	add	a5,a5,a4
ffffffc050403920:	0796                	slli	a5,a5,0x5
ffffffc050403922:	97b6                	add	a5,a5,a3
ffffffc050403924:	679c                	ld	a5,8(a5)
ffffffc050403926:	fd042703          	lw	a4,-48(s0)
ffffffc05040392a:	86b2                	mv	a3,a2
ffffffc05040392c:	fa843603          	ld	a2,-88(s0)
ffffffc050403930:	dc7fc0ef          	jal	ra,ffffffc0504006f6 <init_pcb_stack>
ffffffc050403934:	fdc42703          	lw	a4,-36(s0)
ffffffc050403938:	87ba                	mv	a5,a4
ffffffc05040393a:	078a                	slli	a5,a5,0x2
ffffffc05040393c:	97ba                	add	a5,a5,a4
ffffffc05040393e:	0796                	slli	a5,a5,0x5
ffffffc050403940:	03078713          	addi	a4,a5,48
ffffffc050403944:	0009c797          	auipc	a5,0x9c
ffffffc050403948:	87c78793          	addi	a5,a5,-1924 # ffffffc05049f1c0 <pcb>
ffffffc05040394c:	97ba                	add	a5,a5,a4
ffffffc05040394e:	07a1                	addi	a5,a5,8
ffffffc050403950:	853e                	mv	a0,a5
ffffffc050403952:	9b3fe0ef          	jal	ra,ffffffc050402304 <init_list_head>
ffffffc050403956:	fdc42703          	lw	a4,-36(s0)
ffffffc05040395a:	87ba                	mv	a5,a4
ffffffc05040395c:	078a                	slli	a5,a5,0x2
ffffffc05040395e:	97ba                	add	a5,a5,a4
ffffffc050403960:	0796                	slli	a5,a5,0x5
ffffffc050403962:	07078713          	addi	a4,a5,112
ffffffc050403966:	0009c797          	auipc	a5,0x9c
ffffffc05040396a:	85a78793          	addi	a5,a5,-1958 # ffffffc05049f1c0 <pcb>
ffffffc05040396e:	97ba                	add	a5,a5,a4
ffffffc050403970:	853e                	mv	a0,a5
ffffffc050403972:	993fe0ef          	jal	ra,ffffffc050402304 <init_list_head>
ffffffc050403976:	0009c697          	auipc	a3,0x9c
ffffffc05040397a:	84a68693          	addi	a3,a3,-1974 # ffffffc05049f1c0 <pcb>
ffffffc05040397e:	fdc42703          	lw	a4,-36(s0)
ffffffc050403982:	87ba                	mv	a5,a4
ffffffc050403984:	078a                	slli	a5,a5,0x2
ffffffc050403986:	97ba                	add	a5,a5,a4
ffffffc050403988:	0796                	slli	a5,a5,0x5
ffffffc05040398a:	97b6                	add	a5,a5,a3
ffffffc05040398c:	4709                	li	a4,2
ffffffc05040398e:	cbb8                	sw	a4,80(a5)
ffffffc050403990:	fdc42703          	lw	a4,-36(s0)
ffffffc050403994:	87ba                	mv	a5,a4
ffffffc050403996:	078a                	slli	a5,a5,0x2
ffffffc050403998:	97ba                	add	a5,a5,a4
ffffffc05040399a:	0796                	slli	a5,a5,0x5
ffffffc05040399c:	02078713          	addi	a4,a5,32
ffffffc0504039a0:	0009c797          	auipc	a5,0x9c
ffffffc0504039a4:	82078793          	addi	a5,a5,-2016 # ffffffc05049f1c0 <pcb>
ffffffc0504039a8:	97ba                	add	a5,a5,a4
ffffffc0504039aa:	07a1                	addi	a5,a5,8
ffffffc0504039ac:	0009b597          	auipc	a1,0x9b
ffffffc0504039b0:	7fc58593          	addi	a1,a1,2044 # ffffffc05049f1a8 <ready_queue>
ffffffc0504039b4:	853e                	mv	a0,a5
ffffffc0504039b6:	975fe0ef          	jal	ra,ffffffc05040232a <list_add>
ffffffc0504039ba:	0009c697          	auipc	a3,0x9c
ffffffc0504039be:	80668693          	addi	a3,a3,-2042 # ffffffc05049f1c0 <pcb>
ffffffc0504039c2:	fdc42703          	lw	a4,-36(s0)
ffffffc0504039c6:	87ba                	mv	a5,a4
ffffffc0504039c8:	078a                	slli	a5,a5,0x2
ffffffc0504039ca:	97ba                	add	a5,a5,a4
ffffffc0504039cc:	0796                	slli	a5,a5,0x5
ffffffc0504039ce:	97b6                	add	a5,a5,a3
ffffffc0504039d0:	47bc                	lw	a5,72(a5)
ffffffc0504039d2:	a025                	j	ffffffc0504039fa <do_exec+0x5e6>
ffffffc0504039d4:	fdc42783          	lw	a5,-36(s0)
ffffffc0504039d8:	2785                	addiw	a5,a5,1
ffffffc0504039da:	fcf42e23          	sw	a5,-36(s0)
ffffffc0504039de:	fdc42783          	lw	a5,-36(s0)
ffffffc0504039e2:	0007871b          	sext.w	a4,a5
ffffffc0504039e6:	47bd                	li	a5,15
ffffffc0504039e8:	aae7dbe3          	bge	a5,a4,ffffffc05040349e <do_exec+0x8a>
ffffffc0504039ec:	00004517          	auipc	a0,0x4
ffffffc0504039f0:	b0c50513          	addi	a0,a0,-1268 # ffffffc0504074f8 <__FUNCTION__.1619+0x2c0>
ffffffc0504039f4:	314030ef          	jal	ra,ffffffc050406d08 <prints>
ffffffc0504039f8:	57fd                	li	a5,-1
ffffffc0504039fa:	853e                	mv	a0,a5
ffffffc0504039fc:	60aa                	ld	ra,136(sp)
ffffffc0504039fe:	640a                	ld	s0,128(sp)
ffffffc050403a00:	74e6                	ld	s1,120(sp)
ffffffc050403a02:	6149                	addi	sp,sp,144
ffffffc050403a04:	8082                	ret

ffffffc050403a06 <do_execshow>:
ffffffc050403a06:	1101                	addi	sp,sp,-32
ffffffc050403a08:	ec06                	sd	ra,24(sp)
ffffffc050403a0a:	e822                	sd	s0,16(sp)
ffffffc050403a0c:	1000                	addi	s0,sp,32
ffffffc050403a0e:	00004517          	auipc	a0,0x4
ffffffc050403a12:	b0a50513          	addi	a0,a0,-1270 # ffffffc050407518 <__FUNCTION__.1619+0x2e0>
ffffffc050403a16:	2f2030ef          	jal	ra,ffffffc050406d08 <prints>
ffffffc050403a1a:	fe042623          	sw	zero,-20(s0)
ffffffc050403a1e:	a80d                	j	ffffffc050403a50 <do_execshow+0x4a>
ffffffc050403a20:	00052697          	auipc	a3,0x52
ffffffc050403a24:	90068693          	addi	a3,a3,-1792 # ffffffc050455320 <elf_files>
ffffffc050403a28:	fec42703          	lw	a4,-20(s0)
ffffffc050403a2c:	87ba                	mv	a5,a4
ffffffc050403a2e:	0786                	slli	a5,a5,0x1
ffffffc050403a30:	97ba                	add	a5,a5,a4
ffffffc050403a32:	078e                	slli	a5,a5,0x3
ffffffc050403a34:	97b6                	add	a5,a5,a3
ffffffc050403a36:	639c                	ld	a5,0(a5)
ffffffc050403a38:	85be                	mv	a1,a5
ffffffc050403a3a:	00004517          	auipc	a0,0x4
ffffffc050403a3e:	aee50513          	addi	a0,a0,-1298 # ffffffc050407528 <__FUNCTION__.1619+0x2f0>
ffffffc050403a42:	2c6030ef          	jal	ra,ffffffc050406d08 <prints>
ffffffc050403a46:	fec42783          	lw	a5,-20(s0)
ffffffc050403a4a:	2785                	addiw	a5,a5,1
ffffffc050403a4c:	fef42623          	sw	a5,-20(s0)
ffffffc050403a50:	fec42783          	lw	a5,-20(s0)
ffffffc050403a54:	0007871b          	sext.w	a4,a5
ffffffc050403a58:	4799                	li	a5,6
ffffffc050403a5a:	fce7d3e3          	bge	a5,a4,ffffffc050403a20 <do_execshow+0x1a>
ffffffc050403a5e:	00004517          	auipc	a0,0x4
ffffffc050403a62:	ad250513          	addi	a0,a0,-1326 # ffffffc050407530 <__FUNCTION__.1619+0x2f8>
ffffffc050403a66:	2a2030ef          	jal	ra,ffffffc050406d08 <prints>
ffffffc050403a6a:	0001                	nop
ffffffc050403a6c:	60e2                	ld	ra,24(sp)
ffffffc050403a6e:	6442                	ld	s0,16(sp)
ffffffc050403a70:	6105                	addi	sp,sp,32
ffffffc050403a72:	8082                	ret

ffffffc050403a74 <copy_thread_gp>:
ffffffc050403a74:	7179                	addi	sp,sp,-48
ffffffc050403a76:	f422                	sd	s0,40(sp)
ffffffc050403a78:	1800                	addi	s0,sp,48
ffffffc050403a7a:	fca43c23          	sd	a0,-40(s0)
ffffffc050403a7e:	fcb43823          	sd	a1,-48(s0)
ffffffc050403a82:	fd843783          	ld	a5,-40(s0)
ffffffc050403a86:	ee078793          	addi	a5,a5,-288
ffffffc050403a8a:	fef43423          	sd	a5,-24(s0)
ffffffc050403a8e:	fd043783          	ld	a5,-48(s0)
ffffffc050403a92:	ee078793          	addi	a5,a5,-288
ffffffc050403a96:	fef43023          	sd	a5,-32(s0)
ffffffc050403a9a:	fe043783          	ld	a5,-32(s0)
ffffffc050403a9e:	6f98                	ld	a4,24(a5)
ffffffc050403aa0:	fe843783          	ld	a5,-24(s0)
ffffffc050403aa4:	ef98                	sd	a4,24(a5)
ffffffc050403aa6:	0001                	nop
ffffffc050403aa8:	7422                	ld	s0,40(sp)
ffffffc050403aaa:	6145                	addi	sp,sp,48
ffffffc050403aac:	8082                	ret

ffffffc050403aae <do_thread_create>:
ffffffc050403aae:	7139                	addi	sp,sp,-64
ffffffc050403ab0:	fc06                	sd	ra,56(sp)
ffffffc050403ab2:	f822                	sd	s0,48(sp)
ffffffc050403ab4:	0080                	addi	s0,sp,64
ffffffc050403ab6:	fca43c23          	sd	a0,-40(s0)
ffffffc050403aba:	fcb43823          	sd	a1,-48(s0)
ffffffc050403abe:	fcc43423          	sd	a2,-56(s0)
ffffffc050403ac2:	80bfc0ef          	jal	ra,ffffffc0504002cc <get_current_cpu_id>
ffffffc050403ac6:	87aa                	mv	a5,a0
ffffffc050403ac8:	c791                	beqz	a5,ffffffc050403ad4 <do_thread_create+0x26>
ffffffc050403aca:	0009c797          	auipc	a5,0x9c
ffffffc050403ace:	0f678793          	addi	a5,a5,246 # ffffffc05049fbc0 <current_running_1>
ffffffc050403ad2:	a029                	j	ffffffc050403adc <do_thread_create+0x2e>
ffffffc050403ad4:	0009b797          	auipc	a5,0x9b
ffffffc050403ad8:	6cc78793          	addi	a5,a5,1740 # ffffffc05049f1a0 <current_running_0>
ffffffc050403adc:	0009b717          	auipc	a4,0x9b
ffffffc050403ae0:	6dc70713          	addi	a4,a4,1756 # ffffffc05049f1b8 <current_running>
ffffffc050403ae4:	e31c                	sd	a5,0(a4)
ffffffc050403ae6:	fe042623          	sw	zero,-20(s0)
ffffffc050403aea:	a189                	j	ffffffc050403f2c <do_thread_create+0x47e>
ffffffc050403aec:	0009b697          	auipc	a3,0x9b
ffffffc050403af0:	6d468693          	addi	a3,a3,1748 # ffffffc05049f1c0 <pcb>
ffffffc050403af4:	fec42703          	lw	a4,-20(s0)
ffffffc050403af8:	87ba                	mv	a5,a4
ffffffc050403afa:	078a                	slli	a5,a5,0x2
ffffffc050403afc:	97ba                	add	a5,a5,a4
ffffffc050403afe:	0796                	slli	a5,a5,0x5
ffffffc050403b00:	97b6                	add	a5,a5,a3
ffffffc050403b02:	4bbc                	lw	a5,80(a5)
ffffffc050403b04:	873e                	mv	a4,a5
ffffffc050403b06:	4791                	li	a5,4
ffffffc050403b08:	40f71d63          	bne	a4,a5,ffffffc050403f22 <do_thread_create+0x474>
ffffffc050403b0c:	0009b697          	auipc	a3,0x9b
ffffffc050403b10:	6b468693          	addi	a3,a3,1716 # ffffffc05049f1c0 <pcb>
ffffffc050403b14:	fec42703          	lw	a4,-20(s0)
ffffffc050403b18:	87ba                	mv	a5,a4
ffffffc050403b1a:	078a                	slli	a5,a5,0x2
ffffffc050403b1c:	97ba                	add	a5,a5,a4
ffffffc050403b1e:	0796                	slli	a5,a5,0x5
ffffffc050403b20:	97b6                	add	a5,a5,a3
ffffffc050403b22:	0007b823          	sd	zero,16(a5)
ffffffc050403b26:	0009b697          	auipc	a3,0x9b
ffffffc050403b2a:	69a68693          	addi	a3,a3,1690 # ffffffc05049f1c0 <pcb>
ffffffc050403b2e:	fec42703          	lw	a4,-20(s0)
ffffffc050403b32:	87ba                	mv	a5,a4
ffffffc050403b34:	078a                	slli	a5,a5,0x2
ffffffc050403b36:	97ba                	add	a5,a5,a4
ffffffc050403b38:	0796                	slli	a5,a5,0x5
ffffffc050403b3a:	97b6                	add	a5,a5,a3
ffffffc050403b3c:	4705                	li	a4,1
ffffffc050403b3e:	c7f8                	sw	a4,76(a5)
ffffffc050403b40:	0009b697          	auipc	a3,0x9b
ffffffc050403b44:	68068693          	addi	a3,a3,1664 # ffffffc05049f1c0 <pcb>
ffffffc050403b48:	fec42703          	lw	a4,-20(s0)
ffffffc050403b4c:	87ba                	mv	a5,a4
ffffffc050403b4e:	078a                	slli	a5,a5,0x2
ffffffc050403b50:	97ba                	add	a5,a5,a4
ffffffc050403b52:	0796                	slli	a5,a5,0x5
ffffffc050403b54:	97b6                	add	a5,a5,a3
ffffffc050403b56:	0407ac23          	sw	zero,88(a5)
ffffffc050403b5a:	0009b697          	auipc	a3,0x9b
ffffffc050403b5e:	66668693          	addi	a3,a3,1638 # ffffffc05049f1c0 <pcb>
ffffffc050403b62:	fec42703          	lw	a4,-20(s0)
ffffffc050403b66:	87ba                	mv	a5,a4
ffffffc050403b68:	078a                	slli	a5,a5,0x2
ffffffc050403b6a:	97ba                	add	a5,a5,a4
ffffffc050403b6c:	0796                	slli	a5,a5,0x5
ffffffc050403b6e:	97b6                	add	a5,a5,a3
ffffffc050403b70:	0407ae23          	sw	zero,92(a5)
ffffffc050403b74:	0009b697          	auipc	a3,0x9b
ffffffc050403b78:	64c68693          	addi	a3,a3,1612 # ffffffc05049f1c0 <pcb>
ffffffc050403b7c:	fec42703          	lw	a4,-20(s0)
ffffffc050403b80:	87ba                	mv	a5,a4
ffffffc050403b82:	078a                	slli	a5,a5,0x2
ffffffc050403b84:	97ba                	add	a5,a5,a4
ffffffc050403b86:	0796                	slli	a5,a5,0x5
ffffffc050403b88:	97b6                	add	a5,a5,a3
ffffffc050403b8a:	0607a023          	sw	zero,96(a5)
ffffffc050403b8e:	0009b697          	auipc	a3,0x9b
ffffffc050403b92:	63268693          	addi	a3,a3,1586 # ffffffc05049f1c0 <pcb>
ffffffc050403b96:	fec42703          	lw	a4,-20(s0)
ffffffc050403b9a:	87ba                	mv	a5,a4
ffffffc050403b9c:	078a                	slli	a5,a5,0x2
ffffffc050403b9e:	97ba                	add	a5,a5,a4
ffffffc050403ba0:	0796                	slli	a5,a5,0x5
ffffffc050403ba2:	97b6                	add	a5,a5,a3
ffffffc050403ba4:	4711                	li	a4,4
ffffffc050403ba6:	d3f8                	sw	a4,100(a5)
ffffffc050403ba8:	3aa000ef          	jal	ra,ffffffc050403f52 <get_ticks>
ffffffc050403bac:	87aa                	mv	a5,a0
ffffffc050403bae:	0007869b          	sext.w	a3,a5
ffffffc050403bb2:	0009b617          	auipc	a2,0x9b
ffffffc050403bb6:	60e60613          	addi	a2,a2,1550 # ffffffc05049f1c0 <pcb>
ffffffc050403bba:	fec42703          	lw	a4,-20(s0)
ffffffc050403bbe:	87ba                	mv	a5,a4
ffffffc050403bc0:	078a                	slli	a5,a5,0x2
ffffffc050403bc2:	97ba                	add	a5,a5,a4
ffffffc050403bc4:	0796                	slli	a5,a5,0x5
ffffffc050403bc6:	97b2                	add	a5,a5,a2
ffffffc050403bc8:	d7b4                	sw	a3,104(a5)
ffffffc050403bca:	0009b697          	auipc	a3,0x9b
ffffffc050403bce:	5f668693          	addi	a3,a3,1526 # ffffffc05049f1c0 <pcb>
ffffffc050403bd2:	fec42703          	lw	a4,-20(s0)
ffffffc050403bd6:	87ba                	mv	a5,a4
ffffffc050403bd8:	078a                	slli	a5,a5,0x2
ffffffc050403bda:	97ba                	add	a5,a5,a4
ffffffc050403bdc:	0796                	slli	a5,a5,0x5
ffffffc050403bde:	97b6                	add	a5,a5,a3
ffffffc050403be0:	4705                	li	a4,1
ffffffc050403be2:	cbf8                	sw	a4,84(a5)
ffffffc050403be4:	0009b797          	auipc	a5,0x9b
ffffffc050403be8:	5d478793          	addi	a5,a5,1492 # ffffffc05049f1b8 <current_running>
ffffffc050403bec:	639c                	ld	a5,0(a5)
ffffffc050403bee:	639c                	ld	a5,0(a5)
ffffffc050403bf0:	67d4                	ld	a3,136(a5)
ffffffc050403bf2:	0009b617          	auipc	a2,0x9b
ffffffc050403bf6:	5ce60613          	addi	a2,a2,1486 # ffffffc05049f1c0 <pcb>
ffffffc050403bfa:	fec42703          	lw	a4,-20(s0)
ffffffc050403bfe:	87ba                	mv	a5,a4
ffffffc050403c00:	078a                	slli	a5,a5,0x2
ffffffc050403c02:	97ba                	add	a5,a5,a4
ffffffc050403c04:	0796                	slli	a5,a5,0x5
ffffffc050403c06:	97b2                	add	a5,a5,a2
ffffffc050403c08:	e7d4                	sd	a3,136(a5)
ffffffc050403c0a:	4505                	li	a0,1
ffffffc050403c0c:	345010ef          	jal	ra,ffffffc050405750 <allocPage>
ffffffc050403c10:	872a                	mv	a4,a0
ffffffc050403c12:	6785                	lui	a5,0x1
ffffffc050403c14:	00f706b3          	add	a3,a4,a5
ffffffc050403c18:	0009b617          	auipc	a2,0x9b
ffffffc050403c1c:	5a860613          	addi	a2,a2,1448 # ffffffc05049f1c0 <pcb>
ffffffc050403c20:	fec42703          	lw	a4,-20(s0)
ffffffc050403c24:	87ba                	mv	a5,a4
ffffffc050403c26:	078a                	slli	a5,a5,0x2
ffffffc050403c28:	97ba                	add	a5,a5,a4
ffffffc050403c2a:	0796                	slli	a5,a5,0x5
ffffffc050403c2c:	97b2                	add	a5,a5,a2
ffffffc050403c2e:	e394                	sd	a3,0(a5)
ffffffc050403c30:	0009b797          	auipc	a5,0x9b
ffffffc050403c34:	58878793          	addi	a5,a5,1416 # ffffffc05049f1b8 <current_running>
ffffffc050403c38:	639c                	ld	a5,0(a5)
ffffffc050403c3a:	639c                	ld	a5,0(a5)
ffffffc050403c3c:	0907a703          	lw	a4,144(a5)
ffffffc050403c40:	2705                	addiw	a4,a4,1
ffffffc050403c42:	2701                	sext.w	a4,a4
ffffffc050403c44:	08e7a823          	sw	a4,144(a5)
ffffffc050403c48:	0009b797          	auipc	a5,0x9b
ffffffc050403c4c:	57078793          	addi	a5,a5,1392 # ffffffc05049f1b8 <current_running>
ffffffc050403c50:	639c                	ld	a5,0(a5)
ffffffc050403c52:	639c                	ld	a5,0(a5)
ffffffc050403c54:	0907a783          	lw	a5,144(a5)
ffffffc050403c58:	00c7979b          	slliw	a5,a5,0xc
ffffffc050403c5c:	2781                	sext.w	a5,a5
ffffffc050403c5e:	873e                	mv	a4,a5
ffffffc050403c60:	000f07b7          	lui	a5,0xf0
ffffffc050403c64:	0785                	addi	a5,a5,1
ffffffc050403c66:	07c2                	slli	a5,a5,0x10
ffffffc050403c68:	00f706b3          	add	a3,a4,a5
ffffffc050403c6c:	0009b617          	auipc	a2,0x9b
ffffffc050403c70:	55460613          	addi	a2,a2,1364 # ffffffc05049f1c0 <pcb>
ffffffc050403c74:	fec42703          	lw	a4,-20(s0)
ffffffc050403c78:	87ba                	mv	a5,a4
ffffffc050403c7a:	078a                	slli	a5,a5,0x2
ffffffc050403c7c:	97ba                	add	a5,a5,a4
ffffffc050403c7e:	0796                	slli	a5,a5,0x5
ffffffc050403c80:	97b2                	add	a5,a5,a2
ffffffc050403c82:	e794                	sd	a3,8(a5)
ffffffc050403c84:	0009b697          	auipc	a3,0x9b
ffffffc050403c88:	53c68693          	addi	a3,a3,1340 # ffffffc05049f1c0 <pcb>
ffffffc050403c8c:	fec42703          	lw	a4,-20(s0)
ffffffc050403c90:	87ba                	mv	a5,a4
ffffffc050403c92:	078a                	slli	a5,a5,0x2
ffffffc050403c94:	97ba                	add	a5,a5,a4
ffffffc050403c96:	0796                	slli	a5,a5,0x5
ffffffc050403c98:	97b6                	add	a5,a5,a3
ffffffc050403c9a:	6798                	ld	a4,8(a5)
ffffffc050403c9c:	77fd                	lui	a5,0xfffff
ffffffc050403c9e:	00f70533          	add	a0,a4,a5
ffffffc050403ca2:	0009b697          	auipc	a3,0x9b
ffffffc050403ca6:	51e68693          	addi	a3,a3,1310 # ffffffc05049f1c0 <pcb>
ffffffc050403caa:	fec42703          	lw	a4,-20(s0)
ffffffc050403cae:	87ba                	mv	a5,a4
ffffffc050403cb0:	078a                	slli	a5,a5,0x2
ffffffc050403cb2:	97ba                	add	a5,a5,a4
ffffffc050403cb4:	0796                	slli	a5,a5,0x5
ffffffc050403cb6:	97b6                	add	a5,a5,a3
ffffffc050403cb8:	67dc                	ld	a5,136(a5)
ffffffc050403cba:	4601                	li	a2,0
ffffffc050403cbc:	85be                	mv	a1,a5
ffffffc050403cbe:	3f1010ef          	jal	ra,ffffffc0504058ae <alloc_page_helper>
ffffffc050403cc2:	0009b697          	auipc	a3,0x9b
ffffffc050403cc6:	4fe68693          	addi	a3,a3,1278 # ffffffc05049f1c0 <pcb>
ffffffc050403cca:	fec42703          	lw	a4,-20(s0)
ffffffc050403cce:	87ba                	mv	a5,a4
ffffffc050403cd0:	078a                	slli	a5,a5,0x2
ffffffc050403cd2:	97ba                	add	a5,a5,a4
ffffffc050403cd4:	0796                	slli	a5,a5,0x5
ffffffc050403cd6:	97b6                	add	a5,a5,a3
ffffffc050403cd8:	6394                	ld	a3,0(a5)
ffffffc050403cda:	0009b617          	auipc	a2,0x9b
ffffffc050403cde:	4e660613          	addi	a2,a2,1254 # ffffffc05049f1c0 <pcb>
ffffffc050403ce2:	fec42703          	lw	a4,-20(s0)
ffffffc050403ce6:	87ba                	mv	a5,a4
ffffffc050403ce8:	078a                	slli	a5,a5,0x2
ffffffc050403cea:	97ba                	add	a5,a5,a4
ffffffc050403cec:	0796                	slli	a5,a5,0x5
ffffffc050403cee:	97b2                	add	a5,a5,a2
ffffffc050403cf0:	ef94                	sd	a3,24(a5)
ffffffc050403cf2:	0009b697          	auipc	a3,0x9b
ffffffc050403cf6:	4ce68693          	addi	a3,a3,1230 # ffffffc05049f1c0 <pcb>
ffffffc050403cfa:	fec42703          	lw	a4,-20(s0)
ffffffc050403cfe:	87ba                	mv	a5,a4
ffffffc050403d00:	078a                	slli	a5,a5,0x2
ffffffc050403d02:	97ba                	add	a5,a5,a4
ffffffc050403d04:	0796                	slli	a5,a5,0x5
ffffffc050403d06:	97b6                	add	a5,a5,a3
ffffffc050403d08:	6794                	ld	a3,8(a5)
ffffffc050403d0a:	0009b617          	auipc	a2,0x9b
ffffffc050403d0e:	4b660613          	addi	a2,a2,1206 # ffffffc05049f1c0 <pcb>
ffffffc050403d12:	fec42703          	lw	a4,-20(s0)
ffffffc050403d16:	87ba                	mv	a5,a4
ffffffc050403d18:	078a                	slli	a5,a5,0x2
ffffffc050403d1a:	97ba                	add	a5,a5,a4
ffffffc050403d1c:	0796                	slli	a5,a5,0x5
ffffffc050403d1e:	97b2                	add	a5,a5,a2
ffffffc050403d20:	f394                	sd	a3,32(a5)
ffffffc050403d22:	0009b697          	auipc	a3,0x9b
ffffffc050403d26:	49e68693          	addi	a3,a3,1182 # ffffffc05049f1c0 <pcb>
ffffffc050403d2a:	fec42703          	lw	a4,-20(s0)
ffffffc050403d2e:	87ba                	mv	a5,a4
ffffffc050403d30:	078a                	slli	a5,a5,0x2
ffffffc050403d32:	97ba                	add	a5,a5,a4
ffffffc050403d34:	0796                	slli	a5,a5,0x5
ffffffc050403d36:	97b6                	add	a5,a5,a3
ffffffc050403d38:	470d                	li	a4,3
ffffffc050403d3a:	08e7a023          	sw	a4,128(a5) # fffffffffffff080 <__BSS_END__+0x3fafb5e0a8>
ffffffc050403d3e:	0009b697          	auipc	a3,0x9b
ffffffc050403d42:	48268693          	addi	a3,a3,1154 # ffffffc05049f1c0 <pcb>
ffffffc050403d46:	fec42703          	lw	a4,-20(s0)
ffffffc050403d4a:	87ba                	mv	a5,a4
ffffffc050403d4c:	078a                	slli	a5,a5,0x2
ffffffc050403d4e:	97ba                	add	a5,a5,a4
ffffffc050403d50:	0796                	slli	a5,a5,0x5
ffffffc050403d52:	97b6                	add	a5,a5,a3
ffffffc050403d54:	0807a823          	sw	zero,144(a5)
ffffffc050403d58:	0009b797          	auipc	a5,0x9b
ffffffc050403d5c:	46078793          	addi	a5,a5,1120 # ffffffc05049f1b8 <current_running>
ffffffc050403d60:	639c                	ld	a5,0(a5)
ffffffc050403d62:	639c                	ld	a5,0(a5)
ffffffc050403d64:	0947a683          	lw	a3,148(a5)
ffffffc050403d68:	0009b617          	auipc	a2,0x9b
ffffffc050403d6c:	45860613          	addi	a2,a2,1112 # ffffffc05049f1c0 <pcb>
ffffffc050403d70:	fec42703          	lw	a4,-20(s0)
ffffffc050403d74:	87ba                	mv	a5,a4
ffffffc050403d76:	078a                	slli	a5,a5,0x2
ffffffc050403d78:	97ba                	add	a5,a5,a4
ffffffc050403d7a:	0796                	slli	a5,a5,0x5
ffffffc050403d7c:	97b2                	add	a5,a5,a2
ffffffc050403d7e:	08d7aa23          	sw	a3,148(a5)
ffffffc050403d82:	0009b797          	auipc	a5,0x9b
ffffffc050403d86:	43678793          	addi	a5,a5,1078 # ffffffc05049f1b8 <current_running>
ffffffc050403d8a:	639c                	ld	a5,0(a5)
ffffffc050403d8c:	6394                	ld	a3,0(a5)
ffffffc050403d8e:	0009b617          	auipc	a2,0x9b
ffffffc050403d92:	43260613          	addi	a2,a2,1074 # ffffffc05049f1c0 <pcb>
ffffffc050403d96:	fec42703          	lw	a4,-20(s0)
ffffffc050403d9a:	87ba                	mv	a5,a4
ffffffc050403d9c:	078a                	slli	a5,a5,0x2
ffffffc050403d9e:	97ba                	add	a5,a5,a4
ffffffc050403da0:	0796                	slli	a5,a5,0x5
ffffffc050403da2:	97b2                	add	a5,a5,a2
ffffffc050403da4:	47bc                	lw	a5,72(a5)
ffffffc050403da6:	08f6aa23          	sw	a5,148(a3)
ffffffc050403daa:	0009b797          	auipc	a5,0x9b
ffffffc050403dae:	40e78793          	addi	a5,a5,1038 # ffffffc05049f1b8 <current_running>
ffffffc050403db2:	639c                	ld	a5,0(a5)
ffffffc050403db4:	639c                	ld	a5,0(a5)
ffffffc050403db6:	47b4                	lw	a3,72(a5)
ffffffc050403db8:	0009b617          	auipc	a2,0x9b
ffffffc050403dbc:	40860613          	addi	a2,a2,1032 # ffffffc05049f1c0 <pcb>
ffffffc050403dc0:	fec42703          	lw	a4,-20(s0)
ffffffc050403dc4:	87ba                	mv	a5,a4
ffffffc050403dc6:	078a                	slli	a5,a5,0x2
ffffffc050403dc8:	97ba                	add	a5,a5,a4
ffffffc050403dca:	0796                	slli	a5,a5,0x5
ffffffc050403dcc:	97b2                	add	a5,a5,a2
ffffffc050403dce:	08d7ac23          	sw	a3,152(a5)
ffffffc050403dd2:	fd043783          	ld	a5,-48(s0)
ffffffc050403dd6:	fef43023          	sd	a5,-32(s0)
ffffffc050403dda:	0009b697          	auipc	a3,0x9b
ffffffc050403dde:	3e668693          	addi	a3,a3,998 # ffffffc05049f1c0 <pcb>
ffffffc050403de2:	fec42703          	lw	a4,-20(s0)
ffffffc050403de6:	87ba                	mv	a5,a4
ffffffc050403de8:	078a                	slli	a5,a5,0x2
ffffffc050403dea:	97ba                	add	a5,a5,a4
ffffffc050403dec:	0796                	slli	a5,a5,0x5
ffffffc050403dee:	97b6                	add	a5,a5,a3
ffffffc050403df0:	6388                	ld	a0,0(a5)
ffffffc050403df2:	0009b697          	auipc	a3,0x9b
ffffffc050403df6:	3ce68693          	addi	a3,a3,974 # ffffffc05049f1c0 <pcb>
ffffffc050403dfa:	fec42703          	lw	a4,-20(s0)
ffffffc050403dfe:	87ba                	mv	a5,a4
ffffffc050403e00:	078a                	slli	a5,a5,0x2
ffffffc050403e02:	97ba                	add	a5,a5,a4
ffffffc050403e04:	0796                	slli	a5,a5,0x5
ffffffc050403e06:	97b6                	add	a5,a5,a3
ffffffc050403e08:	678c                	ld	a1,8(a5)
ffffffc050403e0a:	fec42703          	lw	a4,-20(s0)
ffffffc050403e0e:	87ba                	mv	a5,a4
ffffffc050403e10:	078a                	slli	a5,a5,0x2
ffffffc050403e12:	97ba                	add	a5,a5,a4
ffffffc050403e14:	0796                	slli	a5,a5,0x5
ffffffc050403e16:	873e                	mv	a4,a5
ffffffc050403e18:	0009b797          	auipc	a5,0x9b
ffffffc050403e1c:	3a878793          	addi	a5,a5,936 # ffffffc05049f1c0 <pcb>
ffffffc050403e20:	00f706b3          	add	a3,a4,a5
ffffffc050403e24:	fc843783          	ld	a5,-56(s0)
ffffffc050403e28:	0007871b          	sext.w	a4,a5
ffffffc050403e2c:	4781                	li	a5,0
ffffffc050403e2e:	fe043603          	ld	a2,-32(s0)
ffffffc050403e32:	8c5fc0ef          	jal	ra,ffffffc0504006f6 <init_pcb_stack>
ffffffc050403e36:	0009b697          	auipc	a3,0x9b
ffffffc050403e3a:	38a68693          	addi	a3,a3,906 # ffffffc05049f1c0 <pcb>
ffffffc050403e3e:	fec42703          	lw	a4,-20(s0)
ffffffc050403e42:	87ba                	mv	a5,a4
ffffffc050403e44:	078a                	slli	a5,a5,0x2
ffffffc050403e46:	97ba                	add	a5,a5,a4
ffffffc050403e48:	0796                	slli	a5,a5,0x5
ffffffc050403e4a:	97b6                	add	a5,a5,a3
ffffffc050403e4c:	6f98                	ld	a4,24(a5)
ffffffc050403e4e:	0009b797          	auipc	a5,0x9b
ffffffc050403e52:	36a78793          	addi	a5,a5,874 # ffffffc05049f1b8 <current_running>
ffffffc050403e56:	639c                	ld	a5,0(a5)
ffffffc050403e58:	639c                	ld	a5,0(a5)
ffffffc050403e5a:	6f9c                	ld	a5,24(a5)
ffffffc050403e5c:	85be                	mv	a1,a5
ffffffc050403e5e:	853a                	mv	a0,a4
ffffffc050403e60:	c15ff0ef          	jal	ra,ffffffc050403a74 <copy_thread_gp>
ffffffc050403e64:	fec42703          	lw	a4,-20(s0)
ffffffc050403e68:	87ba                	mv	a5,a4
ffffffc050403e6a:	078a                	slli	a5,a5,0x2
ffffffc050403e6c:	97ba                	add	a5,a5,a4
ffffffc050403e6e:	0796                	slli	a5,a5,0x5
ffffffc050403e70:	03078713          	addi	a4,a5,48
ffffffc050403e74:	0009b797          	auipc	a5,0x9b
ffffffc050403e78:	34c78793          	addi	a5,a5,844 # ffffffc05049f1c0 <pcb>
ffffffc050403e7c:	97ba                	add	a5,a5,a4
ffffffc050403e7e:	07a1                	addi	a5,a5,8
ffffffc050403e80:	853e                	mv	a0,a5
ffffffc050403e82:	c82fe0ef          	jal	ra,ffffffc050402304 <init_list_head>
ffffffc050403e86:	fec42703          	lw	a4,-20(s0)
ffffffc050403e8a:	87ba                	mv	a5,a4
ffffffc050403e8c:	078a                	slli	a5,a5,0x2
ffffffc050403e8e:	97ba                	add	a5,a5,a4
ffffffc050403e90:	0796                	slli	a5,a5,0x5
ffffffc050403e92:	07078713          	addi	a4,a5,112
ffffffc050403e96:	0009b797          	auipc	a5,0x9b
ffffffc050403e9a:	32a78793          	addi	a5,a5,810 # ffffffc05049f1c0 <pcb>
ffffffc050403e9e:	97ba                	add	a5,a5,a4
ffffffc050403ea0:	853e                	mv	a0,a5
ffffffc050403ea2:	c62fe0ef          	jal	ra,ffffffc050402304 <init_list_head>
ffffffc050403ea6:	0009b697          	auipc	a3,0x9b
ffffffc050403eaa:	31a68693          	addi	a3,a3,794 # ffffffc05049f1c0 <pcb>
ffffffc050403eae:	fec42703          	lw	a4,-20(s0)
ffffffc050403eb2:	87ba                	mv	a5,a4
ffffffc050403eb4:	078a                	slli	a5,a5,0x2
ffffffc050403eb6:	97ba                	add	a5,a5,a4
ffffffc050403eb8:	0796                	slli	a5,a5,0x5
ffffffc050403eba:	97b6                	add	a5,a5,a3
ffffffc050403ebc:	4709                	li	a4,2
ffffffc050403ebe:	cbb8                	sw	a4,80(a5)
ffffffc050403ec0:	fec42703          	lw	a4,-20(s0)
ffffffc050403ec4:	87ba                	mv	a5,a4
ffffffc050403ec6:	078a                	slli	a5,a5,0x2
ffffffc050403ec8:	97ba                	add	a5,a5,a4
ffffffc050403eca:	0796                	slli	a5,a5,0x5
ffffffc050403ecc:	02078713          	addi	a4,a5,32
ffffffc050403ed0:	0009b797          	auipc	a5,0x9b
ffffffc050403ed4:	2f078793          	addi	a5,a5,752 # ffffffc05049f1c0 <pcb>
ffffffc050403ed8:	97ba                	add	a5,a5,a4
ffffffc050403eda:	07a1                	addi	a5,a5,8
ffffffc050403edc:	0009b597          	auipc	a1,0x9b
ffffffc050403ee0:	2cc58593          	addi	a1,a1,716 # ffffffc05049f1a8 <ready_queue>
ffffffc050403ee4:	853e                	mv	a0,a5
ffffffc050403ee6:	c44fe0ef          	jal	ra,ffffffc05040232a <list_add>
ffffffc050403eea:	0009b697          	auipc	a3,0x9b
ffffffc050403eee:	2d668693          	addi	a3,a3,726 # ffffffc05049f1c0 <pcb>
ffffffc050403ef2:	fec42703          	lw	a4,-20(s0)
ffffffc050403ef6:	87ba                	mv	a5,a4
ffffffc050403ef8:	078a                	slli	a5,a5,0x2
ffffffc050403efa:	97ba                	add	a5,a5,a4
ffffffc050403efc:	0796                	slli	a5,a5,0x5
ffffffc050403efe:	97b6                	add	a5,a5,a3
ffffffc050403f00:	47b8                	lw	a4,72(a5)
ffffffc050403f02:	fd843783          	ld	a5,-40(s0)
ffffffc050403f06:	c398                	sw	a4,0(a5)
ffffffc050403f08:	0009b697          	auipc	a3,0x9b
ffffffc050403f0c:	2b868693          	addi	a3,a3,696 # ffffffc05049f1c0 <pcb>
ffffffc050403f10:	fec42703          	lw	a4,-20(s0)
ffffffc050403f14:	87ba                	mv	a5,a4
ffffffc050403f16:	078a                	slli	a5,a5,0x2
ffffffc050403f18:	97ba                	add	a5,a5,a4
ffffffc050403f1a:	0796                	slli	a5,a5,0x5
ffffffc050403f1c:	97b6                	add	a5,a5,a3
ffffffc050403f1e:	47bc                	lw	a5,72(a5)
ffffffc050403f20:	a025                	j	ffffffc050403f48 <do_thread_create+0x49a>
ffffffc050403f22:	fec42783          	lw	a5,-20(s0)
ffffffc050403f26:	2785                	addiw	a5,a5,1
ffffffc050403f28:	fef42623          	sw	a5,-20(s0)
ffffffc050403f2c:	fec42783          	lw	a5,-20(s0)
ffffffc050403f30:	0007871b          	sext.w	a4,a5
ffffffc050403f34:	47bd                	li	a5,15
ffffffc050403f36:	bae7dbe3          	bge	a5,a4,ffffffc050403aec <do_thread_create+0x3e>
ffffffc050403f3a:	00003517          	auipc	a0,0x3
ffffffc050403f3e:	5fe50513          	addi	a0,a0,1534 # ffffffc050407538 <__FUNCTION__.1619+0x300>
ffffffc050403f42:	5c7020ef          	jal	ra,ffffffc050406d08 <prints>
ffffffc050403f46:	57fd                	li	a5,-1
ffffffc050403f48:	853e                	mv	a0,a5
ffffffc050403f4a:	70e2                	ld	ra,56(sp)
ffffffc050403f4c:	7442                	ld	s0,48(sp)
ffffffc050403f4e:	6121                	addi	sp,sp,64
ffffffc050403f50:	8082                	ret

ffffffc050403f52 <get_ticks>:
ffffffc050403f52:	1141                	addi	sp,sp,-16
ffffffc050403f54:	e422                	sd	s0,8(sp)
ffffffc050403f56:	0800                	addi	s0,sp,16
ffffffc050403f58:	c0102773          	rdtime	a4
ffffffc050403f5c:	84018793          	addi	a5,gp,-1984 # ffffffc050455408 <_edata>
ffffffc050403f60:	e398                	sd	a4,0(a5)
ffffffc050403f62:	84018793          	addi	a5,gp,-1984 # ffffffc050455408 <_edata>
ffffffc050403f66:	639c                	ld	a5,0(a5)
ffffffc050403f68:	853e                	mv	a0,a5
ffffffc050403f6a:	6422                	ld	s0,8(sp)
ffffffc050403f6c:	0141                	addi	sp,sp,16
ffffffc050403f6e:	8082                	ret

ffffffc050403f70 <get_timer>:
ffffffc050403f70:	1141                	addi	sp,sp,-16
ffffffc050403f72:	e406                	sd	ra,8(sp)
ffffffc050403f74:	e022                	sd	s0,0(sp)
ffffffc050403f76:	0800                	addi	s0,sp,16
ffffffc050403f78:	fdbff0ef          	jal	ra,ffffffc050403f52 <get_ticks>
ffffffc050403f7c:	872a                	mv	a4,a0
ffffffc050403f7e:	84818793          	addi	a5,gp,-1976 # ffffffc050455410 <time_base>
ffffffc050403f82:	439c                	lw	a5,0(a5)
ffffffc050403f84:	1782                	slli	a5,a5,0x20
ffffffc050403f86:	9381                	srli	a5,a5,0x20
ffffffc050403f88:	02f757b3          	divu	a5,a4,a5
ffffffc050403f8c:	853e                	mv	a0,a5
ffffffc050403f8e:	60a2                	ld	ra,8(sp)
ffffffc050403f90:	6402                	ld	s0,0(sp)
ffffffc050403f92:	0141                	addi	sp,sp,16
ffffffc050403f94:	8082                	ret

ffffffc050403f96 <get_time_base>:
ffffffc050403f96:	1141                	addi	sp,sp,-16
ffffffc050403f98:	e422                	sd	s0,8(sp)
ffffffc050403f9a:	0800                	addi	s0,sp,16
ffffffc050403f9c:	84818793          	addi	a5,gp,-1976 # ffffffc050455410 <time_base>
ffffffc050403fa0:	439c                	lw	a5,0(a5)
ffffffc050403fa2:	1782                	slli	a5,a5,0x20
ffffffc050403fa4:	9381                	srli	a5,a5,0x20
ffffffc050403fa6:	853e                	mv	a0,a5
ffffffc050403fa8:	6422                	ld	s0,8(sp)
ffffffc050403faa:	0141                	addi	sp,sp,16
ffffffc050403fac:	8082                	ret

ffffffc050403fae <latency>:
ffffffc050403fae:	7179                	addi	sp,sp,-48
ffffffc050403fb0:	f406                	sd	ra,40(sp)
ffffffc050403fb2:	f022                	sd	s0,32(sp)
ffffffc050403fb4:	1800                	addi	s0,sp,48
ffffffc050403fb6:	fca43c23          	sd	a0,-40(s0)
ffffffc050403fba:	fb7ff0ef          	jal	ra,ffffffc050403f70 <get_timer>
ffffffc050403fbe:	fea43423          	sd	a0,-24(s0)
ffffffc050403fc2:	0001                	nop
ffffffc050403fc4:	fadff0ef          	jal	ra,ffffffc050403f70 <get_timer>
ffffffc050403fc8:	872a                	mv	a4,a0
ffffffc050403fca:	fe843783          	ld	a5,-24(s0)
ffffffc050403fce:	40f707b3          	sub	a5,a4,a5
ffffffc050403fd2:	fd843703          	ld	a4,-40(s0)
ffffffc050403fd6:	fee7e7e3          	bltu	a5,a4,ffffffc050403fc4 <latency+0x16>
ffffffc050403fda:	0001                	nop
ffffffc050403fdc:	70a2                	ld	ra,40(sp)
ffffffc050403fde:	7402                	ld	s0,32(sp)
ffffffc050403fe0:	6145                	addi	sp,sp,48
ffffffc050403fe2:	8082                	ret

ffffffc050403fe4 <timer_check>:
ffffffc050403fe4:	1101                	addi	sp,sp,-32
ffffffc050403fe6:	ec06                	sd	ra,24(sp)
ffffffc050403fe8:	e822                	sd	s0,16(sp)
ffffffc050403fea:	1000                	addi	s0,sp,32
ffffffc050403fec:	0009c797          	auipc	a5,0x9c
ffffffc050403ff0:	bdc78793          	addi	a5,a5,-1060 # ffffffc05049fbc8 <sleep_queue>
ffffffc050403ff4:	fef43423          	sd	a5,-24(s0)
ffffffc050403ff8:	fe843783          	ld	a5,-24(s0)
ffffffc050403ffc:	6398                	ld	a4,0(a5)
ffffffc050403ffe:	0009c797          	auipc	a5,0x9c
ffffffc050404002:	bca78793          	addi	a5,a5,-1078 # ffffffc05049fbc8 <sleep_queue>
ffffffc050404006:	04f70d63          	beq	a4,a5,ffffffc050404060 <timer_check+0x7c>
ffffffc05040400a:	fe843783          	ld	a5,-24(s0)
ffffffc05040400e:	639c                	ld	a5,0(a5)
ffffffc050404010:	fef43423          	sd	a5,-24(s0)
ffffffc050404014:	a82d                	j	ffffffc05040404e <timer_check+0x6a>
ffffffc050404016:	fe843783          	ld	a5,-24(s0)
ffffffc05040401a:	639c                	ld	a5,0(a5)
ffffffc05040401c:	fef43423          	sd	a5,-24(s0)
ffffffc050404020:	f33ff0ef          	jal	ra,ffffffc050403f52 <get_ticks>
ffffffc050404024:	87aa                	mv	a5,a0
ffffffc050404026:	fef43023          	sd	a5,-32(s0)
ffffffc05040402a:	fe843783          	ld	a5,-24(s0)
ffffffc05040402e:	679c                	ld	a5,8(a5)
ffffffc050404030:	fd878793          	addi	a5,a5,-40
ffffffc050404034:	53bc                	lw	a5,96(a5)
ffffffc050404036:	1782                	slli	a5,a5,0x20
ffffffc050404038:	9381                	srli	a5,a5,0x20
ffffffc05040403a:	fe043703          	ld	a4,-32(s0)
ffffffc05040403e:	00f74863          	blt	a4,a5,ffffffc05040404e <timer_check+0x6a>
ffffffc050404042:	fe843783          	ld	a5,-24(s0)
ffffffc050404046:	679c                	ld	a5,8(a5)
ffffffc050404048:	853e                	mv	a0,a5
ffffffc05040404a:	ab3fe0ef          	jal	ra,ffffffc050402afc <do_unblock>
ffffffc05040404e:	fe843703          	ld	a4,-24(s0)
ffffffc050404052:	0009c797          	auipc	a5,0x9c
ffffffc050404056:	b7678793          	addi	a5,a5,-1162 # ffffffc05049fbc8 <sleep_queue>
ffffffc05040405a:	faf71ee3          	bne	a4,a5,ffffffc050404016 <timer_check+0x32>
ffffffc05040405e:	a011                	j	ffffffc050404062 <timer_check+0x7e>
ffffffc050404060:	0001                	nop
ffffffc050404062:	60e2                	ld	ra,24(sp)
ffffffc050404064:	6442                	ld	s0,16(sp)
ffffffc050404066:	6105                	addi	sp,sp,32
ffffffc050404068:	8082                	ret

ffffffc05040406a <do_getwalltime>:
ffffffc05040406a:	1101                	addi	sp,sp,-32
ffffffc05040406c:	ec06                	sd	ra,24(sp)
ffffffc05040406e:	e822                	sd	s0,16(sp)
ffffffc050404070:	1000                	addi	s0,sp,32
ffffffc050404072:	fea43423          	sd	a0,-24(s0)
ffffffc050404076:	eddff0ef          	jal	ra,ffffffc050403f52 <get_ticks>
ffffffc05040407a:	87aa                	mv	a5,a0
ffffffc05040407c:	0007871b          	sext.w	a4,a5
ffffffc050404080:	fe843783          	ld	a5,-24(s0)
ffffffc050404084:	c398                	sw	a4,0(a5)
ffffffc050404086:	84818793          	addi	a5,gp,-1976 # ffffffc050455410 <time_base>
ffffffc05040408a:	439c                	lw	a5,0(a5)
ffffffc05040408c:	853e                	mv	a0,a5
ffffffc05040408e:	60e2                	ld	ra,24(sp)
ffffffc050404090:	6442                	ld	s0,16(sp)
ffffffc050404092:	6105                	addi	sp,sp,32
ffffffc050404094:	8082                	ret

ffffffc050404096 <atomic_swap>:
ffffffc050404096:	7179                	addi	sp,sp,-48
ffffffc050404098:	f422                	sd	s0,40(sp)
ffffffc05040409a:	1800                	addi	s0,sp,48
ffffffc05040409c:	87aa                	mv	a5,a0
ffffffc05040409e:	fcb43823          	sd	a1,-48(s0)
ffffffc0504040a2:	fcf42e23          	sw	a5,-36(s0)
ffffffc0504040a6:	fd043783          	ld	a5,-48(s0)
ffffffc0504040aa:	fdc42703          	lw	a4,-36(s0)
ffffffc0504040ae:	0ee7a72f          	amoswap.w.aqrl	a4,a4,(a5)
ffffffc0504040b2:	fee42623          	sw	a4,-20(s0)
ffffffc0504040b6:	fec42783          	lw	a5,-20(s0)
ffffffc0504040ba:	853e                	mv	a0,a5
ffffffc0504040bc:	7422                	ld	s0,40(sp)
ffffffc0504040be:	6145                	addi	sp,sp,48
ffffffc0504040c0:	8082                	ret

ffffffc0504040c2 <init_list_head>:
ffffffc0504040c2:	1101                	addi	sp,sp,-32
ffffffc0504040c4:	ec22                	sd	s0,24(sp)
ffffffc0504040c6:	1000                	addi	s0,sp,32
ffffffc0504040c8:	fea43423          	sd	a0,-24(s0)
ffffffc0504040cc:	fe843783          	ld	a5,-24(s0)
ffffffc0504040d0:	fe843703          	ld	a4,-24(s0)
ffffffc0504040d4:	e398                	sd	a4,0(a5)
ffffffc0504040d6:	fe843783          	ld	a5,-24(s0)
ffffffc0504040da:	fe843703          	ld	a4,-24(s0)
ffffffc0504040de:	e798                	sd	a4,8(a5)
ffffffc0504040e0:	0001                	nop
ffffffc0504040e2:	6462                	ld	s0,24(sp)
ffffffc0504040e4:	6105                	addi	sp,sp,32
ffffffc0504040e6:	8082                	ret

ffffffc0504040e8 <do_smp_init>:
ffffffc0504040e8:	1101                	addi	sp,sp,-32
ffffffc0504040ea:	ec06                	sd	ra,24(sp)
ffffffc0504040ec:	e822                	sd	s0,16(sp)
ffffffc0504040ee:	1000                	addi	s0,sp,32
ffffffc0504040f0:	fea43423          	sd	a0,-24(s0)
ffffffc0504040f4:	87ae                	mv	a5,a1
ffffffc0504040f6:	fef42223          	sw	a5,-28(s0)
ffffffc0504040fa:	fe843783          	ld	a5,-24(s0)
ffffffc0504040fe:	fe442703          	lw	a4,-28(s0)
ffffffc050404102:	c398                	sw	a4,0(a5)
ffffffc050404104:	fe843783          	ld	a5,-24(s0)
ffffffc050404108:	07a1                	addi	a5,a5,8
ffffffc05040410a:	853e                	mv	a0,a5
ffffffc05040410c:	fb7ff0ef          	jal	ra,ffffffc0504040c2 <init_list_head>
ffffffc050404110:	0001                	nop
ffffffc050404112:	60e2                	ld	ra,24(sp)
ffffffc050404114:	6442                	ld	s0,16(sp)
ffffffc050404116:	6105                	addi	sp,sp,32
ffffffc050404118:	8082                	ret

ffffffc05040411a <do_smp_down>:
ffffffc05040411a:	7179                	addi	sp,sp,-48
ffffffc05040411c:	f406                	sd	ra,40(sp)
ffffffc05040411e:	f022                	sd	s0,32(sp)
ffffffc050404120:	1800                	addi	s0,sp,48
ffffffc050404122:	fca43c23          	sd	a0,-40(s0)
ffffffc050404126:	9a6fc0ef          	jal	ra,ffffffc0504002cc <get_current_cpu_id>
ffffffc05040412a:	87aa                	mv	a5,a0
ffffffc05040412c:	c791                	beqz	a5,ffffffc050404138 <do_smp_down+0x1e>
ffffffc05040412e:	0009c797          	auipc	a5,0x9c
ffffffc050404132:	a9278793          	addi	a5,a5,-1390 # ffffffc05049fbc0 <current_running_1>
ffffffc050404136:	a029                	j	ffffffc050404140 <do_smp_down+0x26>
ffffffc050404138:	0009b797          	auipc	a5,0x9b
ffffffc05040413c:	06878793          	addi	a5,a5,104 # ffffffc05049f1a0 <current_running_0>
ffffffc050404140:	0009b717          	auipc	a4,0x9b
ffffffc050404144:	07870713          	addi	a4,a4,120 # ffffffc05049f1b8 <current_running>
ffffffc050404148:	e31c                	sd	a5,0(a4)
ffffffc05040414a:	fe042623          	sw	zero,-20(s0)
ffffffc05040414e:	a02d                	j	ffffffc050404178 <do_smp_down+0x5e>
ffffffc050404150:	fec42783          	lw	a5,-20(s0)
ffffffc050404154:	2785                	addiw	a5,a5,1
ffffffc050404156:	fef42623          	sw	a5,-20(s0)
ffffffc05040415a:	0009b797          	auipc	a5,0x9b
ffffffc05040415e:	05e78793          	addi	a5,a5,94 # ffffffc05049f1b8 <current_running>
ffffffc050404162:	639c                	ld	a5,0(a5)
ffffffc050404164:	639c                	ld	a5,0(a5)
ffffffc050404166:	02878713          	addi	a4,a5,40
ffffffc05040416a:	fd843783          	ld	a5,-40(s0)
ffffffc05040416e:	07a1                	addi	a5,a5,8
ffffffc050404170:	85be                	mv	a1,a5
ffffffc050404172:	853a                	mv	a0,a4
ffffffc050404174:	943fe0ef          	jal	ra,ffffffc050402ab6 <do_block>
ffffffc050404178:	fd843783          	ld	a5,-40(s0)
ffffffc05040417c:	439c                	lw	a5,0(a5)
ffffffc05040417e:	dbe9                	beqz	a5,ffffffc050404150 <do_smp_down+0x36>
ffffffc050404180:	fd843783          	ld	a5,-40(s0)
ffffffc050404184:	439c                	lw	a5,0(a5)
ffffffc050404186:	37fd                	addiw	a5,a5,-1
ffffffc050404188:	0007871b          	sext.w	a4,a5
ffffffc05040418c:	fd843783          	ld	a5,-40(s0)
ffffffc050404190:	c398                	sw	a4,0(a5)
ffffffc050404192:	fec42783          	lw	a5,-20(s0)
ffffffc050404196:	853e                	mv	a0,a5
ffffffc050404198:	70a2                	ld	ra,40(sp)
ffffffc05040419a:	7402                	ld	s0,32(sp)
ffffffc05040419c:	6145                	addi	sp,sp,48
ffffffc05040419e:	8082                	ret

ffffffc0504041a0 <do_smp_up>:
ffffffc0504041a0:	7179                	addi	sp,sp,-48
ffffffc0504041a2:	f406                	sd	ra,40(sp)
ffffffc0504041a4:	f022                	sd	s0,32(sp)
ffffffc0504041a6:	1800                	addi	s0,sp,48
ffffffc0504041a8:	fca43c23          	sd	a0,-40(s0)
ffffffc0504041ac:	fe042623          	sw	zero,-20(s0)
ffffffc0504041b0:	fd843783          	ld	a5,-40(s0)
ffffffc0504041b4:	6b98                	ld	a4,16(a5)
ffffffc0504041b6:	fd843783          	ld	a5,-40(s0)
ffffffc0504041ba:	07a1                	addi	a5,a5,8
ffffffc0504041bc:	00f70d63          	beq	a4,a5,ffffffc0504041d6 <do_smp_up+0x36>
ffffffc0504041c0:	fec42783          	lw	a5,-20(s0)
ffffffc0504041c4:	2785                	addiw	a5,a5,1
ffffffc0504041c6:	fef42623          	sw	a5,-20(s0)
ffffffc0504041ca:	fd843783          	ld	a5,-40(s0)
ffffffc0504041ce:	6b9c                	ld	a5,16(a5)
ffffffc0504041d0:	853e                	mv	a0,a5
ffffffc0504041d2:	92bfe0ef          	jal	ra,ffffffc050402afc <do_unblock>
ffffffc0504041d6:	fd843783          	ld	a5,-40(s0)
ffffffc0504041da:	439c                	lw	a5,0(a5)
ffffffc0504041dc:	2785                	addiw	a5,a5,1
ffffffc0504041de:	0007871b          	sext.w	a4,a5
ffffffc0504041e2:	fd843783          	ld	a5,-40(s0)
ffffffc0504041e6:	c398                	sw	a4,0(a5)
ffffffc0504041e8:	fec42783          	lw	a5,-20(s0)
ffffffc0504041ec:	853e                	mv	a0,a5
ffffffc0504041ee:	70a2                	ld	ra,40(sp)
ffffffc0504041f0:	7402                	ld	s0,32(sp)
ffffffc0504041f2:	6145                	addi	sp,sp,48
ffffffc0504041f4:	8082                	ret

ffffffc0504041f6 <smp_get>:
ffffffc0504041f6:	7179                	addi	sp,sp,-48
ffffffc0504041f8:	f406                	sd	ra,40(sp)
ffffffc0504041fa:	f022                	sd	s0,32(sp)
ffffffc0504041fc:	1800                	addi	s0,sp,48
ffffffc0504041fe:	87aa                	mv	a5,a0
ffffffc050404200:	872e                	mv	a4,a1
ffffffc050404202:	fcf42e23          	sw	a5,-36(s0)
ffffffc050404206:	87ba                	mv	a5,a4
ffffffc050404208:	fcf42c23          	sw	a5,-40(s0)
ffffffc05040420c:	4785                	li	a5,1
ffffffc05040420e:	fef42623          	sw	a5,-20(s0)
ffffffc050404212:	a8b1                	j	ffffffc05040426e <smp_get+0x78>
ffffffc050404214:	0009c717          	auipc	a4,0x9c
ffffffc050404218:	bc470713          	addi	a4,a4,-1084 # ffffffc05049fdd8 <smp_array>
ffffffc05040421c:	fec42783          	lw	a5,-20(s0)
ffffffc050404220:	0796                	slli	a5,a5,0x5
ffffffc050404222:	97ba                	add	a5,a5,a4
ffffffc050404224:	439c                	lw	a5,0(a5)
ffffffc050404226:	ef9d                	bnez	a5,ffffffc050404264 <smp_get+0x6e>
ffffffc050404228:	0009c717          	auipc	a4,0x9c
ffffffc05040422c:	bb070713          	addi	a4,a4,-1104 # ffffffc05049fdd8 <smp_array>
ffffffc050404230:	fec42783          	lw	a5,-20(s0)
ffffffc050404234:	0796                	slli	a5,a5,0x5
ffffffc050404236:	97ba                	add	a5,a5,a4
ffffffc050404238:	fdc42703          	lw	a4,-36(s0)
ffffffc05040423c:	c398                	sw	a4,0(a5)
ffffffc05040423e:	fec42783          	lw	a5,-20(s0)
ffffffc050404242:	00579713          	slli	a4,a5,0x5
ffffffc050404246:	0009c797          	auipc	a5,0x9c
ffffffc05040424a:	b9278793          	addi	a5,a5,-1134 # ffffffc05049fdd8 <smp_array>
ffffffc05040424e:	97ba                	add	a5,a5,a4
ffffffc050404250:	07a1                	addi	a5,a5,8
ffffffc050404252:	fd842703          	lw	a4,-40(s0)
ffffffc050404256:	85ba                	mv	a1,a4
ffffffc050404258:	853e                	mv	a0,a5
ffffffc05040425a:	e8fff0ef          	jal	ra,ffffffc0504040e8 <do_smp_init>
ffffffc05040425e:	fec42783          	lw	a5,-20(s0)
ffffffc050404262:	a025                	j	ffffffc05040428a <smp_get+0x94>
ffffffc050404264:	fec42783          	lw	a5,-20(s0)
ffffffc050404268:	2785                	addiw	a5,a5,1
ffffffc05040426a:	fef42623          	sw	a5,-20(s0)
ffffffc05040426e:	fec42783          	lw	a5,-20(s0)
ffffffc050404272:	0007871b          	sext.w	a4,a5
ffffffc050404276:	47bd                	li	a5,15
ffffffc050404278:	f8e7dee3          	bge	a5,a4,ffffffc050404214 <smp_get+0x1e>
ffffffc05040427c:	00003517          	auipc	a0,0x3
ffffffc050404280:	2e450513          	addi	a0,a0,740 # ffffffc050407560 <__FUNCTION__.1619+0x328>
ffffffc050404284:	1fb020ef          	jal	ra,ffffffc050406c7e <printk>
ffffffc050404288:	4781                	li	a5,0
ffffffc05040428a:	853e                	mv	a0,a5
ffffffc05040428c:	70a2                	ld	ra,40(sp)
ffffffc05040428e:	7402                	ld	s0,32(sp)
ffffffc050404290:	6145                	addi	sp,sp,48
ffffffc050404292:	8082                	ret

ffffffc050404294 <smp_down>:
ffffffc050404294:	1101                	addi	sp,sp,-32
ffffffc050404296:	ec06                	sd	ra,24(sp)
ffffffc050404298:	e822                	sd	s0,16(sp)
ffffffc05040429a:	1000                	addi	s0,sp,32
ffffffc05040429c:	87aa                	mv	a5,a0
ffffffc05040429e:	fef42623          	sw	a5,-20(s0)
ffffffc0504042a2:	fec42783          	lw	a5,-20(s0)
ffffffc0504042a6:	2781                	sext.w	a5,a5
ffffffc0504042a8:	02f05363          	blez	a5,ffffffc0504042ce <smp_down+0x3a>
ffffffc0504042ac:	fec42783          	lw	a5,-20(s0)
ffffffc0504042b0:	0007871b          	sext.w	a4,a5
ffffffc0504042b4:	47bd                	li	a5,15
ffffffc0504042b6:	00e7cc63          	blt	a5,a4,ffffffc0504042ce <smp_down+0x3a>
ffffffc0504042ba:	0009c717          	auipc	a4,0x9c
ffffffc0504042be:	b1e70713          	addi	a4,a4,-1250 # ffffffc05049fdd8 <smp_array>
ffffffc0504042c2:	fec42783          	lw	a5,-20(s0)
ffffffc0504042c6:	0796                	slli	a5,a5,0x5
ffffffc0504042c8:	97ba                	add	a5,a5,a4
ffffffc0504042ca:	439c                	lw	a5,0(a5)
ffffffc0504042cc:	eb89                	bnez	a5,ffffffc0504042de <smp_down+0x4a>
ffffffc0504042ce:	00003517          	auipc	a0,0x3
ffffffc0504042d2:	2c250513          	addi	a0,a0,706 # ffffffc050407590 <__FUNCTION__.1619+0x358>
ffffffc0504042d6:	1a9020ef          	jal	ra,ffffffc050406c7e <printk>
ffffffc0504042da:	4781                	li	a5,0
ffffffc0504042dc:	a839                	j	ffffffc0504042fa <smp_down+0x66>
ffffffc0504042de:	fec42783          	lw	a5,-20(s0)
ffffffc0504042e2:	00579713          	slli	a4,a5,0x5
ffffffc0504042e6:	0009c797          	auipc	a5,0x9c
ffffffc0504042ea:	af278793          	addi	a5,a5,-1294 # ffffffc05049fdd8 <smp_array>
ffffffc0504042ee:	97ba                	add	a5,a5,a4
ffffffc0504042f0:	07a1                	addi	a5,a5,8
ffffffc0504042f2:	853e                	mv	a0,a5
ffffffc0504042f4:	e27ff0ef          	jal	ra,ffffffc05040411a <do_smp_down>
ffffffc0504042f8:	4785                	li	a5,1
ffffffc0504042fa:	853e                	mv	a0,a5
ffffffc0504042fc:	60e2                	ld	ra,24(sp)
ffffffc0504042fe:	6442                	ld	s0,16(sp)
ffffffc050404300:	6105                	addi	sp,sp,32
ffffffc050404302:	8082                	ret

ffffffc050404304 <smp_up>:
ffffffc050404304:	1101                	addi	sp,sp,-32
ffffffc050404306:	ec06                	sd	ra,24(sp)
ffffffc050404308:	e822                	sd	s0,16(sp)
ffffffc05040430a:	1000                	addi	s0,sp,32
ffffffc05040430c:	87aa                	mv	a5,a0
ffffffc05040430e:	fef42623          	sw	a5,-20(s0)
ffffffc050404312:	fec42783          	lw	a5,-20(s0)
ffffffc050404316:	2781                	sext.w	a5,a5
ffffffc050404318:	02f05363          	blez	a5,ffffffc05040433e <smp_up+0x3a>
ffffffc05040431c:	fec42783          	lw	a5,-20(s0)
ffffffc050404320:	0007871b          	sext.w	a4,a5
ffffffc050404324:	47bd                	li	a5,15
ffffffc050404326:	00e7cc63          	blt	a5,a4,ffffffc05040433e <smp_up+0x3a>
ffffffc05040432a:	0009c717          	auipc	a4,0x9c
ffffffc05040432e:	aae70713          	addi	a4,a4,-1362 # ffffffc05049fdd8 <smp_array>
ffffffc050404332:	fec42783          	lw	a5,-20(s0)
ffffffc050404336:	0796                	slli	a5,a5,0x5
ffffffc050404338:	97ba                	add	a5,a5,a4
ffffffc05040433a:	439c                	lw	a5,0(a5)
ffffffc05040433c:	eb89                	bnez	a5,ffffffc05040434e <smp_up+0x4a>
ffffffc05040433e:	00003517          	auipc	a0,0x3
ffffffc050404342:	25250513          	addi	a0,a0,594 # ffffffc050407590 <__FUNCTION__.1619+0x358>
ffffffc050404346:	139020ef          	jal	ra,ffffffc050406c7e <printk>
ffffffc05040434a:	4781                	li	a5,0
ffffffc05040434c:	a839                	j	ffffffc05040436a <smp_up+0x66>
ffffffc05040434e:	fec42783          	lw	a5,-20(s0)
ffffffc050404352:	00579713          	slli	a4,a5,0x5
ffffffc050404356:	0009c797          	auipc	a5,0x9c
ffffffc05040435a:	a8278793          	addi	a5,a5,-1406 # ffffffc05049fdd8 <smp_array>
ffffffc05040435e:	97ba                	add	a5,a5,a4
ffffffc050404360:	07a1                	addi	a5,a5,8
ffffffc050404362:	853e                	mv	a0,a5
ffffffc050404364:	e3dff0ef          	jal	ra,ffffffc0504041a0 <do_smp_up>
ffffffc050404368:	4785                	li	a5,1
ffffffc05040436a:	853e                	mv	a0,a5
ffffffc05040436c:	60e2                	ld	ra,24(sp)
ffffffc05040436e:	6442                	ld	s0,16(sp)
ffffffc050404370:	6105                	addi	sp,sp,32
ffffffc050404372:	8082                	ret

ffffffc050404374 <smp_destory>:
ffffffc050404374:	1101                	addi	sp,sp,-32
ffffffc050404376:	ec06                	sd	ra,24(sp)
ffffffc050404378:	e822                	sd	s0,16(sp)
ffffffc05040437a:	1000                	addi	s0,sp,32
ffffffc05040437c:	87aa                	mv	a5,a0
ffffffc05040437e:	fef42623          	sw	a5,-20(s0)
ffffffc050404382:	fec42783          	lw	a5,-20(s0)
ffffffc050404386:	2781                	sext.w	a5,a5
ffffffc050404388:	02f05363          	blez	a5,ffffffc0504043ae <smp_destory+0x3a>
ffffffc05040438c:	fec42783          	lw	a5,-20(s0)
ffffffc050404390:	0007871b          	sext.w	a4,a5
ffffffc050404394:	47bd                	li	a5,15
ffffffc050404396:	00e7cc63          	blt	a5,a4,ffffffc0504043ae <smp_destory+0x3a>
ffffffc05040439a:	0009c717          	auipc	a4,0x9c
ffffffc05040439e:	a3e70713          	addi	a4,a4,-1474 # ffffffc05049fdd8 <smp_array>
ffffffc0504043a2:	fec42783          	lw	a5,-20(s0)
ffffffc0504043a6:	0796                	slli	a5,a5,0x5
ffffffc0504043a8:	97ba                	add	a5,a5,a4
ffffffc0504043aa:	439c                	lw	a5,0(a5)
ffffffc0504043ac:	eb89                	bnez	a5,ffffffc0504043be <smp_destory+0x4a>
ffffffc0504043ae:	00003517          	auipc	a0,0x3
ffffffc0504043b2:	1e250513          	addi	a0,a0,482 # ffffffc050407590 <__FUNCTION__.1619+0x358>
ffffffc0504043b6:	0c9020ef          	jal	ra,ffffffc050406c7e <printk>
ffffffc0504043ba:	4781                	li	a5,0
ffffffc0504043bc:	a821                	j	ffffffc0504043d4 <smp_destory+0x60>
ffffffc0504043be:	0009c717          	auipc	a4,0x9c
ffffffc0504043c2:	a1a70713          	addi	a4,a4,-1510 # ffffffc05049fdd8 <smp_array>
ffffffc0504043c6:	fec42783          	lw	a5,-20(s0)
ffffffc0504043ca:	0796                	slli	a5,a5,0x5
ffffffc0504043cc:	97ba                	add	a5,a5,a4
ffffffc0504043ce:	0007a023          	sw	zero,0(a5)
ffffffc0504043d2:	4785                	li	a5,1
ffffffc0504043d4:	853e                	mv	a0,a5
ffffffc0504043d6:	60e2                	ld	ra,24(sp)
ffffffc0504043d8:	6442                	ld	s0,16(sp)
ffffffc0504043da:	6105                	addi	sp,sp,32
ffffffc0504043dc:	8082                	ret

ffffffc0504043de <do_barrier_init>:
ffffffc0504043de:	1101                	addi	sp,sp,-32
ffffffc0504043e0:	ec06                	sd	ra,24(sp)
ffffffc0504043e2:	e822                	sd	s0,16(sp)
ffffffc0504043e4:	1000                	addi	s0,sp,32
ffffffc0504043e6:	fea43423          	sd	a0,-24(s0)
ffffffc0504043ea:	87ae                	mv	a5,a1
ffffffc0504043ec:	fef42223          	sw	a5,-28(s0)
ffffffc0504043f0:	fe843783          	ld	a5,-24(s0)
ffffffc0504043f4:	fe442703          	lw	a4,-28(s0)
ffffffc0504043f8:	c398                	sw	a4,0(a5)
ffffffc0504043fa:	fe843783          	ld	a5,-24(s0)
ffffffc0504043fe:	0007a223          	sw	zero,4(a5)
ffffffc050404402:	fe843783          	ld	a5,-24(s0)
ffffffc050404406:	07a1                	addi	a5,a5,8
ffffffc050404408:	853e                	mv	a0,a5
ffffffc05040440a:	cb9ff0ef          	jal	ra,ffffffc0504040c2 <init_list_head>
ffffffc05040440e:	0001                	nop
ffffffc050404410:	60e2                	ld	ra,24(sp)
ffffffc050404412:	6442                	ld	s0,16(sp)
ffffffc050404414:	6105                	addi	sp,sp,32
ffffffc050404416:	8082                	ret

ffffffc050404418 <do_barrier_wait>:
ffffffc050404418:	1101                	addi	sp,sp,-32
ffffffc05040441a:	ec06                	sd	ra,24(sp)
ffffffc05040441c:	e822                	sd	s0,16(sp)
ffffffc05040441e:	1000                	addi	s0,sp,32
ffffffc050404420:	fea43423          	sd	a0,-24(s0)
ffffffc050404424:	ea9fb0ef          	jal	ra,ffffffc0504002cc <get_current_cpu_id>
ffffffc050404428:	87aa                	mv	a5,a0
ffffffc05040442a:	c791                	beqz	a5,ffffffc050404436 <do_barrier_wait+0x1e>
ffffffc05040442c:	0009b797          	auipc	a5,0x9b
ffffffc050404430:	79478793          	addi	a5,a5,1940 # ffffffc05049fbc0 <current_running_1>
ffffffc050404434:	a029                	j	ffffffc05040443e <do_barrier_wait+0x26>
ffffffc050404436:	0009b797          	auipc	a5,0x9b
ffffffc05040443a:	d6a78793          	addi	a5,a5,-662 # ffffffc05049f1a0 <current_running_0>
ffffffc05040443e:	0009b717          	auipc	a4,0x9b
ffffffc050404442:	d7a70713          	addi	a4,a4,-646 # ffffffc05049f1b8 <current_running>
ffffffc050404446:	e31c                	sd	a5,0(a4)
ffffffc050404448:	fe843783          	ld	a5,-24(s0)
ffffffc05040444c:	43dc                	lw	a5,4(a5)
ffffffc05040444e:	2785                	addiw	a5,a5,1
ffffffc050404450:	0007871b          	sext.w	a4,a5
ffffffc050404454:	fe843783          	ld	a5,-24(s0)
ffffffc050404458:	c3d8                	sw	a4,4(a5)
ffffffc05040445a:	fe843783          	ld	a5,-24(s0)
ffffffc05040445e:	43d8                	lw	a4,4(a5)
ffffffc050404460:	fe843783          	ld	a5,-24(s0)
ffffffc050404464:	439c                	lw	a5,0(a5)
ffffffc050404466:	02f70863          	beq	a4,a5,ffffffc050404496 <do_barrier_wait+0x7e>
ffffffc05040446a:	0009b797          	auipc	a5,0x9b
ffffffc05040446e:	d4e78793          	addi	a5,a5,-690 # ffffffc05049f1b8 <current_running>
ffffffc050404472:	639c                	ld	a5,0(a5)
ffffffc050404474:	639c                	ld	a5,0(a5)
ffffffc050404476:	02878713          	addi	a4,a5,40
ffffffc05040447a:	fe843783          	ld	a5,-24(s0)
ffffffc05040447e:	07a1                	addi	a5,a5,8
ffffffc050404480:	85be                	mv	a1,a5
ffffffc050404482:	853a                	mv	a0,a4
ffffffc050404484:	e32fe0ef          	jal	ra,ffffffc050402ab6 <do_block>
ffffffc050404488:	a01d                	j	ffffffc0504044ae <do_barrier_wait+0x96>
ffffffc05040448a:	fe843783          	ld	a5,-24(s0)
ffffffc05040448e:	679c                	ld	a5,8(a5)
ffffffc050404490:	853e                	mv	a0,a5
ffffffc050404492:	e6afe0ef          	jal	ra,ffffffc050402afc <do_unblock>
ffffffc050404496:	fe843783          	ld	a5,-24(s0)
ffffffc05040449a:	6798                	ld	a4,8(a5)
ffffffc05040449c:	fe843783          	ld	a5,-24(s0)
ffffffc0504044a0:	07a1                	addi	a5,a5,8
ffffffc0504044a2:	fef714e3          	bne	a4,a5,ffffffc05040448a <do_barrier_wait+0x72>
ffffffc0504044a6:	fe843783          	ld	a5,-24(s0)
ffffffc0504044aa:	0007a223          	sw	zero,4(a5)
ffffffc0504044ae:	0001                	nop
ffffffc0504044b0:	60e2                	ld	ra,24(sp)
ffffffc0504044b2:	6442                	ld	s0,16(sp)
ffffffc0504044b4:	6105                	addi	sp,sp,32
ffffffc0504044b6:	8082                	ret

ffffffc0504044b8 <barrier_get>:
ffffffc0504044b8:	7179                	addi	sp,sp,-48
ffffffc0504044ba:	f406                	sd	ra,40(sp)
ffffffc0504044bc:	f022                	sd	s0,32(sp)
ffffffc0504044be:	1800                	addi	s0,sp,48
ffffffc0504044c0:	87aa                	mv	a5,a0
ffffffc0504044c2:	872e                	mv	a4,a1
ffffffc0504044c4:	fcf42e23          	sw	a5,-36(s0)
ffffffc0504044c8:	87ba                	mv	a5,a4
ffffffc0504044ca:	fcf42c23          	sw	a5,-40(s0)
ffffffc0504044ce:	4785                	li	a5,1
ffffffc0504044d0:	fef42623          	sw	a5,-20(s0)
ffffffc0504044d4:	a8b1                	j	ffffffc050404530 <barrier_get+0x78>
ffffffc0504044d6:	0009b717          	auipc	a4,0x9b
ffffffc0504044da:	70270713          	addi	a4,a4,1794 # ffffffc05049fbd8 <barrier_array>
ffffffc0504044de:	fec42783          	lw	a5,-20(s0)
ffffffc0504044e2:	0796                	slli	a5,a5,0x5
ffffffc0504044e4:	97ba                	add	a5,a5,a4
ffffffc0504044e6:	439c                	lw	a5,0(a5)
ffffffc0504044e8:	ef9d                	bnez	a5,ffffffc050404526 <barrier_get+0x6e>
ffffffc0504044ea:	0009b717          	auipc	a4,0x9b
ffffffc0504044ee:	6ee70713          	addi	a4,a4,1774 # ffffffc05049fbd8 <barrier_array>
ffffffc0504044f2:	fec42783          	lw	a5,-20(s0)
ffffffc0504044f6:	0796                	slli	a5,a5,0x5
ffffffc0504044f8:	97ba                	add	a5,a5,a4
ffffffc0504044fa:	fdc42703          	lw	a4,-36(s0)
ffffffc0504044fe:	c398                	sw	a4,0(a5)
ffffffc050404500:	fec42783          	lw	a5,-20(s0)
ffffffc050404504:	00579713          	slli	a4,a5,0x5
ffffffc050404508:	0009b797          	auipc	a5,0x9b
ffffffc05040450c:	6d078793          	addi	a5,a5,1744 # ffffffc05049fbd8 <barrier_array>
ffffffc050404510:	97ba                	add	a5,a5,a4
ffffffc050404512:	07a1                	addi	a5,a5,8
ffffffc050404514:	fd842703          	lw	a4,-40(s0)
ffffffc050404518:	85ba                	mv	a1,a4
ffffffc05040451a:	853e                	mv	a0,a5
ffffffc05040451c:	ec3ff0ef          	jal	ra,ffffffc0504043de <do_barrier_init>
ffffffc050404520:	fec42783          	lw	a5,-20(s0)
ffffffc050404524:	a025                	j	ffffffc05040454c <barrier_get+0x94>
ffffffc050404526:	fec42783          	lw	a5,-20(s0)
ffffffc05040452a:	2785                	addiw	a5,a5,1
ffffffc05040452c:	fef42623          	sw	a5,-20(s0)
ffffffc050404530:	fec42783          	lw	a5,-20(s0)
ffffffc050404534:	0007871b          	sext.w	a4,a5
ffffffc050404538:	47bd                	li	a5,15
ffffffc05040453a:	f8e7dee3          	bge	a5,a4,ffffffc0504044d6 <barrier_get+0x1e>
ffffffc05040453e:	00003517          	auipc	a0,0x3
ffffffc050404542:	08a50513          	addi	a0,a0,138 # ffffffc0504075c8 <__FUNCTION__.1619+0x390>
ffffffc050404546:	738020ef          	jal	ra,ffffffc050406c7e <printk>
ffffffc05040454a:	4781                	li	a5,0
ffffffc05040454c:	853e                	mv	a0,a5
ffffffc05040454e:	70a2                	ld	ra,40(sp)
ffffffc050404550:	7402                	ld	s0,32(sp)
ffffffc050404552:	6145                	addi	sp,sp,48
ffffffc050404554:	8082                	ret

ffffffc050404556 <barrier_wait>:
ffffffc050404556:	1101                	addi	sp,sp,-32
ffffffc050404558:	ec06                	sd	ra,24(sp)
ffffffc05040455a:	e822                	sd	s0,16(sp)
ffffffc05040455c:	1000                	addi	s0,sp,32
ffffffc05040455e:	87aa                	mv	a5,a0
ffffffc050404560:	fef42623          	sw	a5,-20(s0)
ffffffc050404564:	fec42783          	lw	a5,-20(s0)
ffffffc050404568:	2781                	sext.w	a5,a5
ffffffc05040456a:	02f05363          	blez	a5,ffffffc050404590 <barrier_wait+0x3a>
ffffffc05040456e:	fec42783          	lw	a5,-20(s0)
ffffffc050404572:	0007871b          	sext.w	a4,a5
ffffffc050404576:	47bd                	li	a5,15
ffffffc050404578:	00e7cc63          	blt	a5,a4,ffffffc050404590 <barrier_wait+0x3a>
ffffffc05040457c:	0009b717          	auipc	a4,0x9b
ffffffc050404580:	65c70713          	addi	a4,a4,1628 # ffffffc05049fbd8 <barrier_array>
ffffffc050404584:	fec42783          	lw	a5,-20(s0)
ffffffc050404588:	0796                	slli	a5,a5,0x5
ffffffc05040458a:	97ba                	add	a5,a5,a4
ffffffc05040458c:	439c                	lw	a5,0(a5)
ffffffc05040458e:	eb89                	bnez	a5,ffffffc0504045a0 <barrier_wait+0x4a>
ffffffc050404590:	00003517          	auipc	a0,0x3
ffffffc050404594:	06850513          	addi	a0,a0,104 # ffffffc0504075f8 <__FUNCTION__.1619+0x3c0>
ffffffc050404598:	6e6020ef          	jal	ra,ffffffc050406c7e <printk>
ffffffc05040459c:	4781                	li	a5,0
ffffffc05040459e:	a839                	j	ffffffc0504045bc <barrier_wait+0x66>
ffffffc0504045a0:	fec42783          	lw	a5,-20(s0)
ffffffc0504045a4:	00579713          	slli	a4,a5,0x5
ffffffc0504045a8:	0009b797          	auipc	a5,0x9b
ffffffc0504045ac:	63078793          	addi	a5,a5,1584 # ffffffc05049fbd8 <barrier_array>
ffffffc0504045b0:	97ba                	add	a5,a5,a4
ffffffc0504045b2:	07a1                	addi	a5,a5,8
ffffffc0504045b4:	853e                	mv	a0,a5
ffffffc0504045b6:	e63ff0ef          	jal	ra,ffffffc050404418 <do_barrier_wait>
ffffffc0504045ba:	4785                	li	a5,1
ffffffc0504045bc:	853e                	mv	a0,a5
ffffffc0504045be:	60e2                	ld	ra,24(sp)
ffffffc0504045c0:	6442                	ld	s0,16(sp)
ffffffc0504045c2:	6105                	addi	sp,sp,32
ffffffc0504045c4:	8082                	ret

ffffffc0504045c6 <barrier_destory>:
ffffffc0504045c6:	1101                	addi	sp,sp,-32
ffffffc0504045c8:	ec06                	sd	ra,24(sp)
ffffffc0504045ca:	e822                	sd	s0,16(sp)
ffffffc0504045cc:	1000                	addi	s0,sp,32
ffffffc0504045ce:	87aa                	mv	a5,a0
ffffffc0504045d0:	fef42623          	sw	a5,-20(s0)
ffffffc0504045d4:	fec42783          	lw	a5,-20(s0)
ffffffc0504045d8:	2781                	sext.w	a5,a5
ffffffc0504045da:	02f05363          	blez	a5,ffffffc050404600 <barrier_destory+0x3a>
ffffffc0504045de:	fec42783          	lw	a5,-20(s0)
ffffffc0504045e2:	0007871b          	sext.w	a4,a5
ffffffc0504045e6:	47bd                	li	a5,15
ffffffc0504045e8:	00e7cc63          	blt	a5,a4,ffffffc050404600 <barrier_destory+0x3a>
ffffffc0504045ec:	0009b717          	auipc	a4,0x9b
ffffffc0504045f0:	5ec70713          	addi	a4,a4,1516 # ffffffc05049fbd8 <barrier_array>
ffffffc0504045f4:	fec42783          	lw	a5,-20(s0)
ffffffc0504045f8:	0796                	slli	a5,a5,0x5
ffffffc0504045fa:	97ba                	add	a5,a5,a4
ffffffc0504045fc:	439c                	lw	a5,0(a5)
ffffffc0504045fe:	eb89                	bnez	a5,ffffffc050404610 <barrier_destory+0x4a>
ffffffc050404600:	00003517          	auipc	a0,0x3
ffffffc050404604:	ff850513          	addi	a0,a0,-8 # ffffffc0504075f8 <__FUNCTION__.1619+0x3c0>
ffffffc050404608:	676020ef          	jal	ra,ffffffc050406c7e <printk>
ffffffc05040460c:	4781                	li	a5,0
ffffffc05040460e:	a821                	j	ffffffc050404626 <barrier_destory+0x60>
ffffffc050404610:	0009b717          	auipc	a4,0x9b
ffffffc050404614:	5c870713          	addi	a4,a4,1480 # ffffffc05049fbd8 <barrier_array>
ffffffc050404618:	fec42783          	lw	a5,-20(s0)
ffffffc05040461c:	0796                	slli	a5,a5,0x5
ffffffc05040461e:	97ba                	add	a5,a5,a4
ffffffc050404620:	0007a023          	sw	zero,0(a5)
ffffffc050404624:	4785                	li	a5,1
ffffffc050404626:	853e                	mv	a0,a5
ffffffc050404628:	60e2                	ld	ra,24(sp)
ffffffc05040462a:	6442                	ld	s0,16(sp)
ffffffc05040462c:	6105                	addi	sp,sp,32
ffffffc05040462e:	8082                	ret

ffffffc050404630 <lock_kernel>:
ffffffc050404630:	1101                	addi	sp,sp,-32
ffffffc050404632:	ec06                	sd	ra,24(sp)
ffffffc050404634:	e822                	sd	s0,16(sp)
ffffffc050404636:	1000                	addi	s0,sp,32
ffffffc050404638:	4785                	li	a5,1
ffffffc05040463a:	fef42623          	sw	a5,-20(s0)
ffffffc05040463e:	a821                	j	ffffffc050404656 <lock_kernel+0x26>
ffffffc050404640:	84c18713          	addi	a4,gp,-1972 # ffffffc050455414 <kernel_lock>
ffffffc050404644:	fec42783          	lw	a5,-20(s0)
ffffffc050404648:	85ba                	mv	a1,a4
ffffffc05040464a:	853e                	mv	a0,a5
ffffffc05040464c:	a4bff0ef          	jal	ra,ffffffc050404096 <atomic_swap>
ffffffc050404650:	87aa                	mv	a5,a0
ffffffc050404652:	fef42623          	sw	a5,-20(s0)
ffffffc050404656:	fec42783          	lw	a5,-20(s0)
ffffffc05040465a:	2781                	sext.w	a5,a5
ffffffc05040465c:	f3f5                	bnez	a5,ffffffc050404640 <lock_kernel+0x10>
ffffffc05040465e:	0001                	nop
ffffffc050404660:	0001                	nop
ffffffc050404662:	60e2                	ld	ra,24(sp)
ffffffc050404664:	6442                	ld	s0,16(sp)
ffffffc050404666:	6105                	addi	sp,sp,32
ffffffc050404668:	8082                	ret

ffffffc05040466a <unlock_kernel>:
ffffffc05040466a:	1141                	addi	sp,sp,-16
ffffffc05040466c:	e422                	sd	s0,8(sp)
ffffffc05040466e:	0800                	addi	s0,sp,16
ffffffc050404670:	84c18793          	addi	a5,gp,-1972 # ffffffc050455414 <kernel_lock>
ffffffc050404674:	0007a023          	sw	zero,0(a5)
ffffffc050404678:	0001                	nop
ffffffc05040467a:	6422                	ld	s0,8(sp)
ffffffc05040467c:	0141                	addi	sp,sp,16
ffffffc05040467e:	8082                	ret

ffffffc050404680 <init_list_head>:
ffffffc050404680:	1101                	addi	sp,sp,-32
ffffffc050404682:	ec22                	sd	s0,24(sp)
ffffffc050404684:	1000                	addi	s0,sp,32
ffffffc050404686:	fea43423          	sd	a0,-24(s0)
ffffffc05040468a:	fe843783          	ld	a5,-24(s0)
ffffffc05040468e:	fe843703          	ld	a4,-24(s0)
ffffffc050404692:	e398                	sd	a4,0(a5)
ffffffc050404694:	fe843783          	ld	a5,-24(s0)
ffffffc050404698:	fe843703          	ld	a4,-24(s0)
ffffffc05040469c:	e798                	sd	a4,8(a5)
ffffffc05040469e:	0001                	nop
ffffffc0504046a0:	6462                	ld	s0,24(sp)
ffffffc0504046a2:	6105                	addi	sp,sp,32
ffffffc0504046a4:	8082                	ret

ffffffc0504046a6 <mbox_try_down>:
ffffffc0504046a6:	1101                	addi	sp,sp,-32
ffffffc0504046a8:	ec06                	sd	ra,24(sp)
ffffffc0504046aa:	e822                	sd	s0,16(sp)
ffffffc0504046ac:	1000                	addi	s0,sp,32
ffffffc0504046ae:	fea43423          	sd	a0,-24(s0)
ffffffc0504046b2:	87ae                	mv	a5,a1
ffffffc0504046b4:	fef42223          	sw	a5,-28(s0)
ffffffc0504046b8:	c15fb0ef          	jal	ra,ffffffc0504002cc <get_current_cpu_id>
ffffffc0504046bc:	87aa                	mv	a5,a0
ffffffc0504046be:	c791                	beqz	a5,ffffffc0504046ca <mbox_try_down+0x24>
ffffffc0504046c0:	0009b797          	auipc	a5,0x9b
ffffffc0504046c4:	50078793          	addi	a5,a5,1280 # ffffffc05049fbc0 <current_running_1>
ffffffc0504046c8:	a029                	j	ffffffc0504046d2 <mbox_try_down+0x2c>
ffffffc0504046ca:	0009b797          	auipc	a5,0x9b
ffffffc0504046ce:	ad678793          	addi	a5,a5,-1322 # ffffffc05049f1a0 <current_running_0>
ffffffc0504046d2:	0009b717          	auipc	a4,0x9b
ffffffc0504046d6:	ae670713          	addi	a4,a4,-1306 # ffffffc05049f1b8 <current_running>
ffffffc0504046da:	e31c                	sd	a5,0(a4)
ffffffc0504046dc:	fe843783          	ld	a5,-24(s0)
ffffffc0504046e0:	4398                	lw	a4,0(a5)
ffffffc0504046e2:	fe442783          	lw	a5,-28(s0)
ffffffc0504046e6:	2781                	sext.w	a5,a5
ffffffc0504046e8:	00f75463          	bge	a4,a5,ffffffc0504046f0 <mbox_try_down+0x4a>
ffffffc0504046ec:	4781                	li	a5,0
ffffffc0504046ee:	a011                	j	ffffffc0504046f2 <mbox_try_down+0x4c>
ffffffc0504046f0:	4785                	li	a5,1
ffffffc0504046f2:	853e                	mv	a0,a5
ffffffc0504046f4:	60e2                	ld	ra,24(sp)
ffffffc0504046f6:	6442                	ld	s0,16(sp)
ffffffc0504046f8:	6105                	addi	sp,sp,32
ffffffc0504046fa:	8082                	ret

ffffffc0504046fc <mbox_smp_down>:
ffffffc0504046fc:	7179                	addi	sp,sp,-48
ffffffc0504046fe:	f406                	sd	ra,40(sp)
ffffffc050404700:	f022                	sd	s0,32(sp)
ffffffc050404702:	1800                	addi	s0,sp,48
ffffffc050404704:	fca43c23          	sd	a0,-40(s0)
ffffffc050404708:	87ae                	mv	a5,a1
ffffffc05040470a:	fcf42a23          	sw	a5,-44(s0)
ffffffc05040470e:	bbffb0ef          	jal	ra,ffffffc0504002cc <get_current_cpu_id>
ffffffc050404712:	87aa                	mv	a5,a0
ffffffc050404714:	c791                	beqz	a5,ffffffc050404720 <mbox_smp_down+0x24>
ffffffc050404716:	0009b797          	auipc	a5,0x9b
ffffffc05040471a:	4aa78793          	addi	a5,a5,1194 # ffffffc05049fbc0 <current_running_1>
ffffffc05040471e:	a029                	j	ffffffc050404728 <mbox_smp_down+0x2c>
ffffffc050404720:	0009b797          	auipc	a5,0x9b
ffffffc050404724:	a8078793          	addi	a5,a5,-1408 # ffffffc05049f1a0 <current_running_0>
ffffffc050404728:	0009b717          	auipc	a4,0x9b
ffffffc05040472c:	a9070713          	addi	a4,a4,-1392 # ffffffc05049f1b8 <current_running>
ffffffc050404730:	e31c                	sd	a5,0(a4)
ffffffc050404732:	fe042623          	sw	zero,-20(s0)
ffffffc050404736:	a02d                	j	ffffffc050404760 <mbox_smp_down+0x64>
ffffffc050404738:	fec42783          	lw	a5,-20(s0)
ffffffc05040473c:	2785                	addiw	a5,a5,1
ffffffc05040473e:	fef42623          	sw	a5,-20(s0)
ffffffc050404742:	0009b797          	auipc	a5,0x9b
ffffffc050404746:	a7678793          	addi	a5,a5,-1418 # ffffffc05049f1b8 <current_running>
ffffffc05040474a:	639c                	ld	a5,0(a5)
ffffffc05040474c:	639c                	ld	a5,0(a5)
ffffffc05040474e:	02878713          	addi	a4,a5,40
ffffffc050404752:	fd843783          	ld	a5,-40(s0)
ffffffc050404756:	07a1                	addi	a5,a5,8
ffffffc050404758:	85be                	mv	a1,a5
ffffffc05040475a:	853a                	mv	a0,a4
ffffffc05040475c:	b5afe0ef          	jal	ra,ffffffc050402ab6 <do_block>
ffffffc050404760:	fd843783          	ld	a5,-40(s0)
ffffffc050404764:	4398                	lw	a4,0(a5)
ffffffc050404766:	fd442783          	lw	a5,-44(s0)
ffffffc05040476a:	2781                	sext.w	a5,a5
ffffffc05040476c:	fcf746e3          	blt	a4,a5,ffffffc050404738 <mbox_smp_down+0x3c>
ffffffc050404770:	fd843783          	ld	a5,-40(s0)
ffffffc050404774:	4398                	lw	a4,0(a5)
ffffffc050404776:	fd442783          	lw	a5,-44(s0)
ffffffc05040477a:	40f707bb          	subw	a5,a4,a5
ffffffc05040477e:	0007871b          	sext.w	a4,a5
ffffffc050404782:	fd843783          	ld	a5,-40(s0)
ffffffc050404786:	c398                	sw	a4,0(a5)
ffffffc050404788:	fec42783          	lw	a5,-20(s0)
ffffffc05040478c:	853e                	mv	a0,a5
ffffffc05040478e:	70a2                	ld	ra,40(sp)
ffffffc050404790:	7402                	ld	s0,32(sp)
ffffffc050404792:	6145                	addi	sp,sp,48
ffffffc050404794:	8082                	ret

ffffffc050404796 <mbox_smp_up>:
ffffffc050404796:	7179                	addi	sp,sp,-48
ffffffc050404798:	f406                	sd	ra,40(sp)
ffffffc05040479a:	f022                	sd	s0,32(sp)
ffffffc05040479c:	1800                	addi	s0,sp,48
ffffffc05040479e:	fca43c23          	sd	a0,-40(s0)
ffffffc0504047a2:	87ae                	mv	a5,a1
ffffffc0504047a4:	fcf42a23          	sw	a5,-44(s0)
ffffffc0504047a8:	fe042623          	sw	zero,-20(s0)
ffffffc0504047ac:	a821                	j	ffffffc0504047c4 <mbox_smp_up+0x2e>
ffffffc0504047ae:	fec42783          	lw	a5,-20(s0)
ffffffc0504047b2:	2785                	addiw	a5,a5,1
ffffffc0504047b4:	fef42623          	sw	a5,-20(s0)
ffffffc0504047b8:	fd843783          	ld	a5,-40(s0)
ffffffc0504047bc:	679c                	ld	a5,8(a5)
ffffffc0504047be:	853e                	mv	a0,a5
ffffffc0504047c0:	b3cfe0ef          	jal	ra,ffffffc050402afc <do_unblock>
ffffffc0504047c4:	fd843783          	ld	a5,-40(s0)
ffffffc0504047c8:	6b98                	ld	a4,16(a5)
ffffffc0504047ca:	fd843783          	ld	a5,-40(s0)
ffffffc0504047ce:	07a1                	addi	a5,a5,8
ffffffc0504047d0:	fcf71fe3          	bne	a4,a5,ffffffc0504047ae <mbox_smp_up+0x18>
ffffffc0504047d4:	fd843783          	ld	a5,-40(s0)
ffffffc0504047d8:	439c                	lw	a5,0(a5)
ffffffc0504047da:	fd442703          	lw	a4,-44(s0)
ffffffc0504047de:	9fb9                	addw	a5,a5,a4
ffffffc0504047e0:	0007871b          	sext.w	a4,a5
ffffffc0504047e4:	fd843783          	ld	a5,-40(s0)
ffffffc0504047e8:	c398                	sw	a4,0(a5)
ffffffc0504047ea:	fec42783          	lw	a5,-20(s0)
ffffffc0504047ee:	853e                	mv	a0,a5
ffffffc0504047f0:	70a2                	ld	ra,40(sp)
ffffffc0504047f2:	7402                	ld	s0,32(sp)
ffffffc0504047f4:	6145                	addi	sp,sp,48
ffffffc0504047f6:	8082                	ret

ffffffc0504047f8 <mbox_act_up>:
ffffffc0504047f8:	7139                	addi	sp,sp,-64
ffffffc0504047fa:	fc06                	sd	ra,56(sp)
ffffffc0504047fc:	f822                	sd	s0,48(sp)
ffffffc0504047fe:	0080                	addi	s0,sp,64
ffffffc050404800:	fca43c23          	sd	a0,-40(s0)
ffffffc050404804:	fcb43823          	sd	a1,-48(s0)
ffffffc050404808:	87b2                	mv	a5,a2
ffffffc05040480a:	fcf42623          	sw	a5,-52(s0)
ffffffc05040480e:	fe042623          	sw	zero,-20(s0)
ffffffc050404812:	a821                	j	ffffffc05040482a <mbox_act_up+0x32>
ffffffc050404814:	fec42783          	lw	a5,-20(s0)
ffffffc050404818:	2785                	addiw	a5,a5,1
ffffffc05040481a:	fef42623          	sw	a5,-20(s0)
ffffffc05040481e:	fd043783          	ld	a5,-48(s0)
ffffffc050404822:	67fc                	ld	a5,200(a5)
ffffffc050404824:	853e                	mv	a0,a5
ffffffc050404826:	ad6fe0ef          	jal	ra,ffffffc050402afc <do_unblock>
ffffffc05040482a:	fd043783          	ld	a5,-48(s0)
ffffffc05040482e:	6bf8                	ld	a4,208(a5)
ffffffc050404830:	fd043783          	ld	a5,-48(s0)
ffffffc050404834:	0c878793          	addi	a5,a5,200
ffffffc050404838:	fcf71ee3          	bne	a4,a5,ffffffc050404814 <mbox_act_up+0x1c>
ffffffc05040483c:	fd843783          	ld	a5,-40(s0)
ffffffc050404840:	439c                	lw	a5,0(a5)
ffffffc050404842:	fcc42703          	lw	a4,-52(s0)
ffffffc050404846:	9fb9                	addw	a5,a5,a4
ffffffc050404848:	0007871b          	sext.w	a4,a5
ffffffc05040484c:	fd843783          	ld	a5,-40(s0)
ffffffc050404850:	c398                	sw	a4,0(a5)
ffffffc050404852:	fec42783          	lw	a5,-20(s0)
ffffffc050404856:	853e                	mv	a0,a5
ffffffc050404858:	70e2                	ld	ra,56(sp)
ffffffc05040485a:	7442                	ld	s0,48(sp)
ffffffc05040485c:	6121                	addi	sp,sp,64
ffffffc05040485e:	8082                	ret

ffffffc050404860 <do_mbox_init>:
ffffffc050404860:	1101                	addi	sp,sp,-32
ffffffc050404862:	ec06                	sd	ra,24(sp)
ffffffc050404864:	e822                	sd	s0,16(sp)
ffffffc050404866:	1000                	addi	s0,sp,32
ffffffc050404868:	fea43423          	sd	a0,-24(s0)
ffffffc05040486c:	feb43023          	sd	a1,-32(s0)
ffffffc050404870:	fe843783          	ld	a5,-24(s0)
ffffffc050404874:	06078793          	addi	a5,a5,96
ffffffc050404878:	4581                	li	a1,0
ffffffc05040487a:	853e                	mv	a0,a5
ffffffc05040487c:	86dff0ef          	jal	ra,ffffffc0504040e8 <do_smp_init>
ffffffc050404880:	fe843783          	ld	a5,-24(s0)
ffffffc050404884:	07878793          	addi	a5,a5,120
ffffffc050404888:	04000593          	li	a1,64
ffffffc05040488c:	853e                	mv	a0,a5
ffffffc05040488e:	85bff0ef          	jal	ra,ffffffc0504040e8 <do_smp_init>
ffffffc050404892:	fe843783          	ld	a5,-24(s0)
ffffffc050404896:	09078793          	addi	a5,a5,144
ffffffc05040489a:	853e                	mv	a0,a5
ffffffc05040489c:	dc6fd0ef          	jal	ra,ffffffc050401e62 <do_mutex_lock_init>
ffffffc0504048a0:	fe843783          	ld	a5,-24(s0)
ffffffc0504048a4:	0a07ae23          	sw	zero,188(a5)
ffffffc0504048a8:	fe843783          	ld	a5,-24(s0)
ffffffc0504048ac:	0a07ac23          	sw	zero,184(a5)
ffffffc0504048b0:	fe843783          	ld	a5,-24(s0)
ffffffc0504048b4:	4705                	li	a4,1
ffffffc0504048b6:	0ce7a023          	sw	a4,192(a5)
ffffffc0504048ba:	fe843783          	ld	a5,-24(s0)
ffffffc0504048be:	0c878793          	addi	a5,a5,200
ffffffc0504048c2:	853e                	mv	a0,a5
ffffffc0504048c4:	dbdff0ef          	jal	ra,ffffffc050404680 <init_list_head>
ffffffc0504048c8:	fe843783          	ld	a5,-24(s0)
ffffffc0504048cc:	04078793          	addi	a5,a5,64
ffffffc0504048d0:	fe043583          	ld	a1,-32(s0)
ffffffc0504048d4:	853e                	mv	a0,a5
ffffffc0504048d6:	2d5010ef          	jal	ra,ffffffc0504063aa <kstrcpy>
ffffffc0504048da:	0001                	nop
ffffffc0504048dc:	60e2                	ld	ra,24(sp)
ffffffc0504048de:	6442                	ld	s0,16(sp)
ffffffc0504048e0:	6105                	addi	sp,sp,32
ffffffc0504048e2:	8082                	ret

ffffffc0504048e4 <do_mbox_send>:
ffffffc0504048e4:	7139                	addi	sp,sp,-64
ffffffc0504048e6:	fc06                	sd	ra,56(sp)
ffffffc0504048e8:	f822                	sd	s0,48(sp)
ffffffc0504048ea:	0080                	addi	s0,sp,64
ffffffc0504048ec:	fca43c23          	sd	a0,-40(s0)
ffffffc0504048f0:	fcb43823          	sd	a1,-48(s0)
ffffffc0504048f4:	87b2                	mv	a5,a2
ffffffc0504048f6:	fcf42623          	sw	a5,-52(s0)
ffffffc0504048fa:	fe042623          	sw	zero,-20(s0)
ffffffc0504048fe:	fd843783          	ld	a5,-40(s0)
ffffffc050404902:	07878793          	addi	a5,a5,120
ffffffc050404906:	fcc42703          	lw	a4,-52(s0)
ffffffc05040490a:	85ba                	mv	a1,a4
ffffffc05040490c:	853e                	mv	a0,a5
ffffffc05040490e:	defff0ef          	jal	ra,ffffffc0504046fc <mbox_smp_down>
ffffffc050404912:	87aa                	mv	a5,a0
ffffffc050404914:	873e                	mv	a4,a5
ffffffc050404916:	fec42783          	lw	a5,-20(s0)
ffffffc05040491a:	9fb9                	addw	a5,a5,a4
ffffffc05040491c:	fef42623          	sw	a5,-20(s0)
ffffffc050404920:	fd843783          	ld	a5,-40(s0)
ffffffc050404924:	09078793          	addi	a5,a5,144
ffffffc050404928:	853e                	mv	a0,a5
ffffffc05040492a:	d62fd0ef          	jal	ra,ffffffc050401e8c <do_mutex_lock_acquire>
ffffffc05040492e:	fd843783          	ld	a5,-40(s0)
ffffffc050404932:	0b87a783          	lw	a5,184(a5)
ffffffc050404936:	04000713          	li	a4,64
ffffffc05040493a:	40f707bb          	subw	a5,a4,a5
ffffffc05040493e:	fef42423          	sw	a5,-24(s0)
ffffffc050404942:	fcc42703          	lw	a4,-52(s0)
ffffffc050404946:	fe842783          	lw	a5,-24(s0)
ffffffc05040494a:	40f707bb          	subw	a5,a4,a5
ffffffc05040494e:	fef42223          	sw	a5,-28(s0)
ffffffc050404952:	fe842703          	lw	a4,-24(s0)
ffffffc050404956:	fcc42783          	lw	a5,-52(s0)
ffffffc05040495a:	2701                	sext.w	a4,a4
ffffffc05040495c:	2781                	sext.w	a5,a5
ffffffc05040495e:	04f75663          	bge	a4,a5,ffffffc0504049aa <do_mbox_send+0xc6>
ffffffc050404962:	fd843783          	ld	a5,-40(s0)
ffffffc050404966:	fd843703          	ld	a4,-40(s0)
ffffffc05040496a:	0b872703          	lw	a4,184(a4)
ffffffc05040496e:	97ba                	add	a5,a5,a4
ffffffc050404970:	fe842703          	lw	a4,-24(s0)
ffffffc050404974:	863a                	mv	a2,a4
ffffffc050404976:	fd043583          	ld	a1,-48(s0)
ffffffc05040497a:	853e                	mv	a0,a5
ffffffc05040497c:	0d1010ef          	jal	ra,ffffffc05040624c <kmemcpy>
ffffffc050404980:	fd843683          	ld	a3,-40(s0)
ffffffc050404984:	fe842783          	lw	a5,-24(s0)
ffffffc050404988:	fd043703          	ld	a4,-48(s0)
ffffffc05040498c:	97ba                	add	a5,a5,a4
ffffffc05040498e:	fe442703          	lw	a4,-28(s0)
ffffffc050404992:	863a                	mv	a2,a4
ffffffc050404994:	85be                	mv	a1,a5
ffffffc050404996:	8536                	mv	a0,a3
ffffffc050404998:	0b5010ef          	jal	ra,ffffffc05040624c <kmemcpy>
ffffffc05040499c:	fd843783          	ld	a5,-40(s0)
ffffffc0504049a0:	fe442703          	lw	a4,-28(s0)
ffffffc0504049a4:	0ae7ac23          	sw	a4,184(a5)
ffffffc0504049a8:	a82d                	j	ffffffc0504049e2 <do_mbox_send+0xfe>
ffffffc0504049aa:	fd843783          	ld	a5,-40(s0)
ffffffc0504049ae:	fd843703          	ld	a4,-40(s0)
ffffffc0504049b2:	0b872703          	lw	a4,184(a4)
ffffffc0504049b6:	97ba                	add	a5,a5,a4
ffffffc0504049b8:	fcc42703          	lw	a4,-52(s0)
ffffffc0504049bc:	863a                	mv	a2,a4
ffffffc0504049be:	fd043583          	ld	a1,-48(s0)
ffffffc0504049c2:	853e                	mv	a0,a5
ffffffc0504049c4:	089010ef          	jal	ra,ffffffc05040624c <kmemcpy>
ffffffc0504049c8:	fd843783          	ld	a5,-40(s0)
ffffffc0504049cc:	0b87a783          	lw	a5,184(a5)
ffffffc0504049d0:	fcc42703          	lw	a4,-52(s0)
ffffffc0504049d4:	9fb9                	addw	a5,a5,a4
ffffffc0504049d6:	0007871b          	sext.w	a4,a5
ffffffc0504049da:	fd843783          	ld	a5,-40(s0)
ffffffc0504049de:	0ae7ac23          	sw	a4,184(a5)
ffffffc0504049e2:	fd843783          	ld	a5,-40(s0)
ffffffc0504049e6:	09078793          	addi	a5,a5,144
ffffffc0504049ea:	853e                	mv	a0,a5
ffffffc0504049ec:	d2efd0ef          	jal	ra,ffffffc050401f1a <do_mutex_lock_release>
ffffffc0504049f0:	fd843783          	ld	a5,-40(s0)
ffffffc0504049f4:	06078793          	addi	a5,a5,96
ffffffc0504049f8:	fcc42703          	lw	a4,-52(s0)
ffffffc0504049fc:	85ba                	mv	a1,a4
ffffffc0504049fe:	853e                	mv	a0,a5
ffffffc050404a00:	d97ff0ef          	jal	ra,ffffffc050404796 <mbox_smp_up>
ffffffc050404a04:	fec42783          	lw	a5,-20(s0)
ffffffc050404a08:	853e                	mv	a0,a5
ffffffc050404a0a:	70e2                	ld	ra,56(sp)
ffffffc050404a0c:	7442                	ld	s0,48(sp)
ffffffc050404a0e:	6121                	addi	sp,sp,64
ffffffc050404a10:	8082                	ret

ffffffc050404a12 <do_mbox_recv>:
ffffffc050404a12:	7139                	addi	sp,sp,-64
ffffffc050404a14:	fc06                	sd	ra,56(sp)
ffffffc050404a16:	f822                	sd	s0,48(sp)
ffffffc050404a18:	0080                	addi	s0,sp,64
ffffffc050404a1a:	fca43c23          	sd	a0,-40(s0)
ffffffc050404a1e:	fcb43823          	sd	a1,-48(s0)
ffffffc050404a22:	87b2                	mv	a5,a2
ffffffc050404a24:	fcf42623          	sw	a5,-52(s0)
ffffffc050404a28:	fe042623          	sw	zero,-20(s0)
ffffffc050404a2c:	fd843783          	ld	a5,-40(s0)
ffffffc050404a30:	06078793          	addi	a5,a5,96
ffffffc050404a34:	fcc42703          	lw	a4,-52(s0)
ffffffc050404a38:	85ba                	mv	a1,a4
ffffffc050404a3a:	853e                	mv	a0,a5
ffffffc050404a3c:	cc1ff0ef          	jal	ra,ffffffc0504046fc <mbox_smp_down>
ffffffc050404a40:	87aa                	mv	a5,a0
ffffffc050404a42:	873e                	mv	a4,a5
ffffffc050404a44:	fec42783          	lw	a5,-20(s0)
ffffffc050404a48:	9fb9                	addw	a5,a5,a4
ffffffc050404a4a:	fef42623          	sw	a5,-20(s0)
ffffffc050404a4e:	fd843783          	ld	a5,-40(s0)
ffffffc050404a52:	09078793          	addi	a5,a5,144
ffffffc050404a56:	853e                	mv	a0,a5
ffffffc050404a58:	c34fd0ef          	jal	ra,ffffffc050401e8c <do_mutex_lock_acquire>
ffffffc050404a5c:	fd843783          	ld	a5,-40(s0)
ffffffc050404a60:	0bc7a783          	lw	a5,188(a5)
ffffffc050404a64:	04000713          	li	a4,64
ffffffc050404a68:	40f707bb          	subw	a5,a4,a5
ffffffc050404a6c:	fef42423          	sw	a5,-24(s0)
ffffffc050404a70:	fcc42703          	lw	a4,-52(s0)
ffffffc050404a74:	fe842783          	lw	a5,-24(s0)
ffffffc050404a78:	40f707bb          	subw	a5,a4,a5
ffffffc050404a7c:	fef42223          	sw	a5,-28(s0)
ffffffc050404a80:	fe842703          	lw	a4,-24(s0)
ffffffc050404a84:	fcc42783          	lw	a5,-52(s0)
ffffffc050404a88:	2701                	sext.w	a4,a4
ffffffc050404a8a:	2781                	sext.w	a5,a5
ffffffc050404a8c:	04f75663          	bge	a4,a5,ffffffc050404ad8 <do_mbox_recv+0xc6>
ffffffc050404a90:	fd843783          	ld	a5,-40(s0)
ffffffc050404a94:	fd843703          	ld	a4,-40(s0)
ffffffc050404a98:	0bc72703          	lw	a4,188(a4)
ffffffc050404a9c:	97ba                	add	a5,a5,a4
ffffffc050404a9e:	fe842703          	lw	a4,-24(s0)
ffffffc050404aa2:	863a                	mv	a2,a4
ffffffc050404aa4:	85be                	mv	a1,a5
ffffffc050404aa6:	fd043503          	ld	a0,-48(s0)
ffffffc050404aaa:	7a2010ef          	jal	ra,ffffffc05040624c <kmemcpy>
ffffffc050404aae:	fe842783          	lw	a5,-24(s0)
ffffffc050404ab2:	fd043703          	ld	a4,-48(s0)
ffffffc050404ab6:	97ba                	add	a5,a5,a4
ffffffc050404ab8:	fd843703          	ld	a4,-40(s0)
ffffffc050404abc:	fe442683          	lw	a3,-28(s0)
ffffffc050404ac0:	8636                	mv	a2,a3
ffffffc050404ac2:	85ba                	mv	a1,a4
ffffffc050404ac4:	853e                	mv	a0,a5
ffffffc050404ac6:	786010ef          	jal	ra,ffffffc05040624c <kmemcpy>
ffffffc050404aca:	fd843783          	ld	a5,-40(s0)
ffffffc050404ace:	fe442703          	lw	a4,-28(s0)
ffffffc050404ad2:	0ae7ae23          	sw	a4,188(a5)
ffffffc050404ad6:	a82d                	j	ffffffc050404b10 <do_mbox_recv+0xfe>
ffffffc050404ad8:	fd843783          	ld	a5,-40(s0)
ffffffc050404adc:	fd843703          	ld	a4,-40(s0)
ffffffc050404ae0:	0bc72703          	lw	a4,188(a4)
ffffffc050404ae4:	97ba                	add	a5,a5,a4
ffffffc050404ae6:	fcc42703          	lw	a4,-52(s0)
ffffffc050404aea:	863a                	mv	a2,a4
ffffffc050404aec:	85be                	mv	a1,a5
ffffffc050404aee:	fd043503          	ld	a0,-48(s0)
ffffffc050404af2:	75a010ef          	jal	ra,ffffffc05040624c <kmemcpy>
ffffffc050404af6:	fd843783          	ld	a5,-40(s0)
ffffffc050404afa:	0bc7a783          	lw	a5,188(a5)
ffffffc050404afe:	fcc42703          	lw	a4,-52(s0)
ffffffc050404b02:	9fb9                	addw	a5,a5,a4
ffffffc050404b04:	0007871b          	sext.w	a4,a5
ffffffc050404b08:	fd843783          	ld	a5,-40(s0)
ffffffc050404b0c:	0ae7ae23          	sw	a4,188(a5)
ffffffc050404b10:	fd843783          	ld	a5,-40(s0)
ffffffc050404b14:	09078793          	addi	a5,a5,144
ffffffc050404b18:	853e                	mv	a0,a5
ffffffc050404b1a:	c00fd0ef          	jal	ra,ffffffc050401f1a <do_mutex_lock_release>
ffffffc050404b1e:	fd843783          	ld	a5,-40(s0)
ffffffc050404b22:	07878793          	addi	a5,a5,120
ffffffc050404b26:	fcc42703          	lw	a4,-52(s0)
ffffffc050404b2a:	85ba                	mv	a1,a4
ffffffc050404b2c:	853e                	mv	a0,a5
ffffffc050404b2e:	c69ff0ef          	jal	ra,ffffffc050404796 <mbox_smp_up>
ffffffc050404b32:	fec42783          	lw	a5,-20(s0)
ffffffc050404b36:	853e                	mv	a0,a5
ffffffc050404b38:	70e2                	ld	ra,56(sp)
ffffffc050404b3a:	7442                	ld	s0,48(sp)
ffffffc050404b3c:	6121                	addi	sp,sp,64
ffffffc050404b3e:	8082                	ret

ffffffc050404b40 <kernel_mbox_open>:
ffffffc050404b40:	7179                	addi	sp,sp,-48
ffffffc050404b42:	f406                	sd	ra,40(sp)
ffffffc050404b44:	f022                	sd	s0,32(sp)
ffffffc050404b46:	1800                	addi	s0,sp,48
ffffffc050404b48:	fca43c23          	sd	a0,-40(s0)
ffffffc050404b4c:	fd843503          	ld	a0,-40(s0)
ffffffc050404b50:	674010ef          	jal	ra,ffffffc0504061c4 <kstrlen>
ffffffc050404b54:	87aa                	mv	a5,a0
ffffffc050404b56:	873e                	mv	a4,a5
ffffffc050404b58:	02000793          	li	a5,32
ffffffc050404b5c:	00e7da63          	bge	a5,a4,ffffffc050404b70 <kernel_mbox_open+0x30>
ffffffc050404b60:	02000593          	li	a1,32
ffffffc050404b64:	00003517          	auipc	a0,0x3
ffffffc050404b68:	acc50513          	addi	a0,a0,-1332 # ffffffc050407630 <__FUNCTION__.1619+0x3f8>
ffffffc050404b6c:	112020ef          	jal	ra,ffffffc050406c7e <printk>
ffffffc050404b70:	4785                	li	a5,1
ffffffc050404b72:	fef42623          	sw	a5,-20(s0)
ffffffc050404b76:	a841                	j	ffffffc050404c06 <kernel_mbox_open+0xc6>
ffffffc050404b78:	0009b697          	auipc	a3,0x9b
ffffffc050404b7c:	46068693          	addi	a3,a3,1120 # ffffffc05049ffd8 <mailbox_array>
ffffffc050404b80:	fec42703          	lw	a4,-20(s0)
ffffffc050404b84:	87ba                	mv	a5,a4
ffffffc050404b86:	078e                	slli	a5,a5,0x3
ffffffc050404b88:	8f99                	sub	a5,a5,a4
ffffffc050404b8a:	0796                	slli	a5,a5,0x5
ffffffc050404b8c:	97b6                	add	a5,a5,a3
ffffffc050404b8e:	439c                	lw	a5,0(a5)
ffffffc050404b90:	c7b5                	beqz	a5,ffffffc050404bfc <kernel_mbox_open+0xbc>
ffffffc050404b92:	fec42703          	lw	a4,-20(s0)
ffffffc050404b96:	87ba                	mv	a5,a4
ffffffc050404b98:	078e                	slli	a5,a5,0x3
ffffffc050404b9a:	8f99                	sub	a5,a5,a4
ffffffc050404b9c:	0796                	slli	a5,a5,0x5
ffffffc050404b9e:	04078713          	addi	a4,a5,64
ffffffc050404ba2:	0009b797          	auipc	a5,0x9b
ffffffc050404ba6:	43678793          	addi	a5,a5,1078 # ffffffc05049ffd8 <mailbox_array>
ffffffc050404baa:	97ba                	add	a5,a5,a4
ffffffc050404bac:	07a1                	addi	a5,a5,8
ffffffc050404bae:	fd843583          	ld	a1,-40(s0)
ffffffc050404bb2:	853e                	mv	a0,a5
ffffffc050404bb4:	768010ef          	jal	ra,ffffffc05040631c <kstrcmp>
ffffffc050404bb8:	87aa                	mv	a5,a0
ffffffc050404bba:	e3a9                	bnez	a5,ffffffc050404bfc <kernel_mbox_open+0xbc>
ffffffc050404bbc:	0009b697          	auipc	a3,0x9b
ffffffc050404bc0:	41c68693          	addi	a3,a3,1052 # ffffffc05049ffd8 <mailbox_array>
ffffffc050404bc4:	fec42703          	lw	a4,-20(s0)
ffffffc050404bc8:	87ba                	mv	a5,a4
ffffffc050404bca:	078e                	slli	a5,a5,0x3
ffffffc050404bcc:	8f99                	sub	a5,a5,a4
ffffffc050404bce:	0796                	slli	a5,a5,0x5
ffffffc050404bd0:	97b6                	add	a5,a5,a3
ffffffc050404bd2:	0c87a783          	lw	a5,200(a5)
ffffffc050404bd6:	2785                	addiw	a5,a5,1
ffffffc050404bd8:	0007869b          	sext.w	a3,a5
ffffffc050404bdc:	0009b617          	auipc	a2,0x9b
ffffffc050404be0:	3fc60613          	addi	a2,a2,1020 # ffffffc05049ffd8 <mailbox_array>
ffffffc050404be4:	fec42703          	lw	a4,-20(s0)
ffffffc050404be8:	87ba                	mv	a5,a4
ffffffc050404bea:	078e                	slli	a5,a5,0x3
ffffffc050404bec:	8f99                	sub	a5,a5,a4
ffffffc050404bee:	0796                	slli	a5,a5,0x5
ffffffc050404bf0:	97b2                	add	a5,a5,a2
ffffffc050404bf2:	0cd7a423          	sw	a3,200(a5)
ffffffc050404bf6:	fec42783          	lw	a5,-20(s0)
ffffffc050404bfa:	a06d                	j	ffffffc050404ca4 <kernel_mbox_open+0x164>
ffffffc050404bfc:	fec42783          	lw	a5,-20(s0)
ffffffc050404c00:	2785                	addiw	a5,a5,1
ffffffc050404c02:	fef42623          	sw	a5,-20(s0)
ffffffc050404c06:	fec42783          	lw	a5,-20(s0)
ffffffc050404c0a:	0007871b          	sext.w	a4,a5
ffffffc050404c0e:	47bd                	li	a5,15
ffffffc050404c10:	f6e7d4e3          	bge	a5,a4,ffffffc050404b78 <kernel_mbox_open+0x38>
ffffffc050404c14:	4785                	li	a5,1
ffffffc050404c16:	fef42623          	sw	a5,-20(s0)
ffffffc050404c1a:	a0bd                	j	ffffffc050404c88 <kernel_mbox_open+0x148>
ffffffc050404c1c:	0009b697          	auipc	a3,0x9b
ffffffc050404c20:	3bc68693          	addi	a3,a3,956 # ffffffc05049ffd8 <mailbox_array>
ffffffc050404c24:	fec42703          	lw	a4,-20(s0)
ffffffc050404c28:	87ba                	mv	a5,a4
ffffffc050404c2a:	078e                	slli	a5,a5,0x3
ffffffc050404c2c:	8f99                	sub	a5,a5,a4
ffffffc050404c2e:	0796                	slli	a5,a5,0x5
ffffffc050404c30:	97b6                	add	a5,a5,a3
ffffffc050404c32:	439c                	lw	a5,0(a5)
ffffffc050404c34:	e7a9                	bnez	a5,ffffffc050404c7e <kernel_mbox_open+0x13e>
ffffffc050404c36:	fd843783          	ld	a5,-40(s0)
ffffffc050404c3a:	0007869b          	sext.w	a3,a5
ffffffc050404c3e:	0009b617          	auipc	a2,0x9b
ffffffc050404c42:	39a60613          	addi	a2,a2,922 # ffffffc05049ffd8 <mailbox_array>
ffffffc050404c46:	fec42703          	lw	a4,-20(s0)
ffffffc050404c4a:	87ba                	mv	a5,a4
ffffffc050404c4c:	078e                	slli	a5,a5,0x3
ffffffc050404c4e:	8f99                	sub	a5,a5,a4
ffffffc050404c50:	0796                	slli	a5,a5,0x5
ffffffc050404c52:	97b2                	add	a5,a5,a2
ffffffc050404c54:	c394                	sw	a3,0(a5)
ffffffc050404c56:	fec42703          	lw	a4,-20(s0)
ffffffc050404c5a:	87ba                	mv	a5,a4
ffffffc050404c5c:	078e                	slli	a5,a5,0x3
ffffffc050404c5e:	8f99                	sub	a5,a5,a4
ffffffc050404c60:	0796                	slli	a5,a5,0x5
ffffffc050404c62:	0009b717          	auipc	a4,0x9b
ffffffc050404c66:	37670713          	addi	a4,a4,886 # ffffffc05049ffd8 <mailbox_array>
ffffffc050404c6a:	97ba                	add	a5,a5,a4
ffffffc050404c6c:	07a1                	addi	a5,a5,8
ffffffc050404c6e:	fd843583          	ld	a1,-40(s0)
ffffffc050404c72:	853e                	mv	a0,a5
ffffffc050404c74:	bedff0ef          	jal	ra,ffffffc050404860 <do_mbox_init>
ffffffc050404c78:	fec42783          	lw	a5,-20(s0)
ffffffc050404c7c:	a025                	j	ffffffc050404ca4 <kernel_mbox_open+0x164>
ffffffc050404c7e:	fec42783          	lw	a5,-20(s0)
ffffffc050404c82:	2785                	addiw	a5,a5,1
ffffffc050404c84:	fef42623          	sw	a5,-20(s0)
ffffffc050404c88:	fec42783          	lw	a5,-20(s0)
ffffffc050404c8c:	0007871b          	sext.w	a4,a5
ffffffc050404c90:	47bd                	li	a5,15
ffffffc050404c92:	f8e7d5e3          	bge	a5,a4,ffffffc050404c1c <kernel_mbox_open+0xdc>
ffffffc050404c96:	00003517          	auipc	a0,0x3
ffffffc050404c9a:	9d250513          	addi	a0,a0,-1582 # ffffffc050407668 <__FUNCTION__.1619+0x430>
ffffffc050404c9e:	7e1010ef          	jal	ra,ffffffc050406c7e <printk>
ffffffc050404ca2:	4781                	li	a5,0
ffffffc050404ca4:	853e                	mv	a0,a5
ffffffc050404ca6:	70a2                	ld	ra,40(sp)
ffffffc050404ca8:	7402                	ld	s0,32(sp)
ffffffc050404caa:	6145                	addi	sp,sp,48
ffffffc050404cac:	8082                	ret

ffffffc050404cae <kernel_mbox_send>:
ffffffc050404cae:	1101                	addi	sp,sp,-32
ffffffc050404cb0:	ec06                	sd	ra,24(sp)
ffffffc050404cb2:	e822                	sd	s0,16(sp)
ffffffc050404cb4:	1000                	addi	s0,sp,32
ffffffc050404cb6:	87aa                	mv	a5,a0
ffffffc050404cb8:	feb43023          	sd	a1,-32(s0)
ffffffc050404cbc:	8732                	mv	a4,a2
ffffffc050404cbe:	fef42623          	sw	a5,-20(s0)
ffffffc050404cc2:	87ba                	mv	a5,a4
ffffffc050404cc4:	fef42423          	sw	a5,-24(s0)
ffffffc050404cc8:	fec42783          	lw	a5,-20(s0)
ffffffc050404ccc:	2781                	sext.w	a5,a5
ffffffc050404cce:	02f05663          	blez	a5,ffffffc050404cfa <kernel_mbox_send+0x4c>
ffffffc050404cd2:	fec42783          	lw	a5,-20(s0)
ffffffc050404cd6:	0007871b          	sext.w	a4,a5
ffffffc050404cda:	47bd                	li	a5,15
ffffffc050404cdc:	00e7cf63          	blt	a5,a4,ffffffc050404cfa <kernel_mbox_send+0x4c>
ffffffc050404ce0:	0009b697          	auipc	a3,0x9b
ffffffc050404ce4:	2f868693          	addi	a3,a3,760 # ffffffc05049ffd8 <mailbox_array>
ffffffc050404ce8:	fec42703          	lw	a4,-20(s0)
ffffffc050404cec:	87ba                	mv	a5,a4
ffffffc050404cee:	078e                	slli	a5,a5,0x3
ffffffc050404cf0:	8f99                	sub	a5,a5,a4
ffffffc050404cf2:	0796                	slli	a5,a5,0x5
ffffffc050404cf4:	97b6                	add	a5,a5,a3
ffffffc050404cf6:	439c                	lw	a5,0(a5)
ffffffc050404cf8:	eb89                	bnez	a5,ffffffc050404d0a <kernel_mbox_send+0x5c>
ffffffc050404cfa:	00003517          	auipc	a0,0x3
ffffffc050404cfe:	98e50513          	addi	a0,a0,-1650 # ffffffc050407688 <__FUNCTION__.1619+0x450>
ffffffc050404d02:	77d010ef          	jal	ra,ffffffc050406c7e <printk>
ffffffc050404d06:	4781                	li	a5,0
ffffffc050404d08:	a0b1                	j	ffffffc050404d54 <kernel_mbox_send+0xa6>
ffffffc050404d0a:	fe842783          	lw	a5,-24(s0)
ffffffc050404d0e:	0007871b          	sext.w	a4,a5
ffffffc050404d12:	04000793          	li	a5,64
ffffffc050404d16:	00e7da63          	bge	a5,a4,ffffffc050404d2a <kernel_mbox_send+0x7c>
ffffffc050404d1a:	00003517          	auipc	a0,0x3
ffffffc050404d1e:	99e50513          	addi	a0,a0,-1634 # ffffffc0504076b8 <__FUNCTION__.1619+0x480>
ffffffc050404d22:	75d010ef          	jal	ra,ffffffc050406c7e <printk>
ffffffc050404d26:	4781                	li	a5,0
ffffffc050404d28:	a035                	j	ffffffc050404d54 <kernel_mbox_send+0xa6>
ffffffc050404d2a:	fec42703          	lw	a4,-20(s0)
ffffffc050404d2e:	87ba                	mv	a5,a4
ffffffc050404d30:	078e                	slli	a5,a5,0x3
ffffffc050404d32:	8f99                	sub	a5,a5,a4
ffffffc050404d34:	0796                	slli	a5,a5,0x5
ffffffc050404d36:	0009b717          	auipc	a4,0x9b
ffffffc050404d3a:	2a270713          	addi	a4,a4,674 # ffffffc05049ffd8 <mailbox_array>
ffffffc050404d3e:	97ba                	add	a5,a5,a4
ffffffc050404d40:	07a1                	addi	a5,a5,8
ffffffc050404d42:	fe842703          	lw	a4,-24(s0)
ffffffc050404d46:	863a                	mv	a2,a4
ffffffc050404d48:	fe043583          	ld	a1,-32(s0)
ffffffc050404d4c:	853e                	mv	a0,a5
ffffffc050404d4e:	b97ff0ef          	jal	ra,ffffffc0504048e4 <do_mbox_send>
ffffffc050404d52:	87aa                	mv	a5,a0
ffffffc050404d54:	853e                	mv	a0,a5
ffffffc050404d56:	60e2                	ld	ra,24(sp)
ffffffc050404d58:	6442                	ld	s0,16(sp)
ffffffc050404d5a:	6105                	addi	sp,sp,32
ffffffc050404d5c:	8082                	ret

ffffffc050404d5e <kernel_mbox_recv>:
ffffffc050404d5e:	1101                	addi	sp,sp,-32
ffffffc050404d60:	ec06                	sd	ra,24(sp)
ffffffc050404d62:	e822                	sd	s0,16(sp)
ffffffc050404d64:	1000                	addi	s0,sp,32
ffffffc050404d66:	87aa                	mv	a5,a0
ffffffc050404d68:	feb43023          	sd	a1,-32(s0)
ffffffc050404d6c:	8732                	mv	a4,a2
ffffffc050404d6e:	fef42623          	sw	a5,-20(s0)
ffffffc050404d72:	87ba                	mv	a5,a4
ffffffc050404d74:	fef42423          	sw	a5,-24(s0)
ffffffc050404d78:	fec42783          	lw	a5,-20(s0)
ffffffc050404d7c:	2781                	sext.w	a5,a5
ffffffc050404d7e:	02f05663          	blez	a5,ffffffc050404daa <kernel_mbox_recv+0x4c>
ffffffc050404d82:	fec42783          	lw	a5,-20(s0)
ffffffc050404d86:	0007871b          	sext.w	a4,a5
ffffffc050404d8a:	47bd                	li	a5,15
ffffffc050404d8c:	00e7cf63          	blt	a5,a4,ffffffc050404daa <kernel_mbox_recv+0x4c>
ffffffc050404d90:	0009b697          	auipc	a3,0x9b
ffffffc050404d94:	24868693          	addi	a3,a3,584 # ffffffc05049ffd8 <mailbox_array>
ffffffc050404d98:	fec42703          	lw	a4,-20(s0)
ffffffc050404d9c:	87ba                	mv	a5,a4
ffffffc050404d9e:	078e                	slli	a5,a5,0x3
ffffffc050404da0:	8f99                	sub	a5,a5,a4
ffffffc050404da2:	0796                	slli	a5,a5,0x5
ffffffc050404da4:	97b6                	add	a5,a5,a3
ffffffc050404da6:	439c                	lw	a5,0(a5)
ffffffc050404da8:	eb89                	bnez	a5,ffffffc050404dba <kernel_mbox_recv+0x5c>
ffffffc050404daa:	00003517          	auipc	a0,0x3
ffffffc050404dae:	8de50513          	addi	a0,a0,-1826 # ffffffc050407688 <__FUNCTION__.1619+0x450>
ffffffc050404db2:	6cd010ef          	jal	ra,ffffffc050406c7e <printk>
ffffffc050404db6:	4781                	li	a5,0
ffffffc050404db8:	a0b1                	j	ffffffc050404e04 <kernel_mbox_recv+0xa6>
ffffffc050404dba:	fe842783          	lw	a5,-24(s0)
ffffffc050404dbe:	0007871b          	sext.w	a4,a5
ffffffc050404dc2:	04000793          	li	a5,64
ffffffc050404dc6:	00e7da63          	bge	a5,a4,ffffffc050404dda <kernel_mbox_recv+0x7c>
ffffffc050404dca:	00003517          	auipc	a0,0x3
ffffffc050404dce:	91650513          	addi	a0,a0,-1770 # ffffffc0504076e0 <__FUNCTION__.1619+0x4a8>
ffffffc050404dd2:	6ad010ef          	jal	ra,ffffffc050406c7e <printk>
ffffffc050404dd6:	4781                	li	a5,0
ffffffc050404dd8:	a035                	j	ffffffc050404e04 <kernel_mbox_recv+0xa6>
ffffffc050404dda:	fec42703          	lw	a4,-20(s0)
ffffffc050404dde:	87ba                	mv	a5,a4
ffffffc050404de0:	078e                	slli	a5,a5,0x3
ffffffc050404de2:	8f99                	sub	a5,a5,a4
ffffffc050404de4:	0796                	slli	a5,a5,0x5
ffffffc050404de6:	0009b717          	auipc	a4,0x9b
ffffffc050404dea:	1f270713          	addi	a4,a4,498 # ffffffc05049ffd8 <mailbox_array>
ffffffc050404dee:	97ba                	add	a5,a5,a4
ffffffc050404df0:	07a1                	addi	a5,a5,8
ffffffc050404df2:	fe842703          	lw	a4,-24(s0)
ffffffc050404df6:	863a                	mv	a2,a4
ffffffc050404df8:	fe043583          	ld	a1,-32(s0)
ffffffc050404dfc:	853e                	mv	a0,a5
ffffffc050404dfe:	c15ff0ef          	jal	ra,ffffffc050404a12 <do_mbox_recv>
ffffffc050404e02:	87aa                	mv	a5,a0
ffffffc050404e04:	853e                	mv	a0,a5
ffffffc050404e06:	60e2                	ld	ra,24(sp)
ffffffc050404e08:	6442                	ld	s0,16(sp)
ffffffc050404e0a:	6105                	addi	sp,sp,32
ffffffc050404e0c:	8082                	ret

ffffffc050404e0e <kernel_mbox_close>:
ffffffc050404e0e:	1101                	addi	sp,sp,-32
ffffffc050404e10:	ec06                	sd	ra,24(sp)
ffffffc050404e12:	e822                	sd	s0,16(sp)
ffffffc050404e14:	1000                	addi	s0,sp,32
ffffffc050404e16:	87aa                	mv	a5,a0
ffffffc050404e18:	fef42623          	sw	a5,-20(s0)
ffffffc050404e1c:	fec42783          	lw	a5,-20(s0)
ffffffc050404e20:	2781                	sext.w	a5,a5
ffffffc050404e22:	02f05663          	blez	a5,ffffffc050404e4e <kernel_mbox_close+0x40>
ffffffc050404e26:	fec42783          	lw	a5,-20(s0)
ffffffc050404e2a:	0007871b          	sext.w	a4,a5
ffffffc050404e2e:	47bd                	li	a5,15
ffffffc050404e30:	00e7cf63          	blt	a5,a4,ffffffc050404e4e <kernel_mbox_close+0x40>
ffffffc050404e34:	0009b697          	auipc	a3,0x9b
ffffffc050404e38:	1a468693          	addi	a3,a3,420 # ffffffc05049ffd8 <mailbox_array>
ffffffc050404e3c:	fec42703          	lw	a4,-20(s0)
ffffffc050404e40:	87ba                	mv	a5,a4
ffffffc050404e42:	078e                	slli	a5,a5,0x3
ffffffc050404e44:	8f99                	sub	a5,a5,a4
ffffffc050404e46:	0796                	slli	a5,a5,0x5
ffffffc050404e48:	97b6                	add	a5,a5,a3
ffffffc050404e4a:	439c                	lw	a5,0(a5)
ffffffc050404e4c:	eb89                	bnez	a5,ffffffc050404e5e <kernel_mbox_close+0x50>
ffffffc050404e4e:	00003517          	auipc	a0,0x3
ffffffc050404e52:	83a50513          	addi	a0,a0,-1990 # ffffffc050407688 <__FUNCTION__.1619+0x450>
ffffffc050404e56:	629010ef          	jal	ra,ffffffc050406c7e <printk>
ffffffc050404e5a:	4781                	li	a5,0
ffffffc050404e5c:	a895                	j	ffffffc050404ed0 <kernel_mbox_close+0xc2>
ffffffc050404e5e:	0009b697          	auipc	a3,0x9b
ffffffc050404e62:	17a68693          	addi	a3,a3,378 # ffffffc05049ffd8 <mailbox_array>
ffffffc050404e66:	fec42703          	lw	a4,-20(s0)
ffffffc050404e6a:	87ba                	mv	a5,a4
ffffffc050404e6c:	078e                	slli	a5,a5,0x3
ffffffc050404e6e:	8f99                	sub	a5,a5,a4
ffffffc050404e70:	0796                	slli	a5,a5,0x5
ffffffc050404e72:	97b6                	add	a5,a5,a3
ffffffc050404e74:	0c87a783          	lw	a5,200(a5)
ffffffc050404e78:	37fd                	addiw	a5,a5,-1
ffffffc050404e7a:	0007869b          	sext.w	a3,a5
ffffffc050404e7e:	0009b617          	auipc	a2,0x9b
ffffffc050404e82:	15a60613          	addi	a2,a2,346 # ffffffc05049ffd8 <mailbox_array>
ffffffc050404e86:	fec42703          	lw	a4,-20(s0)
ffffffc050404e8a:	87ba                	mv	a5,a4
ffffffc050404e8c:	078e                	slli	a5,a5,0x3
ffffffc050404e8e:	8f99                	sub	a5,a5,a4
ffffffc050404e90:	0796                	slli	a5,a5,0x5
ffffffc050404e92:	97b2                	add	a5,a5,a2
ffffffc050404e94:	0cd7a423          	sw	a3,200(a5)
ffffffc050404e98:	0009b697          	auipc	a3,0x9b
ffffffc050404e9c:	14068693          	addi	a3,a3,320 # ffffffc05049ffd8 <mailbox_array>
ffffffc050404ea0:	fec42703          	lw	a4,-20(s0)
ffffffc050404ea4:	87ba                	mv	a5,a4
ffffffc050404ea6:	078e                	slli	a5,a5,0x3
ffffffc050404ea8:	8f99                	sub	a5,a5,a4
ffffffc050404eaa:	0796                	slli	a5,a5,0x5
ffffffc050404eac:	97b6                	add	a5,a5,a3
ffffffc050404eae:	0c87a783          	lw	a5,200(a5)
ffffffc050404eb2:	ef91                	bnez	a5,ffffffc050404ece <kernel_mbox_close+0xc0>
ffffffc050404eb4:	0009b697          	auipc	a3,0x9b
ffffffc050404eb8:	12468693          	addi	a3,a3,292 # ffffffc05049ffd8 <mailbox_array>
ffffffc050404ebc:	fec42703          	lw	a4,-20(s0)
ffffffc050404ec0:	87ba                	mv	a5,a4
ffffffc050404ec2:	078e                	slli	a5,a5,0x3
ffffffc050404ec4:	8f99                	sub	a5,a5,a4
ffffffc050404ec6:	0796                	slli	a5,a5,0x5
ffffffc050404ec8:	97b6                	add	a5,a5,a3
ffffffc050404eca:	0007a023          	sw	zero,0(a5)
ffffffc050404ece:	4785                	li	a5,1
ffffffc050404ed0:	853e                	mv	a0,a5
ffffffc050404ed2:	60e2                	ld	ra,24(sp)
ffffffc050404ed4:	6442                	ld	s0,16(sp)
ffffffc050404ed6:	6105                	addi	sp,sp,32
ffffffc050404ed8:	8082                	ret

ffffffc050404eda <kernel_mbox_act>:
ffffffc050404eda:	715d                	addi	sp,sp,-80
ffffffc050404edc:	e486                	sd	ra,72(sp)
ffffffc050404ede:	e0a2                	sd	s0,64(sp)
ffffffc050404ee0:	0880                	addi	s0,sp,80
ffffffc050404ee2:	87aa                	mv	a5,a0
ffffffc050404ee4:	fcb43023          	sd	a1,-64(s0)
ffffffc050404ee8:	8736                	mv	a4,a3
ffffffc050404eea:	fcf42623          	sw	a5,-52(s0)
ffffffc050404eee:	87b2                	mv	a5,a2
ffffffc050404ef0:	fcf42423          	sw	a5,-56(s0)
ffffffc050404ef4:	87ba                	mv	a5,a4
ffffffc050404ef6:	faf42e23          	sw	a5,-68(s0)
ffffffc050404efa:	bd2fb0ef          	jal	ra,ffffffc0504002cc <get_current_cpu_id>
ffffffc050404efe:	87aa                	mv	a5,a0
ffffffc050404f00:	c791                	beqz	a5,ffffffc050404f0c <kernel_mbox_act+0x32>
ffffffc050404f02:	0009b797          	auipc	a5,0x9b
ffffffc050404f06:	cbe78793          	addi	a5,a5,-834 # ffffffc05049fbc0 <current_running_1>
ffffffc050404f0a:	a029                	j	ffffffc050404f14 <kernel_mbox_act+0x3a>
ffffffc050404f0c:	0009a797          	auipc	a5,0x9a
ffffffc050404f10:	29478793          	addi	a5,a5,660 # ffffffc05049f1a0 <current_running_0>
ffffffc050404f14:	0009a717          	auipc	a4,0x9a
ffffffc050404f18:	2a470713          	addi	a4,a4,676 # ffffffc05049f1b8 <current_running>
ffffffc050404f1c:	e31c                	sd	a5,0(a4)
ffffffc050404f1e:	fcc42783          	lw	a5,-52(s0)
ffffffc050404f22:	2781                	sext.w	a5,a5
ffffffc050404f24:	02f05663          	blez	a5,ffffffc050404f50 <kernel_mbox_act+0x76>
ffffffc050404f28:	fcc42783          	lw	a5,-52(s0)
ffffffc050404f2c:	0007871b          	sext.w	a4,a5
ffffffc050404f30:	47bd                	li	a5,15
ffffffc050404f32:	00e7cf63          	blt	a5,a4,ffffffc050404f50 <kernel_mbox_act+0x76>
ffffffc050404f36:	0009b697          	auipc	a3,0x9b
ffffffc050404f3a:	0a268693          	addi	a3,a3,162 # ffffffc05049ffd8 <mailbox_array>
ffffffc050404f3e:	fcc42703          	lw	a4,-52(s0)
ffffffc050404f42:	87ba                	mv	a5,a4
ffffffc050404f44:	078e                	slli	a5,a5,0x3
ffffffc050404f46:	8f99                	sub	a5,a5,a4
ffffffc050404f48:	0796                	slli	a5,a5,0x5
ffffffc050404f4a:	97b6                	add	a5,a5,a3
ffffffc050404f4c:	439c                	lw	a5,0(a5)
ffffffc050404f4e:	eb89                	bnez	a5,ffffffc050404f60 <kernel_mbox_act+0x86>
ffffffc050404f50:	00002517          	auipc	a0,0x2
ffffffc050404f54:	73850513          	addi	a0,a0,1848 # ffffffc050407688 <__FUNCTION__.1619+0x450>
ffffffc050404f58:	527010ef          	jal	ra,ffffffc050406c7e <printk>
ffffffc050404f5c:	4781                	li	a5,0
ffffffc050404f5e:	ae41                	j	ffffffc0504052ee <kernel_mbox_act+0x414>
ffffffc050404f60:	fc842783          	lw	a5,-56(s0)
ffffffc050404f64:	0007871b          	sext.w	a4,a5
ffffffc050404f68:	04000793          	li	a5,64
ffffffc050404f6c:	00e7da63          	bge	a5,a4,ffffffc050404f80 <kernel_mbox_act+0xa6>
ffffffc050404f70:	00002517          	auipc	a0,0x2
ffffffc050404f74:	79850513          	addi	a0,a0,1944 # ffffffc050407708 <__FUNCTION__.1619+0x4d0>
ffffffc050404f78:	507010ef          	jal	ra,ffffffc050406c7e <printk>
ffffffc050404f7c:	4781                	li	a5,0
ffffffc050404f7e:	ae85                	j	ffffffc0504052ee <kernel_mbox_act+0x414>
ffffffc050404f80:	fcc42703          	lw	a4,-52(s0)
ffffffc050404f84:	87ba                	mv	a5,a4
ffffffc050404f86:	078e                	slli	a5,a5,0x3
ffffffc050404f88:	8f99                	sub	a5,a5,a4
ffffffc050404f8a:	0796                	slli	a5,a5,0x5
ffffffc050404f8c:	0009b717          	auipc	a4,0x9b
ffffffc050404f90:	04c70713          	addi	a4,a4,76 # ffffffc05049ffd8 <mailbox_array>
ffffffc050404f94:	97ba                	add	a5,a5,a4
ffffffc050404f96:	07a1                	addi	a5,a5,8
ffffffc050404f98:	fef43023          	sd	a5,-32(s0)
ffffffc050404f9c:	fe042623          	sw	zero,-20(s0)
ffffffc050404fa0:	fe042423          	sw	zero,-24(s0)
ffffffc050404fa4:	fbc42783          	lw	a5,-68(s0)
ffffffc050404fa8:	2781                	sext.w	a5,a5
ffffffc050404faa:	12079563          	bnez	a5,ffffffc0504050d4 <kernel_mbox_act+0x1fa>
ffffffc050404fae:	a0bd                	j	ffffffc05040501c <kernel_mbox_act+0x142>
ffffffc050404fb0:	fe043783          	ld	a5,-32(s0)
ffffffc050404fb4:	07878793          	addi	a5,a5,120
ffffffc050404fb8:	fc842703          	lw	a4,-56(s0)
ffffffc050404fbc:	85ba                	mv	a1,a4
ffffffc050404fbe:	853e                	mv	a0,a5
ffffffc050404fc0:	ee6ff0ef          	jal	ra,ffffffc0504046a6 <mbox_try_down>
ffffffc050404fc4:	87aa                	mv	a5,a0
ffffffc050404fc6:	fef42623          	sw	a5,-20(s0)
ffffffc050404fca:	fec42783          	lw	a5,-20(s0)
ffffffc050404fce:	2781                	sext.w	a5,a5
ffffffc050404fd0:	ef91                	bnez	a5,ffffffc050404fec <kernel_mbox_act+0x112>
ffffffc050404fd2:	fe043783          	ld	a5,-32(s0)
ffffffc050404fd6:	06078793          	addi	a5,a5,96
ffffffc050404fda:	fc842703          	lw	a4,-56(s0)
ffffffc050404fde:	85ba                	mv	a1,a4
ffffffc050404fe0:	853e                	mv	a0,a5
ffffffc050404fe2:	ec4ff0ef          	jal	ra,ffffffc0504046a6 <mbox_try_down>
ffffffc050404fe6:	87aa                	mv	a5,a0
ffffffc050404fe8:	fef42423          	sw	a5,-24(s0)
ffffffc050404fec:	fec42783          	lw	a5,-20(s0)
ffffffc050404ff0:	2781                	sext.w	a5,a5
ffffffc050404ff2:	e78d                	bnez	a5,ffffffc05040501c <kernel_mbox_act+0x142>
ffffffc050404ff4:	fe842783          	lw	a5,-24(s0)
ffffffc050404ff8:	2781                	sext.w	a5,a5
ffffffc050404ffa:	e38d                	bnez	a5,ffffffc05040501c <kernel_mbox_act+0x142>
ffffffc050404ffc:	0009a797          	auipc	a5,0x9a
ffffffc050405000:	1bc78793          	addi	a5,a5,444 # ffffffc05049f1b8 <current_running>
ffffffc050405004:	639c                	ld	a5,0(a5)
ffffffc050405006:	639c                	ld	a5,0(a5)
ffffffc050405008:	02878713          	addi	a4,a5,40
ffffffc05040500c:	fe043783          	ld	a5,-32(s0)
ffffffc050405010:	0c878793          	addi	a5,a5,200
ffffffc050405014:	85be                	mv	a1,a5
ffffffc050405016:	853a                	mv	a0,a4
ffffffc050405018:	a9ffd0ef          	jal	ra,ffffffc050402ab6 <do_block>
ffffffc05040501c:	fec42783          	lw	a5,-20(s0)
ffffffc050405020:	2781                	sext.w	a5,a5
ffffffc050405022:	e789                	bnez	a5,ffffffc05040502c <kernel_mbox_act+0x152>
ffffffc050405024:	fe842783          	lw	a5,-24(s0)
ffffffc050405028:	2781                	sext.w	a5,a5
ffffffc05040502a:	d3d9                	beqz	a5,ffffffc050404fb0 <kernel_mbox_act+0xd6>
ffffffc05040502c:	fec42783          	lw	a5,-20(s0)
ffffffc050405030:	2781                	sext.w	a5,a5
ffffffc050405032:	cf91                	beqz	a5,ffffffc05040504e <kernel_mbox_act+0x174>
ffffffc050405034:	fe043783          	ld	a5,-32(s0)
ffffffc050405038:	5fb8                	lw	a4,120(a5)
ffffffc05040503a:	fc842783          	lw	a5,-56(s0)
ffffffc05040503e:	40f707bb          	subw	a5,a4,a5
ffffffc050405042:	0007871b          	sext.w	a4,a5
ffffffc050405046:	fe043783          	ld	a5,-32(s0)
ffffffc05040504a:	dfb8                	sw	a4,120(a5)
ffffffc05040504c:	a8c9                	j	ffffffc05040511e <kernel_mbox_act+0x244>
ffffffc05040504e:	fe043783          	ld	a5,-32(s0)
ffffffc050405052:	53b8                	lw	a4,96(a5)
ffffffc050405054:	fc842783          	lw	a5,-56(s0)
ffffffc050405058:	40f707bb          	subw	a5,a4,a5
ffffffc05040505c:	0007871b          	sext.w	a4,a5
ffffffc050405060:	fe043783          	ld	a5,-32(s0)
ffffffc050405064:	d3b8                	sw	a4,96(a5)
ffffffc050405066:	a865                	j	ffffffc05040511e <kernel_mbox_act+0x244>
ffffffc050405068:	fe043783          	ld	a5,-32(s0)
ffffffc05040506c:	06078793          	addi	a5,a5,96
ffffffc050405070:	fc842703          	lw	a4,-56(s0)
ffffffc050405074:	85ba                	mv	a1,a4
ffffffc050405076:	853e                	mv	a0,a5
ffffffc050405078:	e2eff0ef          	jal	ra,ffffffc0504046a6 <mbox_try_down>
ffffffc05040507c:	87aa                	mv	a5,a0
ffffffc05040507e:	fef42423          	sw	a5,-24(s0)
ffffffc050405082:	fec42783          	lw	a5,-20(s0)
ffffffc050405086:	2781                	sext.w	a5,a5
ffffffc050405088:	ef91                	bnez	a5,ffffffc0504050a4 <kernel_mbox_act+0x1ca>
ffffffc05040508a:	fe043783          	ld	a5,-32(s0)
ffffffc05040508e:	07878793          	addi	a5,a5,120
ffffffc050405092:	fc842703          	lw	a4,-56(s0)
ffffffc050405096:	85ba                	mv	a1,a4
ffffffc050405098:	853e                	mv	a0,a5
ffffffc05040509a:	e0cff0ef          	jal	ra,ffffffc0504046a6 <mbox_try_down>
ffffffc05040509e:	87aa                	mv	a5,a0
ffffffc0504050a0:	fef42623          	sw	a5,-20(s0)
ffffffc0504050a4:	fec42783          	lw	a5,-20(s0)
ffffffc0504050a8:	2781                	sext.w	a5,a5
ffffffc0504050aa:	e78d                	bnez	a5,ffffffc0504050d4 <kernel_mbox_act+0x1fa>
ffffffc0504050ac:	fe842783          	lw	a5,-24(s0)
ffffffc0504050b0:	2781                	sext.w	a5,a5
ffffffc0504050b2:	e38d                	bnez	a5,ffffffc0504050d4 <kernel_mbox_act+0x1fa>
ffffffc0504050b4:	0009a797          	auipc	a5,0x9a
ffffffc0504050b8:	10478793          	addi	a5,a5,260 # ffffffc05049f1b8 <current_running>
ffffffc0504050bc:	639c                	ld	a5,0(a5)
ffffffc0504050be:	639c                	ld	a5,0(a5)
ffffffc0504050c0:	02878713          	addi	a4,a5,40
ffffffc0504050c4:	fe043783          	ld	a5,-32(s0)
ffffffc0504050c8:	0c878793          	addi	a5,a5,200
ffffffc0504050cc:	85be                	mv	a1,a5
ffffffc0504050ce:	853a                	mv	a0,a4
ffffffc0504050d0:	9e7fd0ef          	jal	ra,ffffffc050402ab6 <do_block>
ffffffc0504050d4:	fec42783          	lw	a5,-20(s0)
ffffffc0504050d8:	2781                	sext.w	a5,a5
ffffffc0504050da:	e789                	bnez	a5,ffffffc0504050e4 <kernel_mbox_act+0x20a>
ffffffc0504050dc:	fe842783          	lw	a5,-24(s0)
ffffffc0504050e0:	2781                	sext.w	a5,a5
ffffffc0504050e2:	d3d9                	beqz	a5,ffffffc050405068 <kernel_mbox_act+0x18e>
ffffffc0504050e4:	fec42783          	lw	a5,-20(s0)
ffffffc0504050e8:	2781                	sext.w	a5,a5
ffffffc0504050ea:	cf91                	beqz	a5,ffffffc050405106 <kernel_mbox_act+0x22c>
ffffffc0504050ec:	fe043783          	ld	a5,-32(s0)
ffffffc0504050f0:	5fb8                	lw	a4,120(a5)
ffffffc0504050f2:	fc842783          	lw	a5,-56(s0)
ffffffc0504050f6:	40f707bb          	subw	a5,a4,a5
ffffffc0504050fa:	0007871b          	sext.w	a4,a5
ffffffc0504050fe:	fe043783          	ld	a5,-32(s0)
ffffffc050405102:	dfb8                	sw	a4,120(a5)
ffffffc050405104:	a829                	j	ffffffc05040511e <kernel_mbox_act+0x244>
ffffffc050405106:	fe043783          	ld	a5,-32(s0)
ffffffc05040510a:	53b8                	lw	a4,96(a5)
ffffffc05040510c:	fc842783          	lw	a5,-56(s0)
ffffffc050405110:	40f707bb          	subw	a5,a4,a5
ffffffc050405114:	0007871b          	sext.w	a4,a5
ffffffc050405118:	fe043783          	ld	a5,-32(s0)
ffffffc05040511c:	d3b8                	sw	a4,96(a5)
ffffffc05040511e:	fe043783          	ld	a5,-32(s0)
ffffffc050405122:	09078793          	addi	a5,a5,144
ffffffc050405126:	853e                	mv	a0,a5
ffffffc050405128:	d65fc0ef          	jal	ra,ffffffc050401e8c <do_mutex_lock_acquire>
ffffffc05040512c:	fec42783          	lw	a5,-20(s0)
ffffffc050405130:	2781                	sext.w	a5,a5
ffffffc050405132:	c3e5                	beqz	a5,ffffffc050405212 <kernel_mbox_act+0x338>
ffffffc050405134:	fe043783          	ld	a5,-32(s0)
ffffffc050405138:	0b87a783          	lw	a5,184(a5)
ffffffc05040513c:	04000713          	li	a4,64
ffffffc050405140:	40f707bb          	subw	a5,a4,a5
ffffffc050405144:	fcf42e23          	sw	a5,-36(s0)
ffffffc050405148:	fc842703          	lw	a4,-56(s0)
ffffffc05040514c:	fdc42783          	lw	a5,-36(s0)
ffffffc050405150:	40f707bb          	subw	a5,a4,a5
ffffffc050405154:	fcf42c23          	sw	a5,-40(s0)
ffffffc050405158:	fdc42703          	lw	a4,-36(s0)
ffffffc05040515c:	fc842783          	lw	a5,-56(s0)
ffffffc050405160:	2701                	sext.w	a4,a4
ffffffc050405162:	2781                	sext.w	a5,a5
ffffffc050405164:	04f75663          	bge	a4,a5,ffffffc0504051b0 <kernel_mbox_act+0x2d6>
ffffffc050405168:	fe043783          	ld	a5,-32(s0)
ffffffc05040516c:	fe043703          	ld	a4,-32(s0)
ffffffc050405170:	0b872703          	lw	a4,184(a4)
ffffffc050405174:	97ba                	add	a5,a5,a4
ffffffc050405176:	fdc42703          	lw	a4,-36(s0)
ffffffc05040517a:	863a                	mv	a2,a4
ffffffc05040517c:	fc043583          	ld	a1,-64(s0)
ffffffc050405180:	853e                	mv	a0,a5
ffffffc050405182:	0ca010ef          	jal	ra,ffffffc05040624c <kmemcpy>
ffffffc050405186:	fe043683          	ld	a3,-32(s0)
ffffffc05040518a:	fdc42783          	lw	a5,-36(s0)
ffffffc05040518e:	fc043703          	ld	a4,-64(s0)
ffffffc050405192:	97ba                	add	a5,a5,a4
ffffffc050405194:	fd842703          	lw	a4,-40(s0)
ffffffc050405198:	863a                	mv	a2,a4
ffffffc05040519a:	85be                	mv	a1,a5
ffffffc05040519c:	8536                	mv	a0,a3
ffffffc05040519e:	0ae010ef          	jal	ra,ffffffc05040624c <kmemcpy>
ffffffc0504051a2:	fe043783          	ld	a5,-32(s0)
ffffffc0504051a6:	fd842703          	lw	a4,-40(s0)
ffffffc0504051aa:	0ae7ac23          	sw	a4,184(a5)
ffffffc0504051ae:	a82d                	j	ffffffc0504051e8 <kernel_mbox_act+0x30e>
ffffffc0504051b0:	fe043783          	ld	a5,-32(s0)
ffffffc0504051b4:	fe043703          	ld	a4,-32(s0)
ffffffc0504051b8:	0b872703          	lw	a4,184(a4)
ffffffc0504051bc:	97ba                	add	a5,a5,a4
ffffffc0504051be:	fc842703          	lw	a4,-56(s0)
ffffffc0504051c2:	863a                	mv	a2,a4
ffffffc0504051c4:	fc043583          	ld	a1,-64(s0)
ffffffc0504051c8:	853e                	mv	a0,a5
ffffffc0504051ca:	082010ef          	jal	ra,ffffffc05040624c <kmemcpy>
ffffffc0504051ce:	fe043783          	ld	a5,-32(s0)
ffffffc0504051d2:	0b87a783          	lw	a5,184(a5)
ffffffc0504051d6:	fc842703          	lw	a4,-56(s0)
ffffffc0504051da:	9fb9                	addw	a5,a5,a4
ffffffc0504051dc:	0007871b          	sext.w	a4,a5
ffffffc0504051e0:	fe043783          	ld	a5,-32(s0)
ffffffc0504051e4:	0ae7ac23          	sw	a4,184(a5)
ffffffc0504051e8:	fe043783          	ld	a5,-32(s0)
ffffffc0504051ec:	09078793          	addi	a5,a5,144
ffffffc0504051f0:	853e                	mv	a0,a5
ffffffc0504051f2:	d29fc0ef          	jal	ra,ffffffc050401f1a <do_mutex_lock_release>
ffffffc0504051f6:	fe043783          	ld	a5,-32(s0)
ffffffc0504051fa:	06078793          	addi	a5,a5,96
ffffffc0504051fe:	fc842703          	lw	a4,-56(s0)
ffffffc050405202:	863a                	mv	a2,a4
ffffffc050405204:	fe043583          	ld	a1,-32(s0)
ffffffc050405208:	853e                	mv	a0,a5
ffffffc05040520a:	deeff0ef          	jal	ra,ffffffc0504047f8 <mbox_act_up>
ffffffc05040520e:	4781                	li	a5,0
ffffffc050405210:	a8f9                	j	ffffffc0504052ee <kernel_mbox_act+0x414>
ffffffc050405212:	fe043783          	ld	a5,-32(s0)
ffffffc050405216:	0bc7a783          	lw	a5,188(a5)
ffffffc05040521a:	04000713          	li	a4,64
ffffffc05040521e:	40f707bb          	subw	a5,a4,a5
ffffffc050405222:	fcf42e23          	sw	a5,-36(s0)
ffffffc050405226:	fc842703          	lw	a4,-56(s0)
ffffffc05040522a:	fdc42783          	lw	a5,-36(s0)
ffffffc05040522e:	40f707bb          	subw	a5,a4,a5
ffffffc050405232:	fcf42c23          	sw	a5,-40(s0)
ffffffc050405236:	fdc42703          	lw	a4,-36(s0)
ffffffc05040523a:	fc842783          	lw	a5,-56(s0)
ffffffc05040523e:	2701                	sext.w	a4,a4
ffffffc050405240:	2781                	sext.w	a5,a5
ffffffc050405242:	04f75663          	bge	a4,a5,ffffffc05040528e <kernel_mbox_act+0x3b4>
ffffffc050405246:	fe043783          	ld	a5,-32(s0)
ffffffc05040524a:	fe043703          	ld	a4,-32(s0)
ffffffc05040524e:	0bc72703          	lw	a4,188(a4)
ffffffc050405252:	97ba                	add	a5,a5,a4
ffffffc050405254:	fdc42703          	lw	a4,-36(s0)
ffffffc050405258:	863a                	mv	a2,a4
ffffffc05040525a:	85be                	mv	a1,a5
ffffffc05040525c:	fc043503          	ld	a0,-64(s0)
ffffffc050405260:	7ed000ef          	jal	ra,ffffffc05040624c <kmemcpy>
ffffffc050405264:	fdc42783          	lw	a5,-36(s0)
ffffffc050405268:	fc043703          	ld	a4,-64(s0)
ffffffc05040526c:	97ba                	add	a5,a5,a4
ffffffc05040526e:	fe043703          	ld	a4,-32(s0)
ffffffc050405272:	fd842683          	lw	a3,-40(s0)
ffffffc050405276:	8636                	mv	a2,a3
ffffffc050405278:	85ba                	mv	a1,a4
ffffffc05040527a:	853e                	mv	a0,a5
ffffffc05040527c:	7d1000ef          	jal	ra,ffffffc05040624c <kmemcpy>
ffffffc050405280:	fe043783          	ld	a5,-32(s0)
ffffffc050405284:	fd842703          	lw	a4,-40(s0)
ffffffc050405288:	0ae7ae23          	sw	a4,188(a5)
ffffffc05040528c:	a82d                	j	ffffffc0504052c6 <kernel_mbox_act+0x3ec>
ffffffc05040528e:	fe043783          	ld	a5,-32(s0)
ffffffc050405292:	fe043703          	ld	a4,-32(s0)
ffffffc050405296:	0bc72703          	lw	a4,188(a4)
ffffffc05040529a:	97ba                	add	a5,a5,a4
ffffffc05040529c:	fc842703          	lw	a4,-56(s0)
ffffffc0504052a0:	863a                	mv	a2,a4
ffffffc0504052a2:	85be                	mv	a1,a5
ffffffc0504052a4:	fc043503          	ld	a0,-64(s0)
ffffffc0504052a8:	7a5000ef          	jal	ra,ffffffc05040624c <kmemcpy>
ffffffc0504052ac:	fe043783          	ld	a5,-32(s0)
ffffffc0504052b0:	0bc7a783          	lw	a5,188(a5)
ffffffc0504052b4:	fc842703          	lw	a4,-56(s0)
ffffffc0504052b8:	9fb9                	addw	a5,a5,a4
ffffffc0504052ba:	0007871b          	sext.w	a4,a5
ffffffc0504052be:	fe043783          	ld	a5,-32(s0)
ffffffc0504052c2:	0ae7ae23          	sw	a4,188(a5)
ffffffc0504052c6:	fe043783          	ld	a5,-32(s0)
ffffffc0504052ca:	09078793          	addi	a5,a5,144
ffffffc0504052ce:	853e                	mv	a0,a5
ffffffc0504052d0:	c4bfc0ef          	jal	ra,ffffffc050401f1a <do_mutex_lock_release>
ffffffc0504052d4:	fe043783          	ld	a5,-32(s0)
ffffffc0504052d8:	07878793          	addi	a5,a5,120
ffffffc0504052dc:	fc842703          	lw	a4,-56(s0)
ffffffc0504052e0:	863a                	mv	a2,a4
ffffffc0504052e2:	fe043583          	ld	a1,-32(s0)
ffffffc0504052e6:	853e                	mv	a0,a5
ffffffc0504052e8:	d10ff0ef          	jal	ra,ffffffc0504047f8 <mbox_act_up>
ffffffc0504052ec:	4785                	li	a5,1
ffffffc0504052ee:	853e                	mv	a0,a5
ffffffc0504052f0:	60a6                	ld	ra,72(sp)
ffffffc0504052f2:	6406                	ld	s0,64(sp)
ffffffc0504052f4:	6161                	addi	sp,sp,80
ffffffc0504052f6:	8082                	ret

ffffffc0504052f8 <sbi_sd_write>:
ffffffc0504052f8:	1101                	addi	sp,sp,-32
ffffffc0504052fa:	ec22                	sd	s0,24(sp)
ffffffc0504052fc:	1000                	addi	s0,sp,32
ffffffc0504052fe:	87aa                	mv	a5,a0
ffffffc050405300:	86ae                	mv	a3,a1
ffffffc050405302:	8732                	mv	a4,a2
ffffffc050405304:	fef42623          	sw	a5,-20(s0)
ffffffc050405308:	87b6                	mv	a5,a3
ffffffc05040530a:	fef42423          	sw	a5,-24(s0)
ffffffc05040530e:	87ba                	mv	a5,a4
ffffffc050405310:	fef42223          	sw	a5,-28(s0)
ffffffc050405314:	fec46783          	lwu	a5,-20(s0)
ffffffc050405318:	853e                	mv	a0,a5
ffffffc05040531a:	fe846783          	lwu	a5,-24(s0)
ffffffc05040531e:	85be                	mv	a1,a5
ffffffc050405320:	fe446783          	lwu	a5,-28(s0)
ffffffc050405324:	863e                	mv	a2,a5
ffffffc050405326:	48a9                	li	a7,10
ffffffc050405328:	00000073          	ecall
ffffffc05040532c:	87aa                	mv	a5,a0
ffffffc05040532e:	853e                	mv	a0,a5
ffffffc050405330:	6462                	ld	s0,24(sp)
ffffffc050405332:	6105                	addi	sp,sp,32
ffffffc050405334:	8082                	ret

ffffffc050405336 <local_flush_tlb_all>:
ffffffc050405336:	1141                	addi	sp,sp,-16
ffffffc050405338:	e422                	sd	s0,8(sp)
ffffffc05040533a:	0800                	addi	s0,sp,16
ffffffc05040533c:	12000073          	sfence.vma
ffffffc050405340:	0001                	nop
ffffffc050405342:	6422                	ld	s0,8(sp)
ffffffc050405344:	0141                	addi	sp,sp,16
ffffffc050405346:	8082                	ret

ffffffc050405348 <kva2pa>:
ffffffc050405348:	1101                	addi	sp,sp,-32
ffffffc05040534a:	ec22                	sd	s0,24(sp)
ffffffc05040534c:	1000                	addi	s0,sp,32
ffffffc05040534e:	fea43423          	sd	a0,-24(s0)
ffffffc050405352:	fe843703          	ld	a4,-24(s0)
ffffffc050405356:	4785                	li	a5,1
ffffffc050405358:	179a                	slli	a5,a5,0x26
ffffffc05040535a:	97ba                	add	a5,a5,a4
ffffffc05040535c:	853e                	mv	a0,a5
ffffffc05040535e:	6462                	ld	s0,24(sp)
ffffffc050405360:	6105                	addi	sp,sp,32
ffffffc050405362:	8082                	ret

ffffffc050405364 <pa2kva>:
ffffffc050405364:	1101                	addi	sp,sp,-32
ffffffc050405366:	ec22                	sd	s0,24(sp)
ffffffc050405368:	1000                	addi	s0,sp,32
ffffffc05040536a:	fea43423          	sd	a0,-24(s0)
ffffffc05040536e:	fe843703          	ld	a4,-24(s0)
ffffffc050405372:	57fd                	li	a5,-1
ffffffc050405374:	179a                	slli	a5,a5,0x26
ffffffc050405376:	97ba                	add	a5,a5,a4
ffffffc050405378:	853e                	mv	a0,a5
ffffffc05040537a:	6462                	ld	s0,24(sp)
ffffffc05040537c:	6105                	addi	sp,sp,32
ffffffc05040537e:	8082                	ret

ffffffc050405380 <get_pa>:
ffffffc050405380:	7179                	addi	sp,sp,-48
ffffffc050405382:	f422                	sd	s0,40(sp)
ffffffc050405384:	1800                	addi	s0,sp,48
ffffffc050405386:	fca43c23          	sd	a0,-40(s0)
ffffffc05040538a:	57fd                	li	a5,-1
ffffffc05040538c:	83a9                	srli	a5,a5,0xa
ffffffc05040538e:	fef43423          	sd	a5,-24(s0)
ffffffc050405392:	fd843703          	ld	a4,-40(s0)
ffffffc050405396:	fe843783          	ld	a5,-24(s0)
ffffffc05040539a:	8ff9                	and	a5,a5,a4
ffffffc05040539c:	83a9                	srli	a5,a5,0xa
ffffffc05040539e:	07b2                	slli	a5,a5,0xc
ffffffc0504053a0:	853e                	mv	a0,a5
ffffffc0504053a2:	7422                	ld	s0,40(sp)
ffffffc0504053a4:	6145                	addi	sp,sp,48
ffffffc0504053a6:	8082                	ret

ffffffc0504053a8 <set_pfn>:
ffffffc0504053a8:	7179                	addi	sp,sp,-48
ffffffc0504053aa:	f422                	sd	s0,40(sp)
ffffffc0504053ac:	1800                	addi	s0,sp,48
ffffffc0504053ae:	fca43c23          	sd	a0,-40(s0)
ffffffc0504053b2:	fcb43823          	sd	a1,-48(s0)
ffffffc0504053b6:	3ff00793          	li	a5,1023
ffffffc0504053ba:	fef43423          	sd	a5,-24(s0)
ffffffc0504053be:	fe843703          	ld	a4,-24(s0)
ffffffc0504053c2:	57fd                	li	a5,-1
ffffffc0504053c4:	83a9                	srli	a5,a5,0xa
ffffffc0504053c6:	8fb9                	xor	a5,a5,a4
ffffffc0504053c8:	fef43023          	sd	a5,-32(s0)
ffffffc0504053cc:	fd843783          	ld	a5,-40(s0)
ffffffc0504053d0:	6398                	ld	a4,0(a5)
ffffffc0504053d2:	fd043783          	ld	a5,-48(s0)
ffffffc0504053d6:	00a79693          	slli	a3,a5,0xa
ffffffc0504053da:	fe043783          	ld	a5,-32(s0)
ffffffc0504053de:	8ff5                	and	a5,a5,a3
ffffffc0504053e0:	8f5d                	or	a4,a4,a5
ffffffc0504053e2:	fd843783          	ld	a5,-40(s0)
ffffffc0504053e6:	e398                	sd	a4,0(a5)
ffffffc0504053e8:	0001                	nop
ffffffc0504053ea:	7422                	ld	s0,40(sp)
ffffffc0504053ec:	6145                	addi	sp,sp,48
ffffffc0504053ee:	8082                	ret

ffffffc0504053f0 <set_attribute>:
ffffffc0504053f0:	1101                	addi	sp,sp,-32
ffffffc0504053f2:	ec22                	sd	s0,24(sp)
ffffffc0504053f4:	1000                	addi	s0,sp,32
ffffffc0504053f6:	fea43423          	sd	a0,-24(s0)
ffffffc0504053fa:	feb43023          	sd	a1,-32(s0)
ffffffc0504053fe:	fe843783          	ld	a5,-24(s0)
ffffffc050405402:	6398                	ld	a4,0(a5)
ffffffc050405404:	fe043783          	ld	a5,-32(s0)
ffffffc050405408:	8f5d                	or	a4,a4,a5
ffffffc05040540a:	fe843783          	ld	a5,-24(s0)
ffffffc05040540e:	e398                	sd	a4,0(a5)
ffffffc050405410:	0001                	nop
ffffffc050405412:	6462                	ld	s0,24(sp)
ffffffc050405414:	6105                	addi	sp,sp,32
ffffffc050405416:	8082                	ret

ffffffc050405418 <clear_pgdir>:
ffffffc050405418:	7179                	addi	sp,sp,-48
ffffffc05040541a:	f422                	sd	s0,40(sp)
ffffffc05040541c:	1800                	addi	s0,sp,48
ffffffc05040541e:	fca43c23          	sd	a0,-40(s0)
ffffffc050405422:	fd843783          	ld	a5,-40(s0)
ffffffc050405426:	fef43423          	sd	a5,-24(s0)
ffffffc05040542a:	fe042223          	sw	zero,-28(s0)
ffffffc05040542e:	a839                	j	ffffffc05040544c <clear_pgdir+0x34>
ffffffc050405430:	fe843783          	ld	a5,-24(s0)
ffffffc050405434:	0007b023          	sd	zero,0(a5)
ffffffc050405438:	fe442783          	lw	a5,-28(s0)
ffffffc05040543c:	2785                	addiw	a5,a5,1
ffffffc05040543e:	fef42223          	sw	a5,-28(s0)
ffffffc050405442:	fe843783          	ld	a5,-24(s0)
ffffffc050405446:	07a1                	addi	a5,a5,8
ffffffc050405448:	fef43423          	sd	a5,-24(s0)
ffffffc05040544c:	fe442783          	lw	a5,-28(s0)
ffffffc050405450:	0007871b          	sext.w	a4,a5
ffffffc050405454:	1ff00793          	li	a5,511
ffffffc050405458:	fce7dce3          	bge	a5,a4,ffffffc050405430 <clear_pgdir+0x18>
ffffffc05040545c:	0001                	nop
ffffffc05040545e:	0001                	nop
ffffffc050405460:	7422                	ld	s0,40(sp)
ffffffc050405462:	6145                	addi	sp,sp,48
ffffffc050405464:	8082                	ret

ffffffc050405466 <swap_error>:
ffffffc050405466:	1141                	addi	sp,sp,-16
ffffffc050405468:	e406                	sd	ra,8(sp)
ffffffc05040546a:	e022                	sd	s0,0(sp)
ffffffc05040546c:	0800                	addi	s0,sp,16
ffffffc05040546e:	00002517          	auipc	a0,0x2
ffffffc050405472:	2c250513          	addi	a0,a0,706 # ffffffc050407730 <__FUNCTION__.1619+0x4f8>
ffffffc050405476:	093010ef          	jal	ra,ffffffc050406d08 <prints>
ffffffc05040547a:	c79fd0ef          	jal	ra,ffffffc0504030f2 <do_exit>
ffffffc05040547e:	0001                	nop
ffffffc050405480:	60a2                	ld	ra,8(sp)
ffffffc050405482:	6402                	ld	s0,0(sp)
ffffffc050405484:	0141                	addi	sp,sp,16
ffffffc050405486:	8082                	ret

ffffffc050405488 <swap_page>:
ffffffc050405488:	1101                	addi	sp,sp,-32
ffffffc05040548a:	ec06                	sd	ra,24(sp)
ffffffc05040548c:	e822                	sd	s0,16(sp)
ffffffc05040548e:	1000                	addi	s0,sp,32
ffffffc050405490:	e3dfa0ef          	jal	ra,ffffffc0504002cc <get_current_cpu_id>
ffffffc050405494:	87aa                	mv	a5,a0
ffffffc050405496:	c791                	beqz	a5,ffffffc0504054a2 <swap_page+0x1a>
ffffffc050405498:	0009a797          	auipc	a5,0x9a
ffffffc05040549c:	72878793          	addi	a5,a5,1832 # ffffffc05049fbc0 <current_running_1>
ffffffc0504054a0:	a029                	j	ffffffc0504054aa <swap_page+0x22>
ffffffc0504054a2:	0009a797          	auipc	a5,0x9a
ffffffc0504054a6:	cfe78793          	addi	a5,a5,-770 # ffffffc05049f1a0 <current_running_0>
ffffffc0504054aa:	0009a717          	auipc	a4,0x9a
ffffffc0504054ae:	d0e70713          	addi	a4,a4,-754 # ffffffc05049f1b8 <current_running>
ffffffc0504054b2:	e31c                	sd	a5,0(a4)
ffffffc0504054b4:	82018793          	addi	a5,gp,-2016 # ffffffc0504553e8 <allocmem_head>
ffffffc0504054b8:	439c                	lw	a5,0(a5)
ffffffc0504054ba:	37fd                	addiw	a5,a5,-1
ffffffc0504054bc:	fef42623          	sw	a5,-20(s0)
ffffffc0504054c0:	a835                	j	ffffffc0504054fc <swap_page+0x74>
ffffffc0504054c2:	fec42703          	lw	a4,-20(s0)
ffffffc0504054c6:	41f7579b          	sraiw	a5,a4,0x1f
ffffffc0504054ca:	0147d79b          	srliw	a5,a5,0x14
ffffffc0504054ce:	00f706bb          	addw	a3,a4,a5
ffffffc0504054d2:	6705                	lui	a4,0x1
ffffffc0504054d4:	177d                	addi	a4,a4,-1
ffffffc0504054d6:	8f75                	and	a4,a4,a3
ffffffc0504054d8:	40f707bb          	subw	a5,a4,a5
ffffffc0504054dc:	0007871b          	sext.w	a4,a5
ffffffc0504054e0:	82018793          	addi	a5,gp,-2016 # ffffffc0504553e8 <allocmem_head>
ffffffc0504054e4:	439c                	lw	a5,0(a5)
ffffffc0504054e6:	00f71663          	bne	a4,a5,ffffffc0504054f2 <swap_page+0x6a>
ffffffc0504054ea:	f7dff0ef          	jal	ra,ffffffc050405466 <swap_error>
ffffffc0504054ee:	4781                	li	a5,0
ffffffc0504054f0:	ac99                	j	ffffffc050405746 <swap_page+0x2be>
ffffffc0504054f2:	fec42783          	lw	a5,-20(s0)
ffffffc0504054f6:	37fd                	addiw	a5,a5,-1
ffffffc0504054f8:	fef42623          	sw	a5,-20(s0)
ffffffc0504054fc:	fec42703          	lw	a4,-20(s0)
ffffffc050405500:	41f7579b          	sraiw	a5,a4,0x1f
ffffffc050405504:	0147d79b          	srliw	a5,a5,0x14
ffffffc050405508:	00f706bb          	addw	a3,a4,a5
ffffffc05040550c:	6705                	lui	a4,0x1
ffffffc05040550e:	177d                	addi	a4,a4,-1
ffffffc050405510:	8f75                	and	a4,a4,a3
ffffffc050405512:	40f707bb          	subw	a5,a4,a5
ffffffc050405516:	0007871b          	sext.w	a4,a5
ffffffc05040551a:	00072697          	auipc	a3,0x72
ffffffc05040551e:	89e68693          	addi	a3,a3,-1890 # ffffffc050476db8 <allocmem_pool>
ffffffc050405522:	87ba                	mv	a5,a4
ffffffc050405524:	078a                	slli	a5,a5,0x2
ffffffc050405526:	97ba                	add	a5,a5,a4
ffffffc050405528:	078e                	slli	a5,a5,0x3
ffffffc05040552a:	97b6                	add	a5,a5,a3
ffffffc05040552c:	0207c783          	lbu	a5,32(a5)
ffffffc050405530:	fbc9                	bnez	a5,ffffffc0504054c2 <swap_page+0x3a>
ffffffc050405532:	fec42783          	lw	a5,-20(s0)
ffffffc050405536:	2785                	addiw	a5,a5,1
ffffffc050405538:	2781                	sext.w	a5,a5
ffffffc05040553a:	873e                	mv	a4,a5
ffffffc05040553c:	41f7579b          	sraiw	a5,a4,0x1f
ffffffc050405540:	0147d79b          	srliw	a5,a5,0x14
ffffffc050405544:	00f706bb          	addw	a3,a4,a5
ffffffc050405548:	6705                	lui	a4,0x1
ffffffc05040554a:	177d                	addi	a4,a4,-1
ffffffc05040554c:	8f75                	and	a4,a4,a3
ffffffc05040554e:	40f707bb          	subw	a5,a4,a5
ffffffc050405552:	fef42623          	sw	a5,-20(s0)
ffffffc050405556:	00072697          	auipc	a3,0x72
ffffffc05040555a:	86268693          	addi	a3,a3,-1950 # ffffffc050476db8 <allocmem_pool>
ffffffc05040555e:	fec42703          	lw	a4,-20(s0)
ffffffc050405562:	87ba                	mv	a5,a4
ffffffc050405564:	078a                	slli	a5,a5,0x2
ffffffc050405566:	97ba                	add	a5,a5,a4
ffffffc050405568:	078e                	slli	a5,a5,0x3
ffffffc05040556a:	97b6                	add	a5,a5,a3
ffffffc05040556c:	0207c783          	lbu	a5,32(a5)
ffffffc050405570:	873e                	mv	a4,a5
ffffffc050405572:	4785                	li	a5,1
ffffffc050405574:	1cf71663          	bne	a4,a5,ffffffc050405740 <swap_page+0x2b8>
ffffffc050405578:	81c18793          	addi	a5,gp,-2020 # ffffffc0504553e4 <swapmem_head>
ffffffc05040557c:	439c                	lw	a5,0(a5)
ffffffc05040557e:	2785                	addiw	a5,a5,1
ffffffc050405580:	2781                	sext.w	a5,a5
ffffffc050405582:	873e                	mv	a4,a5
ffffffc050405584:	41f7579b          	sraiw	a5,a4,0x1f
ffffffc050405588:	0147d79b          	srliw	a5,a5,0x14
ffffffc05040558c:	00f706bb          	addw	a3,a4,a5
ffffffc050405590:	6705                	lui	a4,0x1
ffffffc050405592:	177d                	addi	a4,a4,-1
ffffffc050405594:	8f75                	and	a4,a4,a3
ffffffc050405596:	40f707bb          	subw	a5,a4,a5
ffffffc05040559a:	2781                	sext.w	a5,a5
ffffffc05040559c:	00052717          	auipc	a4,0x52
ffffffc0504055a0:	81c70713          	addi	a4,a4,-2020 # ffffffc050456db8 <swapmem_pool>
ffffffc0504055a4:	0796                	slli	a5,a5,0x5
ffffffc0504055a6:	97ba                	add	a5,a5,a4
ffffffc0504055a8:	0187c783          	lbu	a5,24(a5)
ffffffc0504055ac:	18079763          	bnez	a5,ffffffc05040573a <swap_page+0x2b2>
ffffffc0504055b0:	81c18793          	addi	a5,gp,-2020 # ffffffc0504553e4 <swapmem_head>
ffffffc0504055b4:	439c                	lw	a5,0(a5)
ffffffc0504055b6:	2785                	addiw	a5,a5,1
ffffffc0504055b8:	2781                	sext.w	a5,a5
ffffffc0504055ba:	873e                	mv	a4,a5
ffffffc0504055bc:	41f7579b          	sraiw	a5,a4,0x1f
ffffffc0504055c0:	0147d79b          	srliw	a5,a5,0x14
ffffffc0504055c4:	00f706bb          	addw	a3,a4,a5
ffffffc0504055c8:	6705                	lui	a4,0x1
ffffffc0504055ca:	177d                	addi	a4,a4,-1
ffffffc0504055cc:	8f75                	and	a4,a4,a3
ffffffc0504055ce:	40f707bb          	subw	a5,a4,a5
ffffffc0504055d2:	0007871b          	sext.w	a4,a5
ffffffc0504055d6:	81c18793          	addi	a5,gp,-2020 # ffffffc0504553e4 <swapmem_head>
ffffffc0504055da:	c398                	sw	a4,0(a5)
ffffffc0504055dc:	81c18793          	addi	a5,gp,-2020 # ffffffc0504553e4 <swapmem_head>
ffffffc0504055e0:	439c                	lw	a5,0(a5)
ffffffc0504055e2:	00051717          	auipc	a4,0x51
ffffffc0504055e6:	7d670713          	addi	a4,a4,2006 # ffffffc050456db8 <swapmem_pool>
ffffffc0504055ea:	0796                	slli	a5,a5,0x5
ffffffc0504055ec:	97ba                	add	a5,a5,a4
ffffffc0504055ee:	4705                	li	a4,1
ffffffc0504055f0:	00e78c23          	sb	a4,24(a5)
ffffffc0504055f4:	0009a797          	auipc	a5,0x9a
ffffffc0504055f8:	bc478793          	addi	a5,a5,-1084 # ffffffc05049f1b8 <current_running>
ffffffc0504055fc:	639c                	ld	a5,0(a5)
ffffffc0504055fe:	639c                	ld	a5,0(a5)
ffffffc050405600:	0987a783          	lw	a5,152(a5)
ffffffc050405604:	c785                	beqz	a5,ffffffc05040562c <swap_page+0x1a4>
ffffffc050405606:	0009a797          	auipc	a5,0x9a
ffffffc05040560a:	bb278793          	addi	a5,a5,-1102 # ffffffc05049f1b8 <current_running>
ffffffc05040560e:	639c                	ld	a5,0(a5)
ffffffc050405610:	6398                	ld	a4,0(a5)
ffffffc050405612:	81c18793          	addi	a5,gp,-2020 # ffffffc0504553e4 <swapmem_head>
ffffffc050405616:	439c                	lw	a5,0(a5)
ffffffc050405618:	09872703          	lw	a4,152(a4)
ffffffc05040561c:	00051697          	auipc	a3,0x51
ffffffc050405620:	79c68693          	addi	a3,a3,1948 # ffffffc050456db8 <swapmem_pool>
ffffffc050405624:	0796                	slli	a5,a5,0x5
ffffffc050405626:	97b6                	add	a5,a5,a3
ffffffc050405628:	c398                	sw	a4,0(a5)
ffffffc05040562a:	a015                	j	ffffffc05040564e <swap_page+0x1c6>
ffffffc05040562c:	0009a797          	auipc	a5,0x9a
ffffffc050405630:	b8c78793          	addi	a5,a5,-1140 # ffffffc05049f1b8 <current_running>
ffffffc050405634:	639c                	ld	a5,0(a5)
ffffffc050405636:	6398                	ld	a4,0(a5)
ffffffc050405638:	81c18793          	addi	a5,gp,-2020 # ffffffc0504553e4 <swapmem_head>
ffffffc05040563c:	439c                	lw	a5,0(a5)
ffffffc05040563e:	4738                	lw	a4,72(a4)
ffffffc050405640:	00051697          	auipc	a3,0x51
ffffffc050405644:	77868693          	addi	a3,a3,1912 # ffffffc050456db8 <swapmem_pool>
ffffffc050405648:	0796                	slli	a5,a5,0x5
ffffffc05040564a:	97b6                	add	a5,a5,a3
ffffffc05040564c:	c398                	sw	a4,0(a5)
ffffffc05040564e:	81c18793          	addi	a5,gp,-2020 # ffffffc0504553e4 <swapmem_head>
ffffffc050405652:	4390                	lw	a2,0(a5)
ffffffc050405654:	00071697          	auipc	a3,0x71
ffffffc050405658:	76468693          	addi	a3,a3,1892 # ffffffc050476db8 <allocmem_pool>
ffffffc05040565c:	fec42703          	lw	a4,-20(s0)
ffffffc050405660:	87ba                	mv	a5,a4
ffffffc050405662:	078a                	slli	a5,a5,0x2
ffffffc050405664:	97ba                	add	a5,a5,a4
ffffffc050405666:	078e                	slli	a5,a5,0x3
ffffffc050405668:	97b6                	add	a5,a5,a3
ffffffc05040566a:	6b98                	ld	a4,16(a5)
ffffffc05040566c:	00051697          	auipc	a3,0x51
ffffffc050405670:	74c68693          	addi	a3,a3,1868 # ffffffc050456db8 <swapmem_pool>
ffffffc050405674:	00561793          	slli	a5,a2,0x5
ffffffc050405678:	97b6                	add	a5,a5,a3
ffffffc05040567a:	e798                	sd	a4,8(a5)
ffffffc05040567c:	81c18793          	addi	a5,gp,-2020 # ffffffc0504553e4 <swapmem_head>
ffffffc050405680:	4390                	lw	a2,0(a5)
ffffffc050405682:	00071697          	auipc	a3,0x71
ffffffc050405686:	73668693          	addi	a3,a3,1846 # ffffffc050476db8 <allocmem_pool>
ffffffc05040568a:	fec42703          	lw	a4,-20(s0)
ffffffc05040568e:	87ba                	mv	a5,a4
ffffffc050405690:	078a                	slli	a5,a5,0x2
ffffffc050405692:	97ba                	add	a5,a5,a4
ffffffc050405694:	078e                	slli	a5,a5,0x3
ffffffc050405696:	97b6                	add	a5,a5,a3
ffffffc050405698:	6f98                	ld	a4,24(a5)
ffffffc05040569a:	00051697          	auipc	a3,0x51
ffffffc05040569e:	71e68693          	addi	a3,a3,1822 # ffffffc050456db8 <swapmem_pool>
ffffffc0504056a2:	00561793          	slli	a5,a2,0x5
ffffffc0504056a6:	97b6                	add	a5,a5,a3
ffffffc0504056a8:	eb98                	sd	a4,16(a5)
ffffffc0504056aa:	00071697          	auipc	a3,0x71
ffffffc0504056ae:	70e68693          	addi	a3,a3,1806 # ffffffc050476db8 <allocmem_pool>
ffffffc0504056b2:	fec42703          	lw	a4,-20(s0)
ffffffc0504056b6:	87ba                	mv	a5,a4
ffffffc0504056b8:	078a                	slli	a5,a5,0x2
ffffffc0504056ba:	97ba                	add	a5,a5,a4
ffffffc0504056bc:	078e                	slli	a5,a5,0x3
ffffffc0504056be:	97b6                	add	a5,a5,a3
ffffffc0504056c0:	02078023          	sb	zero,32(a5)
ffffffc0504056c4:	00071697          	auipc	a3,0x71
ffffffc0504056c8:	6f468693          	addi	a3,a3,1780 # ffffffc050476db8 <allocmem_pool>
ffffffc0504056cc:	fec42703          	lw	a4,-20(s0)
ffffffc0504056d0:	87ba                	mv	a5,a4
ffffffc0504056d2:	078a                	slli	a5,a5,0x2
ffffffc0504056d4:	97ba                	add	a5,a5,a4
ffffffc0504056d6:	078e                	slli	a5,a5,0x3
ffffffc0504056d8:	97b6                	add	a5,a5,a3
ffffffc0504056da:	6f9c                	ld	a5,24(a5)
ffffffc0504056dc:	0007b023          	sd	zero,0(a5)
ffffffc0504056e0:	c57ff0ef          	jal	ra,ffffffc050405336 <local_flush_tlb_all>
ffffffc0504056e4:	00071697          	auipc	a3,0x71
ffffffc0504056e8:	6d468693          	addi	a3,a3,1748 # ffffffc050476db8 <allocmem_pool>
ffffffc0504056ec:	fec42703          	lw	a4,-20(s0)
ffffffc0504056f0:	87ba                	mv	a5,a4
ffffffc0504056f2:	078a                	slli	a5,a5,0x2
ffffffc0504056f4:	97ba                	add	a5,a5,a4
ffffffc0504056f6:	078e                	slli	a5,a5,0x3
ffffffc0504056f8:	97b6                	add	a5,a5,a3
ffffffc0504056fa:	679c                	ld	a5,8(a5)
ffffffc0504056fc:	0007871b          	sext.w	a4,a5
ffffffc050405700:	81c18793          	addi	a5,gp,-2020 # ffffffc0504553e4 <swapmem_head>
ffffffc050405704:	439c                	lw	a5,0(a5)
ffffffc050405706:	0037979b          	slliw	a5,a5,0x3
ffffffc05040570a:	2781                	sext.w	a5,a5
ffffffc05040570c:	2781                	sext.w	a5,a5
ffffffc05040570e:	863e                	mv	a2,a5
ffffffc050405710:	45a1                	li	a1,8
ffffffc050405712:	853a                	mv	a0,a4
ffffffc050405714:	be5ff0ef          	jal	ra,ffffffc0504052f8 <sbi_sd_write>
ffffffc050405718:	00071697          	auipc	a3,0x71
ffffffc05040571c:	6a068693          	addi	a3,a3,1696 # ffffffc050476db8 <allocmem_pool>
ffffffc050405720:	fec42703          	lw	a4,-20(s0)
ffffffc050405724:	87ba                	mv	a5,a4
ffffffc050405726:	078a                	slli	a5,a5,0x2
ffffffc050405728:	97ba                	add	a5,a5,a4
ffffffc05040572a:	078e                	slli	a5,a5,0x3
ffffffc05040572c:	97b6                	add	a5,a5,a3
ffffffc05040572e:	679c                	ld	a5,8(a5)
ffffffc050405730:	853e                	mv	a0,a5
ffffffc050405732:	c33ff0ef          	jal	ra,ffffffc050405364 <pa2kva>
ffffffc050405736:	87aa                	mv	a5,a0
ffffffc050405738:	a039                	j	ffffffc050405746 <swap_page+0x2be>
ffffffc05040573a:	d2dff0ef          	jal	ra,ffffffc050405466 <swap_error>
ffffffc05040573e:	a019                	j	ffffffc050405744 <swap_page+0x2bc>
ffffffc050405740:	d27ff0ef          	jal	ra,ffffffc050405466 <swap_error>
ffffffc050405744:	4781                	li	a5,0
ffffffc050405746:	853e                	mv	a0,a5
ffffffc050405748:	60e2                	ld	ra,24(sp)
ffffffc05040574a:	6442                	ld	s0,16(sp)
ffffffc05040574c:	6105                	addi	sp,sp,32
ffffffc05040574e:	8082                	ret

ffffffc050405750 <allocPage>:
ffffffc050405750:	7179                	addi	sp,sp,-48
ffffffc050405752:	f406                	sd	ra,40(sp)
ffffffc050405754:	f022                	sd	s0,32(sp)
ffffffc050405756:	1800                	addi	s0,sp,48
ffffffc050405758:	87aa                	mv	a5,a0
ffffffc05040575a:	fcf42e23          	sw	a5,-36(s0)
ffffffc05040575e:	81818793          	addi	a5,gp,-2024 # ffffffc0504553e0 <freemem_head>
ffffffc050405762:	439c                	lw	a5,0(a5)
ffffffc050405764:	0607c063          	bltz	a5,ffffffc0504057c4 <allocPage+0x74>
ffffffc050405768:	81818793          	addi	a5,gp,-2024 # ffffffc0504553e0 <freemem_head>
ffffffc05040576c:	439c                	lw	a5,0(a5)
ffffffc05040576e:	fef42223          	sw	a5,-28(s0)
ffffffc050405772:	81818793          	addi	a5,gp,-2024 # ffffffc0504553e0 <freemem_head>
ffffffc050405776:	439c                	lw	a5,0(a5)
ffffffc050405778:	00c7979b          	slliw	a5,a5,0xc
ffffffc05040577c:	2781                	sext.w	a5,a5
ffffffc05040577e:	873e                	mv	a4,a5
ffffffc050405780:	ff0147b7          	lui	a5,0xff014
ffffffc050405784:	40178793          	addi	a5,a5,1025 # ffffffffff014401 <__BSS_END__+0x3faeb73429>
ffffffc050405788:	07ba                	slli	a5,a5,0xe
ffffffc05040578a:	97ba                	add	a5,a5,a4
ffffffc05040578c:	fef43423          	sd	a5,-24(s0)
ffffffc050405790:	81818793          	addi	a5,gp,-2024 # ffffffc0504553e0 <freemem_head>
ffffffc050405794:	439c                	lw	a5,0(a5)
ffffffc050405796:	00002717          	auipc	a4,0x2
ffffffc05040579a:	1ca70713          	addi	a4,a4,458 # ffffffc050407960 <freemem_pool>
ffffffc05040579e:	078a                	slli	a5,a5,0x2
ffffffc0504057a0:	97ba                	add	a5,a5,a4
ffffffc0504057a2:	4398                	lw	a4,0(a5)
ffffffc0504057a4:	81818793          	addi	a5,gp,-2024 # ffffffc0504553e0 <freemem_head>
ffffffc0504057a8:	c398                	sw	a4,0(a5)
ffffffc0504057aa:	00002717          	auipc	a4,0x2
ffffffc0504057ae:	1b670713          	addi	a4,a4,438 # ffffffc050407960 <freemem_pool>
ffffffc0504057b2:	fe442783          	lw	a5,-28(s0)
ffffffc0504057b6:	078a                	slli	a5,a5,0x2
ffffffc0504057b8:	97ba                	add	a5,a5,a4
ffffffc0504057ba:	577d                	li	a4,-1
ffffffc0504057bc:	c398                	sw	a4,0(a5)
ffffffc0504057be:	fe843783          	ld	a5,-24(s0)
ffffffc0504057c2:	a889                	j	ffffffc050405814 <allocPage+0xc4>
ffffffc0504057c4:	00050797          	auipc	a5,0x50
ffffffc0504057c8:	c1478793          	addi	a5,a5,-1004 # ffffffc0504553d8 <memCurr>
ffffffc0504057cc:	6398                	ld	a4,0(a5)
ffffffc0504057ce:	6785                	lui	a5,0x1
ffffffc0504057d0:	17fd                	addi	a5,a5,-1
ffffffc0504057d2:	973e                	add	a4,a4,a5
ffffffc0504057d4:	77fd                	lui	a5,0xfffff
ffffffc0504057d6:	8ff9                	and	a5,a5,a4
ffffffc0504057d8:	fef43423          	sd	a5,-24(s0)
ffffffc0504057dc:	fe843703          	ld	a4,-24(s0)
ffffffc0504057e0:	fe0297b7          	lui	a5,0xfe029
ffffffc0504057e4:	07b6                	slli	a5,a5,0xd
ffffffc0504057e6:	02f77163          	bgeu	a4,a5,ffffffc050405808 <allocPage+0xb8>
ffffffc0504057ea:	fe843703          	ld	a4,-24(s0)
ffffffc0504057ee:	6785                	lui	a5,0x1
ffffffc0504057f0:	973e                	add	a4,a4,a5
ffffffc0504057f2:	00050797          	auipc	a5,0x50
ffffffc0504057f6:	be678793          	addi	a5,a5,-1050 # ffffffc0504553d8 <memCurr>
ffffffc0504057fa:	e398                	sd	a4,0(a5)
ffffffc0504057fc:	00050797          	auipc	a5,0x50
ffffffc050405800:	bdc78793          	addi	a5,a5,-1060 # ffffffc0504553d8 <memCurr>
ffffffc050405804:	639c                	ld	a5,0(a5)
ffffffc050405806:	a039                	j	ffffffc050405814 <allocPage+0xc4>
ffffffc050405808:	c81ff0ef          	jal	ra,ffffffc050405488 <swap_page>
ffffffc05040580c:	fea43423          	sd	a0,-24(s0)
ffffffc050405810:	fe843783          	ld	a5,-24(s0)
ffffffc050405814:	853e                	mv	a0,a5
ffffffc050405816:	70a2                	ld	ra,40(sp)
ffffffc050405818:	7402                	ld	s0,32(sp)
ffffffc05040581a:	6145                	addi	sp,sp,48
ffffffc05040581c:	8082                	ret

ffffffc05040581e <kmalloc>:
ffffffc05040581e:	7179                	addi	sp,sp,-48
ffffffc050405820:	f422                	sd	s0,40(sp)
ffffffc050405822:	1800                	addi	s0,sp,48
ffffffc050405824:	fca43c23          	sd	a0,-40(s0)
ffffffc050405828:	00050797          	auipc	a5,0x50
ffffffc05040582c:	bb078793          	addi	a5,a5,-1104 # ffffffc0504553d8 <memCurr>
ffffffc050405830:	639c                	ld	a5,0(a5)
ffffffc050405832:	078d                	addi	a5,a5,3
ffffffc050405834:	9bf1                	andi	a5,a5,-4
ffffffc050405836:	fef43423          	sd	a5,-24(s0)
ffffffc05040583a:	fe843703          	ld	a4,-24(s0)
ffffffc05040583e:	fd843783          	ld	a5,-40(s0)
ffffffc050405842:	973e                	add	a4,a4,a5
ffffffc050405844:	00050797          	auipc	a5,0x50
ffffffc050405848:	b9478793          	addi	a5,a5,-1132 # ffffffc0504553d8 <memCurr>
ffffffc05040584c:	e398                	sd	a4,0(a5)
ffffffc05040584e:	fe843783          	ld	a5,-24(s0)
ffffffc050405852:	853e                	mv	a0,a5
ffffffc050405854:	7422                	ld	s0,40(sp)
ffffffc050405856:	6145                	addi	sp,sp,48
ffffffc050405858:	8082                	ret

ffffffc05040585a <shm_page_get>:
ffffffc05040585a:	1101                	addi	sp,sp,-32
ffffffc05040585c:	ec22                	sd	s0,24(sp)
ffffffc05040585e:	1000                	addi	s0,sp,32
ffffffc050405860:	87aa                	mv	a5,a0
ffffffc050405862:	fef42623          	sw	a5,-20(s0)
ffffffc050405866:	0001                	nop
ffffffc050405868:	853e                	mv	a0,a5
ffffffc05040586a:	6462                	ld	s0,24(sp)
ffffffc05040586c:	6105                	addi	sp,sp,32
ffffffc05040586e:	8082                	ret

ffffffc050405870 <shm_page_dt>:
ffffffc050405870:	1101                	addi	sp,sp,-32
ffffffc050405872:	ec22                	sd	s0,24(sp)
ffffffc050405874:	1000                	addi	s0,sp,32
ffffffc050405876:	fea43423          	sd	a0,-24(s0)
ffffffc05040587a:	0001                	nop
ffffffc05040587c:	6462                	ld	s0,24(sp)
ffffffc05040587e:	6105                	addi	sp,sp,32
ffffffc050405880:	8082                	ret

ffffffc050405882 <share_pgtable>:
ffffffc050405882:	1101                	addi	sp,sp,-32
ffffffc050405884:	ec06                	sd	ra,24(sp)
ffffffc050405886:	e822                	sd	s0,16(sp)
ffffffc050405888:	1000                	addi	s0,sp,32
ffffffc05040588a:	fea43423          	sd	a0,-24(s0)
ffffffc05040588e:	feb43023          	sd	a1,-32(s0)
ffffffc050405892:	fe843783          	ld	a5,-24(s0)
ffffffc050405896:	fe043703          	ld	a4,-32(s0)
ffffffc05040589a:	6605                	lui	a2,0x1
ffffffc05040589c:	85ba                	mv	a1,a4
ffffffc05040589e:	853e                	mv	a0,a5
ffffffc0504058a0:	1ad000ef          	jal	ra,ffffffc05040624c <kmemcpy>
ffffffc0504058a4:	0001                	nop
ffffffc0504058a6:	60e2                	ld	ra,24(sp)
ffffffc0504058a8:	6442                	ld	s0,16(sp)
ffffffc0504058aa:	6105                	addi	sp,sp,32
ffffffc0504058ac:	8082                	ret

ffffffc0504058ae <alloc_page_helper>:
ffffffc0504058ae:	7119                	addi	sp,sp,-128
ffffffc0504058b0:	fc86                	sd	ra,120(sp)
ffffffc0504058b2:	f8a2                	sd	s0,112(sp)
ffffffc0504058b4:	f4a6                	sd	s1,104(sp)
ffffffc0504058b6:	0100                	addi	s0,sp,128
ffffffc0504058b8:	f8a43c23          	sd	a0,-104(s0)
ffffffc0504058bc:	f8b43823          	sd	a1,-112(s0)
ffffffc0504058c0:	87b2                	mv	a5,a2
ffffffc0504058c2:	f8f42623          	sw	a5,-116(s0)
ffffffc0504058c6:	f9843703          	ld	a4,-104(s0)
ffffffc0504058ca:	57fd                	li	a5,-1
ffffffc0504058cc:	83e5                	srli	a5,a5,0x19
ffffffc0504058ce:	8ff9                	and	a5,a5,a4
ffffffc0504058d0:	f8f43c23          	sd	a5,-104(s0)
ffffffc0504058d4:	f9043783          	ld	a5,-112(s0)
ffffffc0504058d8:	fcf43c23          	sd	a5,-40(s0)
ffffffc0504058dc:	f9843783          	ld	a5,-104(s0)
ffffffc0504058e0:	83f9                	srli	a5,a5,0x1e
ffffffc0504058e2:	fcf43823          	sd	a5,-48(s0)
ffffffc0504058e6:	fd043783          	ld	a5,-48(s0)
ffffffc0504058ea:	00979713          	slli	a4,a5,0x9
ffffffc0504058ee:	f9843783          	ld	a5,-104(s0)
ffffffc0504058f2:	83d5                	srli	a5,a5,0x15
ffffffc0504058f4:	8fb9                	xor	a5,a5,a4
ffffffc0504058f6:	fcf43423          	sd	a5,-56(s0)
ffffffc0504058fa:	fd043783          	ld	a5,-48(s0)
ffffffc0504058fe:	01279713          	slli	a4,a5,0x12
ffffffc050405902:	fc843783          	ld	a5,-56(s0)
ffffffc050405906:	07a6                	slli	a5,a5,0x9
ffffffc050405908:	8f3d                	xor	a4,a4,a5
ffffffc05040590a:	f9843783          	ld	a5,-104(s0)
ffffffc05040590e:	83b1                	srli	a5,a5,0xc
ffffffc050405910:	8fb9                	xor	a5,a5,a4
ffffffc050405912:	fcf43023          	sd	a5,-64(s0)
ffffffc050405916:	fd043783          	ld	a5,-48(s0)
ffffffc05040591a:	078e                	slli	a5,a5,0x3
ffffffc05040591c:	fd843703          	ld	a4,-40(s0)
ffffffc050405920:	97ba                	add	a5,a5,a4
ffffffc050405922:	639c                	ld	a5,0(a5)
ffffffc050405924:	8b85                	andi	a5,a5,1
ffffffc050405926:	e3b5                	bnez	a5,ffffffc05040598a <alloc_page_helper+0xdc>
ffffffc050405928:	fd043783          	ld	a5,-48(s0)
ffffffc05040592c:	078e                	slli	a5,a5,0x3
ffffffc05040592e:	fd843703          	ld	a4,-40(s0)
ffffffc050405932:	00f704b3          	add	s1,a4,a5
ffffffc050405936:	4505                	li	a0,1
ffffffc050405938:	e19ff0ef          	jal	ra,ffffffc050405750 <allocPage>
ffffffc05040593c:	87aa                	mv	a5,a0
ffffffc05040593e:	853e                	mv	a0,a5
ffffffc050405940:	a09ff0ef          	jal	ra,ffffffc050405348 <kva2pa>
ffffffc050405944:	87aa                	mv	a5,a0
ffffffc050405946:	83b1                	srli	a5,a5,0xc
ffffffc050405948:	85be                	mv	a1,a5
ffffffc05040594a:	8526                	mv	a0,s1
ffffffc05040594c:	a5dff0ef          	jal	ra,ffffffc0504053a8 <set_pfn>
ffffffc050405950:	fd043783          	ld	a5,-48(s0)
ffffffc050405954:	078e                	slli	a5,a5,0x3
ffffffc050405956:	fd843703          	ld	a4,-40(s0)
ffffffc05040595a:	97ba                	add	a5,a5,a4
ffffffc05040595c:	0d100593          	li	a1,209
ffffffc050405960:	853e                	mv	a0,a5
ffffffc050405962:	a8fff0ef          	jal	ra,ffffffc0504053f0 <set_attribute>
ffffffc050405966:	fd043783          	ld	a5,-48(s0)
ffffffc05040596a:	078e                	slli	a5,a5,0x3
ffffffc05040596c:	fd843703          	ld	a4,-40(s0)
ffffffc050405970:	97ba                	add	a5,a5,a4
ffffffc050405972:	639c                	ld	a5,0(a5)
ffffffc050405974:	853e                	mv	a0,a5
ffffffc050405976:	a0bff0ef          	jal	ra,ffffffc050405380 <get_pa>
ffffffc05040597a:	87aa                	mv	a5,a0
ffffffc05040597c:	853e                	mv	a0,a5
ffffffc05040597e:	9e7ff0ef          	jal	ra,ffffffc050405364 <pa2kva>
ffffffc050405982:	87aa                	mv	a5,a0
ffffffc050405984:	853e                	mv	a0,a5
ffffffc050405986:	a93ff0ef          	jal	ra,ffffffc050405418 <clear_pgdir>
ffffffc05040598a:	fd043783          	ld	a5,-48(s0)
ffffffc05040598e:	078e                	slli	a5,a5,0x3
ffffffc050405990:	fd843703          	ld	a4,-40(s0)
ffffffc050405994:	97ba                	add	a5,a5,a4
ffffffc050405996:	639c                	ld	a5,0(a5)
ffffffc050405998:	853e                	mv	a0,a5
ffffffc05040599a:	9e7ff0ef          	jal	ra,ffffffc050405380 <get_pa>
ffffffc05040599e:	87aa                	mv	a5,a0
ffffffc0504059a0:	853e                	mv	a0,a5
ffffffc0504059a2:	9c3ff0ef          	jal	ra,ffffffc050405364 <pa2kva>
ffffffc0504059a6:	87aa                	mv	a5,a0
ffffffc0504059a8:	faf43c23          	sd	a5,-72(s0)
ffffffc0504059ac:	fc843783          	ld	a5,-56(s0)
ffffffc0504059b0:	078e                	slli	a5,a5,0x3
ffffffc0504059b2:	fb843703          	ld	a4,-72(s0)
ffffffc0504059b6:	97ba                	add	a5,a5,a4
ffffffc0504059b8:	639c                	ld	a5,0(a5)
ffffffc0504059ba:	8b85                	andi	a5,a5,1
ffffffc0504059bc:	e3b5                	bnez	a5,ffffffc050405a20 <alloc_page_helper+0x172>
ffffffc0504059be:	fc843783          	ld	a5,-56(s0)
ffffffc0504059c2:	078e                	slli	a5,a5,0x3
ffffffc0504059c4:	fb843703          	ld	a4,-72(s0)
ffffffc0504059c8:	00f704b3          	add	s1,a4,a5
ffffffc0504059cc:	4505                	li	a0,1
ffffffc0504059ce:	d83ff0ef          	jal	ra,ffffffc050405750 <allocPage>
ffffffc0504059d2:	87aa                	mv	a5,a0
ffffffc0504059d4:	853e                	mv	a0,a5
ffffffc0504059d6:	973ff0ef          	jal	ra,ffffffc050405348 <kva2pa>
ffffffc0504059da:	87aa                	mv	a5,a0
ffffffc0504059dc:	83b1                	srli	a5,a5,0xc
ffffffc0504059de:	85be                	mv	a1,a5
ffffffc0504059e0:	8526                	mv	a0,s1
ffffffc0504059e2:	9c7ff0ef          	jal	ra,ffffffc0504053a8 <set_pfn>
ffffffc0504059e6:	fc843783          	ld	a5,-56(s0)
ffffffc0504059ea:	078e                	slli	a5,a5,0x3
ffffffc0504059ec:	fb843703          	ld	a4,-72(s0)
ffffffc0504059f0:	97ba                	add	a5,a5,a4
ffffffc0504059f2:	0d100593          	li	a1,209
ffffffc0504059f6:	853e                	mv	a0,a5
ffffffc0504059f8:	9f9ff0ef          	jal	ra,ffffffc0504053f0 <set_attribute>
ffffffc0504059fc:	fc843783          	ld	a5,-56(s0)
ffffffc050405a00:	078e                	slli	a5,a5,0x3
ffffffc050405a02:	fb843703          	ld	a4,-72(s0)
ffffffc050405a06:	97ba                	add	a5,a5,a4
ffffffc050405a08:	639c                	ld	a5,0(a5)
ffffffc050405a0a:	853e                	mv	a0,a5
ffffffc050405a0c:	975ff0ef          	jal	ra,ffffffc050405380 <get_pa>
ffffffc050405a10:	87aa                	mv	a5,a0
ffffffc050405a12:	853e                	mv	a0,a5
ffffffc050405a14:	951ff0ef          	jal	ra,ffffffc050405364 <pa2kva>
ffffffc050405a18:	87aa                	mv	a5,a0
ffffffc050405a1a:	853e                	mv	a0,a5
ffffffc050405a1c:	9fdff0ef          	jal	ra,ffffffc050405418 <clear_pgdir>
ffffffc050405a20:	fc843783          	ld	a5,-56(s0)
ffffffc050405a24:	078e                	slli	a5,a5,0x3
ffffffc050405a26:	fb843703          	ld	a4,-72(s0)
ffffffc050405a2a:	97ba                	add	a5,a5,a4
ffffffc050405a2c:	639c                	ld	a5,0(a5)
ffffffc050405a2e:	853e                	mv	a0,a5
ffffffc050405a30:	951ff0ef          	jal	ra,ffffffc050405380 <get_pa>
ffffffc050405a34:	87aa                	mv	a5,a0
ffffffc050405a36:	853e                	mv	a0,a5
ffffffc050405a38:	92dff0ef          	jal	ra,ffffffc050405364 <pa2kva>
ffffffc050405a3c:	87aa                	mv	a5,a0
ffffffc050405a3e:	faf43823          	sd	a5,-80(s0)
ffffffc050405a42:	4505                	li	a0,1
ffffffc050405a44:	d0dff0ef          	jal	ra,ffffffc050405750 <allocPage>
ffffffc050405a48:	87aa                	mv	a5,a0
ffffffc050405a4a:	853e                	mv	a0,a5
ffffffc050405a4c:	8fdff0ef          	jal	ra,ffffffc050405348 <kva2pa>
ffffffc050405a50:	faa43423          	sd	a0,-88(s0)
ffffffc050405a54:	fc043783          	ld	a5,-64(s0)
ffffffc050405a58:	078e                	slli	a5,a5,0x3
ffffffc050405a5a:	fb043703          	ld	a4,-80(s0)
ffffffc050405a5e:	973e                	add	a4,a4,a5
ffffffc050405a60:	fa843783          	ld	a5,-88(s0)
ffffffc050405a64:	83b1                	srli	a5,a5,0xc
ffffffc050405a66:	85be                	mv	a1,a5
ffffffc050405a68:	853a                	mv	a0,a4
ffffffc050405a6a:	93fff0ef          	jal	ra,ffffffc0504053a8 <set_pfn>
ffffffc050405a6e:	fc043783          	ld	a5,-64(s0)
ffffffc050405a72:	078e                	slli	a5,a5,0x3
ffffffc050405a74:	fb043703          	ld	a4,-80(s0)
ffffffc050405a78:	97ba                	add	a5,a5,a4
ffffffc050405a7a:	0df00593          	li	a1,223
ffffffc050405a7e:	853e                	mv	a0,a5
ffffffc050405a80:	971ff0ef          	jal	ra,ffffffc0504053f0 <set_attribute>
ffffffc050405a84:	82018793          	addi	a5,gp,-2016 # ffffffc0504553e8 <allocmem_head>
ffffffc050405a88:	439c                	lw	a5,0(a5)
ffffffc050405a8a:	faf42223          	sw	a5,-92(s0)
ffffffc050405a8e:	f8c42783          	lw	a5,-116(s0)
ffffffc050405a92:	2781                	sext.w	a5,a5
ffffffc050405a94:	12078363          	beqz	a5,ffffffc050405bba <alloc_page_helper+0x30c>
ffffffc050405a98:	82018793          	addi	a5,gp,-2016 # ffffffc0504553e8 <allocmem_head>
ffffffc050405a9c:	439c                	lw	a5,0(a5)
ffffffc050405a9e:	2785                	addiw	a5,a5,1
ffffffc050405aa0:	0007871b          	sext.w	a4,a5
ffffffc050405aa4:	82018793          	addi	a5,gp,-2016 # ffffffc0504553e8 <allocmem_head>
ffffffc050405aa8:	c398                	sw	a4,0(a5)
ffffffc050405aaa:	82018793          	addi	a5,gp,-2016 # ffffffc0504553e8 <allocmem_head>
ffffffc050405aae:	439c                	lw	a5,0(a5)
ffffffc050405ab0:	873e                	mv	a4,a5
ffffffc050405ab2:	6785                	lui	a5,0x1
ffffffc050405ab4:	00f71663          	bne	a4,a5,ffffffc050405ac0 <alloc_page_helper+0x212>
ffffffc050405ab8:	82018793          	addi	a5,gp,-2016 # ffffffc0504553e8 <allocmem_head>
ffffffc050405abc:	0007a023          	sw	zero,0(a5) # 1000 <_start-0xffffffc0503ff000>
ffffffc050405ac0:	82018793          	addi	a5,gp,-2016 # ffffffc0504553e8 <allocmem_head>
ffffffc050405ac4:	4398                	lw	a4,0(a5)
ffffffc050405ac6:	00071697          	auipc	a3,0x71
ffffffc050405aca:	2f268693          	addi	a3,a3,754 # ffffffc050476db8 <allocmem_pool>
ffffffc050405ace:	87ba                	mv	a5,a4
ffffffc050405ad0:	078a                	slli	a5,a5,0x2
ffffffc050405ad2:	97ba                	add	a5,a5,a4
ffffffc050405ad4:	078e                	slli	a5,a5,0x3
ffffffc050405ad6:	97b6                	add	a5,a5,a3
ffffffc050405ad8:	0207c783          	lbu	a5,32(a5)
ffffffc050405adc:	ebf1                	bnez	a5,ffffffc050405bb0 <alloc_page_helper+0x302>
ffffffc050405ade:	00099797          	auipc	a5,0x99
ffffffc050405ae2:	6da78793          	addi	a5,a5,1754 # ffffffc05049f1b8 <current_running>
ffffffc050405ae6:	639c                	ld	a5,0(a5)
ffffffc050405ae8:	639c                	ld	a5,0(a5)
ffffffc050405aea:	0987a783          	lw	a5,152(a5)
ffffffc050405aee:	cb91                	beqz	a5,ffffffc050405b02 <alloc_page_helper+0x254>
ffffffc050405af0:	00099797          	auipc	a5,0x99
ffffffc050405af4:	6c878793          	addi	a5,a5,1736 # ffffffc05049f1b8 <current_running>
ffffffc050405af8:	639c                	ld	a5,0(a5)
ffffffc050405afa:	639c                	ld	a5,0(a5)
ffffffc050405afc:	0987a703          	lw	a4,152(a5)
ffffffc050405b00:	a801                	j	ffffffc050405b10 <alloc_page_helper+0x262>
ffffffc050405b02:	00099797          	auipc	a5,0x99
ffffffc050405b06:	6b678793          	addi	a5,a5,1718 # ffffffc05049f1b8 <current_running>
ffffffc050405b0a:	639c                	ld	a5,0(a5)
ffffffc050405b0c:	639c                	ld	a5,0(a5)
ffffffc050405b0e:	47b8                	lw	a4,72(a5)
ffffffc050405b10:	82018793          	addi	a5,gp,-2016 # ffffffc0504553e8 <allocmem_head>
ffffffc050405b14:	4394                	lw	a3,0(a5)
ffffffc050405b16:	00071617          	auipc	a2,0x71
ffffffc050405b1a:	2a260613          	addi	a2,a2,674 # ffffffc050476db8 <allocmem_pool>
ffffffc050405b1e:	87b6                	mv	a5,a3
ffffffc050405b20:	078a                	slli	a5,a5,0x2
ffffffc050405b22:	97b6                	add	a5,a5,a3
ffffffc050405b24:	078e                	slli	a5,a5,0x3
ffffffc050405b26:	97b2                	add	a5,a5,a2
ffffffc050405b28:	c398                	sw	a4,0(a5)
ffffffc050405b2a:	82018793          	addi	a5,gp,-2016 # ffffffc0504553e8 <allocmem_head>
ffffffc050405b2e:	4398                	lw	a4,0(a5)
ffffffc050405b30:	00071697          	auipc	a3,0x71
ffffffc050405b34:	28868693          	addi	a3,a3,648 # ffffffc050476db8 <allocmem_pool>
ffffffc050405b38:	87ba                	mv	a5,a4
ffffffc050405b3a:	078a                	slli	a5,a5,0x2
ffffffc050405b3c:	97ba                	add	a5,a5,a4
ffffffc050405b3e:	078e                	slli	a5,a5,0x3
ffffffc050405b40:	97b6                	add	a5,a5,a3
ffffffc050405b42:	4705                	li	a4,1
ffffffc050405b44:	02e78023          	sb	a4,32(a5)
ffffffc050405b48:	82018793          	addi	a5,gp,-2016 # ffffffc0504553e8 <allocmem_head>
ffffffc050405b4c:	4398                	lw	a4,0(a5)
ffffffc050405b4e:	00071697          	auipc	a3,0x71
ffffffc050405b52:	26a68693          	addi	a3,a3,618 # ffffffc050476db8 <allocmem_pool>
ffffffc050405b56:	87ba                	mv	a5,a4
ffffffc050405b58:	078a                	slli	a5,a5,0x2
ffffffc050405b5a:	97ba                	add	a5,a5,a4
ffffffc050405b5c:	078e                	slli	a5,a5,0x3
ffffffc050405b5e:	97b6                	add	a5,a5,a3
ffffffc050405b60:	fa843703          	ld	a4,-88(s0)
ffffffc050405b64:	e798                	sd	a4,8(a5)
ffffffc050405b66:	82018793          	addi	a5,gp,-2016 # ffffffc0504553e8 <allocmem_head>
ffffffc050405b6a:	4398                	lw	a4,0(a5)
ffffffc050405b6c:	f9843683          	ld	a3,-104(s0)
ffffffc050405b70:	77fd                	lui	a5,0xfffff
ffffffc050405b72:	8efd                	and	a3,a3,a5
ffffffc050405b74:	00071617          	auipc	a2,0x71
ffffffc050405b78:	24460613          	addi	a2,a2,580 # ffffffc050476db8 <allocmem_pool>
ffffffc050405b7c:	87ba                	mv	a5,a4
ffffffc050405b7e:	078a                	slli	a5,a5,0x2
ffffffc050405b80:	97ba                	add	a5,a5,a4
ffffffc050405b82:	078e                	slli	a5,a5,0x3
ffffffc050405b84:	97b2                	add	a5,a5,a2
ffffffc050405b86:	eb94                	sd	a3,16(a5)
ffffffc050405b88:	fc043783          	ld	a5,-64(s0)
ffffffc050405b8c:	078e                	slli	a5,a5,0x3
ffffffc050405b8e:	82018713          	addi	a4,gp,-2016 # ffffffc0504553e8 <allocmem_head>
ffffffc050405b92:	4318                	lw	a4,0(a4)
ffffffc050405b94:	fb043683          	ld	a3,-80(s0)
ffffffc050405b98:	96be                	add	a3,a3,a5
ffffffc050405b9a:	00071617          	auipc	a2,0x71
ffffffc050405b9e:	21e60613          	addi	a2,a2,542 # ffffffc050476db8 <allocmem_pool>
ffffffc050405ba2:	87ba                	mv	a5,a4
ffffffc050405ba4:	078a                	slli	a5,a5,0x2
ffffffc050405ba6:	97ba                	add	a5,a5,a4
ffffffc050405ba8:	078e                	slli	a5,a5,0x3
ffffffc050405baa:	97b2                	add	a5,a5,a2
ffffffc050405bac:	ef94                	sd	a3,24(a5)
ffffffc050405bae:	a031                	j	ffffffc050405bba <alloc_page_helper+0x30c>
ffffffc050405bb0:	82018793          	addi	a5,gp,-2016 # ffffffc0504553e8 <allocmem_head>
ffffffc050405bb4:	fa442703          	lw	a4,-92(s0)
ffffffc050405bb8:	c398                	sw	a4,0(a5)
ffffffc050405bba:	fa843503          	ld	a0,-88(s0)
ffffffc050405bbe:	fa6ff0ef          	jal	ra,ffffffc050405364 <pa2kva>
ffffffc050405bc2:	87aa                	mv	a5,a0
ffffffc050405bc4:	853e                	mv	a0,a5
ffffffc050405bc6:	70e6                	ld	ra,120(sp)
ffffffc050405bc8:	7446                	ld	s0,112(sp)
ffffffc050405bca:	74a6                	ld	s1,104(sp)
ffffffc050405bcc:	6109                	addi	sp,sp,128
ffffffc050405bce:	8082                	ret

ffffffc050405bd0 <free_mem>:
ffffffc050405bd0:	711d                	addi	sp,sp,-96
ffffffc050405bd2:	ec86                	sd	ra,88(sp)
ffffffc050405bd4:	e8a2                	sd	s0,80(sp)
ffffffc050405bd6:	1080                	addi	s0,sp,96
ffffffc050405bd8:	faa43423          	sd	a0,-88(s0)
ffffffc050405bdc:	81818793          	addi	a5,gp,-2024 # ffffffc0504553e0 <freemem_head>
ffffffc050405be0:	439c                	lw	a5,0(a5)
ffffffc050405be2:	fef42023          	sw	a5,-32(s0)
ffffffc050405be6:	fa843783          	ld	a5,-88(s0)
ffffffc050405bea:	fcf43c23          	sd	a5,-40(s0)
ffffffc050405bee:	edefa0ef          	jal	ra,ffffffc0504002cc <get_current_cpu_id>
ffffffc050405bf2:	87aa                	mv	a5,a0
ffffffc050405bf4:	c791                	beqz	a5,ffffffc050405c00 <free_mem+0x30>
ffffffc050405bf6:	0009a797          	auipc	a5,0x9a
ffffffc050405bfa:	fca78793          	addi	a5,a5,-54 # ffffffc05049fbc0 <current_running_1>
ffffffc050405bfe:	a029                	j	ffffffc050405c08 <free_mem+0x38>
ffffffc050405c00:	00099797          	auipc	a5,0x99
ffffffc050405c04:	5a078793          	addi	a5,a5,1440 # ffffffc05049f1a0 <current_running_0>
ffffffc050405c08:	00099717          	auipc	a4,0x99
ffffffc050405c0c:	5b070713          	addi	a4,a4,1456 # ffffffc05049f1b8 <current_running>
ffffffc050405c10:	e31c                	sd	a5,0(a4)
ffffffc050405c12:	fe042623          	sw	zero,-20(s0)
ffffffc050405c16:	ac55                	j	ffffffc050405eca <free_mem+0x2fa>
ffffffc050405c18:	fec42783          	lw	a5,-20(s0)
ffffffc050405c1c:	078e                	slli	a5,a5,0x3
ffffffc050405c1e:	fd843703          	ld	a4,-40(s0)
ffffffc050405c22:	97ba                	add	a5,a5,a4
ffffffc050405c24:	639c                	ld	a5,0(a5)
ffffffc050405c26:	8b85                	andi	a5,a5,1
ffffffc050405c28:	28078c63          	beqz	a5,ffffffc050405ec0 <free_mem+0x2f0>
ffffffc050405c2c:	fec42783          	lw	a5,-20(s0)
ffffffc050405c30:	078e                	slli	a5,a5,0x3
ffffffc050405c32:	fd843703          	ld	a4,-40(s0)
ffffffc050405c36:	97ba                	add	a5,a5,a4
ffffffc050405c38:	639c                	ld	a5,0(a5)
ffffffc050405c3a:	853e                	mv	a0,a5
ffffffc050405c3c:	f44ff0ef          	jal	ra,ffffffc050405380 <get_pa>
ffffffc050405c40:	87aa                	mv	a5,a0
ffffffc050405c42:	853e                	mv	a0,a5
ffffffc050405c44:	f20ff0ef          	jal	ra,ffffffc050405364 <pa2kva>
ffffffc050405c48:	87aa                	mv	a5,a0
ffffffc050405c4a:	fcf43023          	sd	a5,-64(s0)
ffffffc050405c4e:	fc043703          	ld	a4,-64(s0)
ffffffc050405c52:	fe0297b7          	lui	a5,0xfe029
ffffffc050405c56:	07b6                	slli	a5,a5,0xd
ffffffc050405c58:	26e7e363          	bltu	a5,a4,ffffffc050405ebe <free_mem+0x2ee>
ffffffc050405c5c:	fc043703          	ld	a4,-64(s0)
ffffffc050405c60:	00002797          	auipc	a5,0x2
ffffffc050405c64:	af078793          	addi	a5,a5,-1296 # ffffffc050407750 <__FUNCTION__.1619+0x518>
ffffffc050405c68:	639c                	ld	a5,0(a5)
ffffffc050405c6a:	24e7fa63          	bgeu	a5,a4,ffffffc050405ebe <free_mem+0x2ee>
ffffffc050405c6e:	fe042423          	sw	zero,-24(s0)
ffffffc050405c72:	a27d                	j	ffffffc050405e20 <free_mem+0x250>
ffffffc050405c74:	fe842783          	lw	a5,-24(s0)
ffffffc050405c78:	078e                	slli	a5,a5,0x3
ffffffc050405c7a:	fc043703          	ld	a4,-64(s0)
ffffffc050405c7e:	97ba                	add	a5,a5,a4
ffffffc050405c80:	639c                	ld	a5,0(a5)
ffffffc050405c82:	853e                	mv	a0,a5
ffffffc050405c84:	efcff0ef          	jal	ra,ffffffc050405380 <get_pa>
ffffffc050405c88:	87aa                	mv	a5,a0
ffffffc050405c8a:	853e                	mv	a0,a5
ffffffc050405c8c:	ed8ff0ef          	jal	ra,ffffffc050405364 <pa2kva>
ffffffc050405c90:	87aa                	mv	a5,a0
ffffffc050405c92:	faf43c23          	sd	a5,-72(s0)
ffffffc050405c96:	fe842783          	lw	a5,-24(s0)
ffffffc050405c9a:	078e                	slli	a5,a5,0x3
ffffffc050405c9c:	fc043703          	ld	a4,-64(s0)
ffffffc050405ca0:	97ba                	add	a5,a5,a4
ffffffc050405ca2:	639c                	ld	a5,0(a5)
ffffffc050405ca4:	8b85                	andi	a5,a5,1
ffffffc050405ca6:	16078863          	beqz	a5,ffffffc050405e16 <free_mem+0x246>
ffffffc050405caa:	fe042223          	sw	zero,-28(s0)
ffffffc050405cae:	a0f1                	j	ffffffc050405d7a <free_mem+0x1aa>
ffffffc050405cb0:	fe442783          	lw	a5,-28(s0)
ffffffc050405cb4:	078e                	slli	a5,a5,0x3
ffffffc050405cb6:	fb843703          	ld	a4,-72(s0)
ffffffc050405cba:	97ba                	add	a5,a5,a4
ffffffc050405cbc:	639c                	ld	a5,0(a5)
ffffffc050405cbe:	853e                	mv	a0,a5
ffffffc050405cc0:	ec0ff0ef          	jal	ra,ffffffc050405380 <get_pa>
ffffffc050405cc4:	87aa                	mv	a5,a0
ffffffc050405cc6:	853e                	mv	a0,a5
ffffffc050405cc8:	e9cff0ef          	jal	ra,ffffffc050405364 <pa2kva>
ffffffc050405ccc:	87aa                	mv	a5,a0
ffffffc050405cce:	faf43823          	sd	a5,-80(s0)
ffffffc050405cd2:	fe442783          	lw	a5,-28(s0)
ffffffc050405cd6:	078e                	slli	a5,a5,0x3
ffffffc050405cd8:	fb843703          	ld	a4,-72(s0)
ffffffc050405cdc:	97ba                	add	a5,a5,a4
ffffffc050405cde:	639c                	ld	a5,0(a5)
ffffffc050405ce0:	8b85                	andi	a5,a5,1
ffffffc050405ce2:	c7d9                	beqz	a5,ffffffc050405d70 <free_mem+0x1a0>
ffffffc050405ce4:	fb043703          	ld	a4,-80(s0)
ffffffc050405ce8:	00fec7b7          	lui	a5,0xfec
ffffffc050405cec:	bff78793          	addi	a5,a5,-1025 # febbff <_start-0xffffffc04f414401>
ffffffc050405cf0:	07ba                	slli	a5,a5,0xe
ffffffc050405cf2:	97ba                	add	a5,a5,a4
ffffffc050405cf4:	83b1                	srli	a5,a5,0xc
ffffffc050405cf6:	fcf42a23          	sw	a5,-44(s0)
ffffffc050405cfa:	00002717          	auipc	a4,0x2
ffffffc050405cfe:	c6670713          	addi	a4,a4,-922 # ffffffc050407960 <freemem_pool>
ffffffc050405d02:	fd442783          	lw	a5,-44(s0)
ffffffc050405d06:	078a                	slli	a5,a5,0x2
ffffffc050405d08:	97ba                	add	a5,a5,a4
ffffffc050405d0a:	577d                	li	a4,-1
ffffffc050405d0c:	c398                	sw	a4,0(a5)
ffffffc050405d0e:	81818793          	addi	a5,gp,-2024 # ffffffc0504553e0 <freemem_head>
ffffffc050405d12:	439c                	lw	a5,0(a5)
ffffffc050405d14:	0207d863          	bgez	a5,ffffffc050405d44 <free_mem+0x174>
ffffffc050405d18:	81818793          	addi	a5,gp,-2024 # ffffffc0504553e0 <freemem_head>
ffffffc050405d1c:	fd442703          	lw	a4,-44(s0)
ffffffc050405d20:	c398                	sw	a4,0(a5)
ffffffc050405d22:	81818793          	addi	a5,gp,-2024 # ffffffc0504553e0 <freemem_head>
ffffffc050405d26:	439c                	lw	a5,0(a5)
ffffffc050405d28:	fef42023          	sw	a5,-32(s0)
ffffffc050405d2c:	a091                	j	ffffffc050405d70 <free_mem+0x1a0>
ffffffc050405d2e:	00002717          	auipc	a4,0x2
ffffffc050405d32:	c3270713          	addi	a4,a4,-974 # ffffffc050407960 <freemem_pool>
ffffffc050405d36:	fe042783          	lw	a5,-32(s0)
ffffffc050405d3a:	078a                	slli	a5,a5,0x2
ffffffc050405d3c:	97ba                	add	a5,a5,a4
ffffffc050405d3e:	439c                	lw	a5,0(a5)
ffffffc050405d40:	fef42023          	sw	a5,-32(s0)
ffffffc050405d44:	00002717          	auipc	a4,0x2
ffffffc050405d48:	c1c70713          	addi	a4,a4,-996 # ffffffc050407960 <freemem_pool>
ffffffc050405d4c:	fe042783          	lw	a5,-32(s0)
ffffffc050405d50:	078a                	slli	a5,a5,0x2
ffffffc050405d52:	97ba                	add	a5,a5,a4
ffffffc050405d54:	439c                	lw	a5,0(a5)
ffffffc050405d56:	fc07dce3          	bgez	a5,ffffffc050405d2e <free_mem+0x15e>
ffffffc050405d5a:	00002717          	auipc	a4,0x2
ffffffc050405d5e:	c0670713          	addi	a4,a4,-1018 # ffffffc050407960 <freemem_pool>
ffffffc050405d62:	fe042783          	lw	a5,-32(s0)
ffffffc050405d66:	078a                	slli	a5,a5,0x2
ffffffc050405d68:	97ba                	add	a5,a5,a4
ffffffc050405d6a:	fd442703          	lw	a4,-44(s0)
ffffffc050405d6e:	c398                	sw	a4,0(a5)
ffffffc050405d70:	fe442783          	lw	a5,-28(s0)
ffffffc050405d74:	2785                	addiw	a5,a5,1
ffffffc050405d76:	fef42223          	sw	a5,-28(s0)
ffffffc050405d7a:	fe442783          	lw	a5,-28(s0)
ffffffc050405d7e:	0007871b          	sext.w	a4,a5
ffffffc050405d82:	1ff00793          	li	a5,511
ffffffc050405d86:	f2e7d5e3          	bge	a5,a4,ffffffc050405cb0 <free_mem+0xe0>
ffffffc050405d8a:	fb843703          	ld	a4,-72(s0)
ffffffc050405d8e:	00fec7b7          	lui	a5,0xfec
ffffffc050405d92:	bff78793          	addi	a5,a5,-1025 # febbff <_start-0xffffffc04f414401>
ffffffc050405d96:	07ba                	slli	a5,a5,0xe
ffffffc050405d98:	97ba                	add	a5,a5,a4
ffffffc050405d9a:	83b1                	srli	a5,a5,0xc
ffffffc050405d9c:	fcf42a23          	sw	a5,-44(s0)
ffffffc050405da0:	00002717          	auipc	a4,0x2
ffffffc050405da4:	bc070713          	addi	a4,a4,-1088 # ffffffc050407960 <freemem_pool>
ffffffc050405da8:	fd442783          	lw	a5,-44(s0)
ffffffc050405dac:	078a                	slli	a5,a5,0x2
ffffffc050405dae:	97ba                	add	a5,a5,a4
ffffffc050405db0:	577d                	li	a4,-1
ffffffc050405db2:	c398                	sw	a4,0(a5)
ffffffc050405db4:	81818793          	addi	a5,gp,-2024 # ffffffc0504553e0 <freemem_head>
ffffffc050405db8:	439c                	lw	a5,0(a5)
ffffffc050405dba:	0207d863          	bgez	a5,ffffffc050405dea <free_mem+0x21a>
ffffffc050405dbe:	81818793          	addi	a5,gp,-2024 # ffffffc0504553e0 <freemem_head>
ffffffc050405dc2:	fd442703          	lw	a4,-44(s0)
ffffffc050405dc6:	c398                	sw	a4,0(a5)
ffffffc050405dc8:	81818793          	addi	a5,gp,-2024 # ffffffc0504553e0 <freemem_head>
ffffffc050405dcc:	439c                	lw	a5,0(a5)
ffffffc050405dce:	fef42023          	sw	a5,-32(s0)
ffffffc050405dd2:	a091                	j	ffffffc050405e16 <free_mem+0x246>
ffffffc050405dd4:	00002717          	auipc	a4,0x2
ffffffc050405dd8:	b8c70713          	addi	a4,a4,-1140 # ffffffc050407960 <freemem_pool>
ffffffc050405ddc:	fe042783          	lw	a5,-32(s0)
ffffffc050405de0:	078a                	slli	a5,a5,0x2
ffffffc050405de2:	97ba                	add	a5,a5,a4
ffffffc050405de4:	439c                	lw	a5,0(a5)
ffffffc050405de6:	fef42023          	sw	a5,-32(s0)
ffffffc050405dea:	00002717          	auipc	a4,0x2
ffffffc050405dee:	b7670713          	addi	a4,a4,-1162 # ffffffc050407960 <freemem_pool>
ffffffc050405df2:	fe042783          	lw	a5,-32(s0)
ffffffc050405df6:	078a                	slli	a5,a5,0x2
ffffffc050405df8:	97ba                	add	a5,a5,a4
ffffffc050405dfa:	439c                	lw	a5,0(a5)
ffffffc050405dfc:	fc07dce3          	bgez	a5,ffffffc050405dd4 <free_mem+0x204>
ffffffc050405e00:	00002717          	auipc	a4,0x2
ffffffc050405e04:	b6070713          	addi	a4,a4,-1184 # ffffffc050407960 <freemem_pool>
ffffffc050405e08:	fe042783          	lw	a5,-32(s0)
ffffffc050405e0c:	078a                	slli	a5,a5,0x2
ffffffc050405e0e:	97ba                	add	a5,a5,a4
ffffffc050405e10:	fd442703          	lw	a4,-44(s0)
ffffffc050405e14:	c398                	sw	a4,0(a5)
ffffffc050405e16:	fe842783          	lw	a5,-24(s0)
ffffffc050405e1a:	2785                	addiw	a5,a5,1
ffffffc050405e1c:	fef42423          	sw	a5,-24(s0)
ffffffc050405e20:	fe842783          	lw	a5,-24(s0)
ffffffc050405e24:	0007871b          	sext.w	a4,a5
ffffffc050405e28:	1ff00793          	li	a5,511
ffffffc050405e2c:	e4e7d4e3          	bge	a5,a4,ffffffc050405c74 <free_mem+0xa4>
ffffffc050405e30:	fc043703          	ld	a4,-64(s0)
ffffffc050405e34:	00fec7b7          	lui	a5,0xfec
ffffffc050405e38:	bff78793          	addi	a5,a5,-1025 # febbff <_start-0xffffffc04f414401>
ffffffc050405e3c:	07ba                	slli	a5,a5,0xe
ffffffc050405e3e:	97ba                	add	a5,a5,a4
ffffffc050405e40:	83b1                	srli	a5,a5,0xc
ffffffc050405e42:	fcf42a23          	sw	a5,-44(s0)
ffffffc050405e46:	00002717          	auipc	a4,0x2
ffffffc050405e4a:	b1a70713          	addi	a4,a4,-1254 # ffffffc050407960 <freemem_pool>
ffffffc050405e4e:	fd442783          	lw	a5,-44(s0)
ffffffc050405e52:	078a                	slli	a5,a5,0x2
ffffffc050405e54:	97ba                	add	a5,a5,a4
ffffffc050405e56:	577d                	li	a4,-1
ffffffc050405e58:	c398                	sw	a4,0(a5)
ffffffc050405e5a:	81818793          	addi	a5,gp,-2024 # ffffffc0504553e0 <freemem_head>
ffffffc050405e5e:	439c                	lw	a5,0(a5)
ffffffc050405e60:	0207d863          	bgez	a5,ffffffc050405e90 <free_mem+0x2c0>
ffffffc050405e64:	81818793          	addi	a5,gp,-2024 # ffffffc0504553e0 <freemem_head>
ffffffc050405e68:	fd442703          	lw	a4,-44(s0)
ffffffc050405e6c:	c398                	sw	a4,0(a5)
ffffffc050405e6e:	81818793          	addi	a5,gp,-2024 # ffffffc0504553e0 <freemem_head>
ffffffc050405e72:	439c                	lw	a5,0(a5)
ffffffc050405e74:	fef42023          	sw	a5,-32(s0)
ffffffc050405e78:	a0a1                	j	ffffffc050405ec0 <free_mem+0x2f0>
ffffffc050405e7a:	00002717          	auipc	a4,0x2
ffffffc050405e7e:	ae670713          	addi	a4,a4,-1306 # ffffffc050407960 <freemem_pool>
ffffffc050405e82:	fe042783          	lw	a5,-32(s0)
ffffffc050405e86:	078a                	slli	a5,a5,0x2
ffffffc050405e88:	97ba                	add	a5,a5,a4
ffffffc050405e8a:	439c                	lw	a5,0(a5)
ffffffc050405e8c:	fef42023          	sw	a5,-32(s0)
ffffffc050405e90:	00002717          	auipc	a4,0x2
ffffffc050405e94:	ad070713          	addi	a4,a4,-1328 # ffffffc050407960 <freemem_pool>
ffffffc050405e98:	fe042783          	lw	a5,-32(s0)
ffffffc050405e9c:	078a                	slli	a5,a5,0x2
ffffffc050405e9e:	97ba                	add	a5,a5,a4
ffffffc050405ea0:	439c                	lw	a5,0(a5)
ffffffc050405ea2:	fc07dce3          	bgez	a5,ffffffc050405e7a <free_mem+0x2aa>
ffffffc050405ea6:	00002717          	auipc	a4,0x2
ffffffc050405eaa:	aba70713          	addi	a4,a4,-1350 # ffffffc050407960 <freemem_pool>
ffffffc050405eae:	fe042783          	lw	a5,-32(s0)
ffffffc050405eb2:	078a                	slli	a5,a5,0x2
ffffffc050405eb4:	97ba                	add	a5,a5,a4
ffffffc050405eb6:	fd442703          	lw	a4,-44(s0)
ffffffc050405eba:	c398                	sw	a4,0(a5)
ffffffc050405ebc:	a011                	j	ffffffc050405ec0 <free_mem+0x2f0>
ffffffc050405ebe:	0001                	nop
ffffffc050405ec0:	fec42783          	lw	a5,-20(s0)
ffffffc050405ec4:	2785                	addiw	a5,a5,1
ffffffc050405ec6:	fef42623          	sw	a5,-20(s0)
ffffffc050405eca:	fec42783          	lw	a5,-20(s0)
ffffffc050405ece:	0007871b          	sext.w	a4,a5
ffffffc050405ed2:	1ff00793          	li	a5,511
ffffffc050405ed6:	d4e7d1e3          	bge	a5,a4,ffffffc050405c18 <free_mem+0x48>
ffffffc050405eda:	fd843703          	ld	a4,-40(s0)
ffffffc050405ede:	00fec7b7          	lui	a5,0xfec
ffffffc050405ee2:	bff78793          	addi	a5,a5,-1025 # febbff <_start-0xffffffc04f414401>
ffffffc050405ee6:	07ba                	slli	a5,a5,0xe
ffffffc050405ee8:	97ba                	add	a5,a5,a4
ffffffc050405eea:	83b1                	srli	a5,a5,0xc
ffffffc050405eec:	fcf42a23          	sw	a5,-44(s0)
ffffffc050405ef0:	00002717          	auipc	a4,0x2
ffffffc050405ef4:	a7070713          	addi	a4,a4,-1424 # ffffffc050407960 <freemem_pool>
ffffffc050405ef8:	fd442783          	lw	a5,-44(s0)
ffffffc050405efc:	078a                	slli	a5,a5,0x2
ffffffc050405efe:	97ba                	add	a5,a5,a4
ffffffc050405f00:	577d                	li	a4,-1
ffffffc050405f02:	c398                	sw	a4,0(a5)
ffffffc050405f04:	81818793          	addi	a5,gp,-2024 # ffffffc0504553e0 <freemem_head>
ffffffc050405f08:	439c                	lw	a5,0(a5)
ffffffc050405f0a:	0207d863          	bgez	a5,ffffffc050405f3a <free_mem+0x36a>
ffffffc050405f0e:	81818793          	addi	a5,gp,-2024 # ffffffc0504553e0 <freemem_head>
ffffffc050405f12:	fd442703          	lw	a4,-44(s0)
ffffffc050405f16:	c398                	sw	a4,0(a5)
ffffffc050405f18:	81818793          	addi	a5,gp,-2024 # ffffffc0504553e0 <freemem_head>
ffffffc050405f1c:	439c                	lw	a5,0(a5)
ffffffc050405f1e:	fef42023          	sw	a5,-32(s0)
ffffffc050405f22:	a091                	j	ffffffc050405f66 <free_mem+0x396>
ffffffc050405f24:	00002717          	auipc	a4,0x2
ffffffc050405f28:	a3c70713          	addi	a4,a4,-1476 # ffffffc050407960 <freemem_pool>
ffffffc050405f2c:	fe042783          	lw	a5,-32(s0)
ffffffc050405f30:	078a                	slli	a5,a5,0x2
ffffffc050405f32:	97ba                	add	a5,a5,a4
ffffffc050405f34:	439c                	lw	a5,0(a5)
ffffffc050405f36:	fef42023          	sw	a5,-32(s0)
ffffffc050405f3a:	00002717          	auipc	a4,0x2
ffffffc050405f3e:	a2670713          	addi	a4,a4,-1498 # ffffffc050407960 <freemem_pool>
ffffffc050405f42:	fe042783          	lw	a5,-32(s0)
ffffffc050405f46:	078a                	slli	a5,a5,0x2
ffffffc050405f48:	97ba                	add	a5,a5,a4
ffffffc050405f4a:	439c                	lw	a5,0(a5)
ffffffc050405f4c:	fc07dce3          	bgez	a5,ffffffc050405f24 <free_mem+0x354>
ffffffc050405f50:	00002717          	auipc	a4,0x2
ffffffc050405f54:	a1070713          	addi	a4,a4,-1520 # ffffffc050407960 <freemem_pool>
ffffffc050405f58:	fe042783          	lw	a5,-32(s0)
ffffffc050405f5c:	078a                	slli	a5,a5,0x2
ffffffc050405f5e:	97ba                	add	a5,a5,a4
ffffffc050405f60:	fd442703          	lw	a4,-44(s0)
ffffffc050405f64:	c398                	sw	a4,0(a5)
ffffffc050405f66:	fe042623          	sw	zero,-20(s0)
ffffffc050405f6a:	a091                	j	ffffffc050405fae <free_mem+0x3de>
ffffffc050405f6c:	00051717          	auipc	a4,0x51
ffffffc050405f70:	e4c70713          	addi	a4,a4,-436 # ffffffc050456db8 <swapmem_pool>
ffffffc050405f74:	fec42783          	lw	a5,-20(s0)
ffffffc050405f78:	0796                	slli	a5,a5,0x5
ffffffc050405f7a:	97ba                	add	a5,a5,a4
ffffffc050405f7c:	4398                	lw	a4,0(a5)
ffffffc050405f7e:	00099797          	auipc	a5,0x99
ffffffc050405f82:	23a78793          	addi	a5,a5,570 # ffffffc05049f1b8 <current_running>
ffffffc050405f86:	639c                	ld	a5,0(a5)
ffffffc050405f88:	639c                	ld	a5,0(a5)
ffffffc050405f8a:	47bc                	lw	a5,72(a5)
ffffffc050405f8c:	00f71c63          	bne	a4,a5,ffffffc050405fa4 <free_mem+0x3d4>
ffffffc050405f90:	00051717          	auipc	a4,0x51
ffffffc050405f94:	e2870713          	addi	a4,a4,-472 # ffffffc050456db8 <swapmem_pool>
ffffffc050405f98:	fec42783          	lw	a5,-20(s0)
ffffffc050405f9c:	0796                	slli	a5,a5,0x5
ffffffc050405f9e:	97ba                	add	a5,a5,a4
ffffffc050405fa0:	00078c23          	sb	zero,24(a5)
ffffffc050405fa4:	fec42783          	lw	a5,-20(s0)
ffffffc050405fa8:	2785                	addiw	a5,a5,1
ffffffc050405faa:	fef42623          	sw	a5,-20(s0)
ffffffc050405fae:	fec42783          	lw	a5,-20(s0)
ffffffc050405fb2:	0007871b          	sext.w	a4,a5
ffffffc050405fb6:	6785                	lui	a5,0x1
ffffffc050405fb8:	faf74ae3          	blt	a4,a5,ffffffc050405f6c <free_mem+0x39c>
ffffffc050405fbc:	81c18793          	addi	a5,gp,-2020 # ffffffc0504553e4 <swapmem_head>
ffffffc050405fc0:	439c                	lw	a5,0(a5)
ffffffc050405fc2:	fcf42823          	sw	a5,-48(s0)
ffffffc050405fc6:	a09d                	j	ffffffc05040602c <free_mem+0x45c>
ffffffc050405fc8:	fd042783          	lw	a5,-48(s0)
ffffffc050405fcc:	37fd                	addiw	a5,a5,-1
ffffffc050405fce:	2781                	sext.w	a5,a5
ffffffc050405fd0:	873e                	mv	a4,a5
ffffffc050405fd2:	41f7579b          	sraiw	a5,a4,0x1f
ffffffc050405fd6:	0147d79b          	srliw	a5,a5,0x14
ffffffc050405fda:	00f706bb          	addw	a3,a4,a5
ffffffc050405fde:	6705                	lui	a4,0x1
ffffffc050405fe0:	177d                	addi	a4,a4,-1
ffffffc050405fe2:	8f75                	and	a4,a4,a3
ffffffc050405fe4:	40f707bb          	subw	a5,a4,a5
ffffffc050405fe8:	0007871b          	sext.w	a4,a5
ffffffc050405fec:	81c18793          	addi	a5,gp,-2020 # ffffffc0504553e4 <swapmem_head>
ffffffc050405ff0:	439c                	lw	a5,0(a5)
ffffffc050405ff2:	00f71763          	bne	a4,a5,ffffffc050406000 <free_mem+0x430>
ffffffc050405ff6:	81c18793          	addi	a5,gp,-2020 # ffffffc0504553e4 <swapmem_head>
ffffffc050405ffa:	577d                	li	a4,-1
ffffffc050405ffc:	c398                	sw	a4,0(a5)
ffffffc050405ffe:	a881                	j	ffffffc05040604e <free_mem+0x47e>
ffffffc050406000:	81c18793          	addi	a5,gp,-2020 # ffffffc0504553e4 <swapmem_head>
ffffffc050406004:	439c                	lw	a5,0(a5)
ffffffc050406006:	2785                	addiw	a5,a5,1
ffffffc050406008:	2781                	sext.w	a5,a5
ffffffc05040600a:	873e                	mv	a4,a5
ffffffc05040600c:	41f7579b          	sraiw	a5,a4,0x1f
ffffffc050406010:	0147d79b          	srliw	a5,a5,0x14
ffffffc050406014:	00f706bb          	addw	a3,a4,a5
ffffffc050406018:	6705                	lui	a4,0x1
ffffffc05040601a:	177d                	addi	a4,a4,-1
ffffffc05040601c:	8f75                	and	a4,a4,a3
ffffffc05040601e:	40f707bb          	subw	a5,a4,a5
ffffffc050406022:	0007871b          	sext.w	a4,a5
ffffffc050406026:	81c18793          	addi	a5,gp,-2020 # ffffffc0504553e4 <swapmem_head>
ffffffc05040602a:	c398                	sw	a4,0(a5)
ffffffc05040602c:	81c18793          	addi	a5,gp,-2020 # ffffffc0504553e4 <swapmem_head>
ffffffc050406030:	439c                	lw	a5,0(a5)
ffffffc050406032:	0007ce63          	bltz	a5,ffffffc05040604e <free_mem+0x47e>
ffffffc050406036:	81c18793          	addi	a5,gp,-2020 # ffffffc0504553e4 <swapmem_head>
ffffffc05040603a:	439c                	lw	a5,0(a5)
ffffffc05040603c:	00051717          	auipc	a4,0x51
ffffffc050406040:	d7c70713          	addi	a4,a4,-644 # ffffffc050456db8 <swapmem_pool>
ffffffc050406044:	0796                	slli	a5,a5,0x5
ffffffc050406046:	97ba                	add	a5,a5,a4
ffffffc050406048:	0187c783          	lbu	a5,24(a5) # 1018 <_start-0xffffffc0503fefe8>
ffffffc05040604c:	dfb5                	beqz	a5,ffffffc050405fc8 <free_mem+0x3f8>
ffffffc05040604e:	fe042623          	sw	zero,-20(s0)
ffffffc050406052:	a881                	j	ffffffc0504060a2 <free_mem+0x4d2>
ffffffc050406054:	00071697          	auipc	a3,0x71
ffffffc050406058:	d6468693          	addi	a3,a3,-668 # ffffffc050476db8 <allocmem_pool>
ffffffc05040605c:	fec42703          	lw	a4,-20(s0)
ffffffc050406060:	87ba                	mv	a5,a4
ffffffc050406062:	078a                	slli	a5,a5,0x2
ffffffc050406064:	97ba                	add	a5,a5,a4
ffffffc050406066:	078e                	slli	a5,a5,0x3
ffffffc050406068:	97b6                	add	a5,a5,a3
ffffffc05040606a:	4398                	lw	a4,0(a5)
ffffffc05040606c:	00099797          	auipc	a5,0x99
ffffffc050406070:	14c78793          	addi	a5,a5,332 # ffffffc05049f1b8 <current_running>
ffffffc050406074:	639c                	ld	a5,0(a5)
ffffffc050406076:	639c                	ld	a5,0(a5)
ffffffc050406078:	47bc                	lw	a5,72(a5)
ffffffc05040607a:	00f71f63          	bne	a4,a5,ffffffc050406098 <free_mem+0x4c8>
ffffffc05040607e:	00071697          	auipc	a3,0x71
ffffffc050406082:	d3a68693          	addi	a3,a3,-710 # ffffffc050476db8 <allocmem_pool>
ffffffc050406086:	fec42703          	lw	a4,-20(s0)
ffffffc05040608a:	87ba                	mv	a5,a4
ffffffc05040608c:	078a                	slli	a5,a5,0x2
ffffffc05040608e:	97ba                	add	a5,a5,a4
ffffffc050406090:	078e                	slli	a5,a5,0x3
ffffffc050406092:	97b6                	add	a5,a5,a3
ffffffc050406094:	02078023          	sb	zero,32(a5)
ffffffc050406098:	fec42783          	lw	a5,-20(s0)
ffffffc05040609c:	2785                	addiw	a5,a5,1
ffffffc05040609e:	fef42623          	sw	a5,-20(s0)
ffffffc0504060a2:	fec42783          	lw	a5,-20(s0)
ffffffc0504060a6:	0007871b          	sext.w	a4,a5
ffffffc0504060aa:	6785                	lui	a5,0x1
ffffffc0504060ac:	faf744e3          	blt	a4,a5,ffffffc050406054 <free_mem+0x484>
ffffffc0504060b0:	82018793          	addi	a5,gp,-2016 # ffffffc0504553e8 <allocmem_head>
ffffffc0504060b4:	439c                	lw	a5,0(a5)
ffffffc0504060b6:	fcf42623          	sw	a5,-52(s0)
ffffffc0504060ba:	a0a5                	j	ffffffc050406122 <free_mem+0x552>
ffffffc0504060bc:	fcc42783          	lw	a5,-52(s0)
ffffffc0504060c0:	37fd                	addiw	a5,a5,-1
ffffffc0504060c2:	2781                	sext.w	a5,a5
ffffffc0504060c4:	873e                	mv	a4,a5
ffffffc0504060c6:	41f7579b          	sraiw	a5,a4,0x1f
ffffffc0504060ca:	0147d79b          	srliw	a5,a5,0x14
ffffffc0504060ce:	00f706bb          	addw	a3,a4,a5
ffffffc0504060d2:	6705                	lui	a4,0x1
ffffffc0504060d4:	177d                	addi	a4,a4,-1
ffffffc0504060d6:	8f75                	and	a4,a4,a3
ffffffc0504060d8:	40f707bb          	subw	a5,a4,a5
ffffffc0504060dc:	0007871b          	sext.w	a4,a5
ffffffc0504060e0:	82018793          	addi	a5,gp,-2016 # ffffffc0504553e8 <allocmem_head>
ffffffc0504060e4:	439c                	lw	a5,0(a5)
ffffffc0504060e6:	00f71863          	bne	a4,a5,ffffffc0504060f6 <free_mem+0x526>
ffffffc0504060ea:	82018793          	addi	a5,gp,-2016 # ffffffc0504553e8 <allocmem_head>
ffffffc0504060ee:	577d                	li	a4,-1
ffffffc0504060f0:	c398                	sw	a4,0(a5)
ffffffc0504060f2:	0001                	nop
ffffffc0504060f4:	a899                	j	ffffffc05040614a <free_mem+0x57a>
ffffffc0504060f6:	82018793          	addi	a5,gp,-2016 # ffffffc0504553e8 <allocmem_head>
ffffffc0504060fa:	439c                	lw	a5,0(a5)
ffffffc0504060fc:	2785                	addiw	a5,a5,1
ffffffc0504060fe:	2781                	sext.w	a5,a5
ffffffc050406100:	873e                	mv	a4,a5
ffffffc050406102:	41f7579b          	sraiw	a5,a4,0x1f
ffffffc050406106:	0147d79b          	srliw	a5,a5,0x14
ffffffc05040610a:	00f706bb          	addw	a3,a4,a5
ffffffc05040610e:	6705                	lui	a4,0x1
ffffffc050406110:	177d                	addi	a4,a4,-1
ffffffc050406112:	8f75                	and	a4,a4,a3
ffffffc050406114:	40f707bb          	subw	a5,a4,a5
ffffffc050406118:	0007871b          	sext.w	a4,a5
ffffffc05040611c:	82018793          	addi	a5,gp,-2016 # ffffffc0504553e8 <allocmem_head>
ffffffc050406120:	c398                	sw	a4,0(a5)
ffffffc050406122:	82018793          	addi	a5,gp,-2016 # ffffffc0504553e8 <allocmem_head>
ffffffc050406126:	439c                	lw	a5,0(a5)
ffffffc050406128:	0207c163          	bltz	a5,ffffffc05040614a <free_mem+0x57a>
ffffffc05040612c:	82018793          	addi	a5,gp,-2016 # ffffffc0504553e8 <allocmem_head>
ffffffc050406130:	4398                	lw	a4,0(a5)
ffffffc050406132:	00071697          	auipc	a3,0x71
ffffffc050406136:	c8668693          	addi	a3,a3,-890 # ffffffc050476db8 <allocmem_pool>
ffffffc05040613a:	87ba                	mv	a5,a4
ffffffc05040613c:	078a                	slli	a5,a5,0x2
ffffffc05040613e:	97ba                	add	a5,a5,a4
ffffffc050406140:	078e                	slli	a5,a5,0x3
ffffffc050406142:	97b6                	add	a5,a5,a3
ffffffc050406144:	0207c783          	lbu	a5,32(a5) # 1020 <_start-0xffffffc0503fefe0>
ffffffc050406148:	dbb5                	beqz	a5,ffffffc0504060bc <free_mem+0x4ec>
ffffffc05040614a:	0001                	nop
ffffffc05040614c:	60e6                	ld	ra,88(sp)
ffffffc05040614e:	6446                	ld	s0,80(sp)
ffffffc050406150:	6125                	addi	sp,sp,96
ffffffc050406152:	8082                	ret

ffffffc050406154 <handle_syscall>:
ffffffc050406154:	7179                	addi	sp,sp,-48
ffffffc050406156:	f406                	sd	ra,40(sp)
ffffffc050406158:	f022                	sd	s0,32(sp)
ffffffc05040615a:	1800                	addi	s0,sp,48
ffffffc05040615c:	fea43423          	sd	a0,-24(s0)
ffffffc050406160:	feb43023          	sd	a1,-32(s0)
ffffffc050406164:	fcc43c23          	sd	a2,-40(s0)
ffffffc050406168:	fe843783          	ld	a5,-24(s0)
ffffffc05040616c:	1087b783          	ld	a5,264(a5)
ffffffc050406170:	00478713          	addi	a4,a5,4
ffffffc050406174:	fe843783          	ld	a5,-24(s0)
ffffffc050406178:	10e7b423          	sd	a4,264(a5)
ffffffc05040617c:	fe843783          	ld	a5,-24(s0)
ffffffc050406180:	67dc                	ld	a5,136(a5)
ffffffc050406182:	0009b717          	auipc	a4,0x9b
ffffffc050406186:	c5670713          	addi	a4,a4,-938 # ffffffc0504a0dd8 <syscall>
ffffffc05040618a:	078e                	slli	a5,a5,0x3
ffffffc05040618c:	97ba                	add	a5,a5,a4
ffffffc05040618e:	0007b803          	ld	a6,0(a5)
ffffffc050406192:	fe843783          	ld	a5,-24(s0)
ffffffc050406196:	6bb8                	ld	a4,80(a5)
ffffffc050406198:	fe843783          	ld	a5,-24(s0)
ffffffc05040619c:	6fac                	ld	a1,88(a5)
ffffffc05040619e:	fe843783          	ld	a5,-24(s0)
ffffffc0504061a2:	73b0                	ld	a2,96(a5)
ffffffc0504061a4:	fe843783          	ld	a5,-24(s0)
ffffffc0504061a8:	77bc                	ld	a5,104(a5)
ffffffc0504061aa:	86be                	mv	a3,a5
ffffffc0504061ac:	853a                	mv	a0,a4
ffffffc0504061ae:	9802                	jalr	a6
ffffffc0504061b0:	87aa                	mv	a5,a0
ffffffc0504061b2:	873e                	mv	a4,a5
ffffffc0504061b4:	fe843783          	ld	a5,-24(s0)
ffffffc0504061b8:	ebb8                	sd	a4,80(a5)
ffffffc0504061ba:	0001                	nop
ffffffc0504061bc:	70a2                	ld	ra,40(sp)
ffffffc0504061be:	7402                	ld	s0,32(sp)
ffffffc0504061c0:	6145                	addi	sp,sp,48
ffffffc0504061c2:	8082                	ret

ffffffc0504061c4 <kstrlen>:
ffffffc0504061c4:	7179                	addi	sp,sp,-48
ffffffc0504061c6:	f422                	sd	s0,40(sp)
ffffffc0504061c8:	1800                	addi	s0,sp,48
ffffffc0504061ca:	fca43c23          	sd	a0,-40(s0)
ffffffc0504061ce:	fe042623          	sw	zero,-20(s0)
ffffffc0504061d2:	a031                	j	ffffffc0504061de <kstrlen+0x1a>
ffffffc0504061d4:	fec42783          	lw	a5,-20(s0)
ffffffc0504061d8:	2785                	addiw	a5,a5,1
ffffffc0504061da:	fef42623          	sw	a5,-20(s0)
ffffffc0504061de:	fec42783          	lw	a5,-20(s0)
ffffffc0504061e2:	fd843703          	ld	a4,-40(s0)
ffffffc0504061e6:	97ba                	add	a5,a5,a4
ffffffc0504061e8:	0007c783          	lbu	a5,0(a5)
ffffffc0504061ec:	f7e5                	bnez	a5,ffffffc0504061d4 <kstrlen+0x10>
ffffffc0504061ee:	fec42783          	lw	a5,-20(s0)
ffffffc0504061f2:	853e                	mv	a0,a5
ffffffc0504061f4:	7422                	ld	s0,40(sp)
ffffffc0504061f6:	6145                	addi	sp,sp,48
ffffffc0504061f8:	8082                	ret

ffffffc0504061fa <memcpy>:
ffffffc0504061fa:	7179                	addi	sp,sp,-48
ffffffc0504061fc:	f422                	sd	s0,40(sp)
ffffffc0504061fe:	1800                	addi	s0,sp,48
ffffffc050406200:	fea43423          	sd	a0,-24(s0)
ffffffc050406204:	feb43023          	sd	a1,-32(s0)
ffffffc050406208:	87b2                	mv	a5,a2
ffffffc05040620a:	fcf42e23          	sw	a5,-36(s0)
ffffffc05040620e:	a035                	j	ffffffc05040623a <memcpy+0x40>
ffffffc050406210:	fe043703          	ld	a4,-32(s0)
ffffffc050406214:	00170793          	addi	a5,a4,1
ffffffc050406218:	fef43023          	sd	a5,-32(s0)
ffffffc05040621c:	fe843783          	ld	a5,-24(s0)
ffffffc050406220:	00178693          	addi	a3,a5,1
ffffffc050406224:	fed43423          	sd	a3,-24(s0)
ffffffc050406228:	00074703          	lbu	a4,0(a4)
ffffffc05040622c:	00e78023          	sb	a4,0(a5)
ffffffc050406230:	fdc42783          	lw	a5,-36(s0)
ffffffc050406234:	37fd                	addiw	a5,a5,-1
ffffffc050406236:	fcf42e23          	sw	a5,-36(s0)
ffffffc05040623a:	fdc42783          	lw	a5,-36(s0)
ffffffc05040623e:	2781                	sext.w	a5,a5
ffffffc050406240:	fbe1                	bnez	a5,ffffffc050406210 <memcpy+0x16>
ffffffc050406242:	0001                	nop
ffffffc050406244:	0001                	nop
ffffffc050406246:	7422                	ld	s0,40(sp)
ffffffc050406248:	6145                	addi	sp,sp,48
ffffffc05040624a:	8082                	ret

ffffffc05040624c <kmemcpy>:
ffffffc05040624c:	7179                	addi	sp,sp,-48
ffffffc05040624e:	f422                	sd	s0,40(sp)
ffffffc050406250:	1800                	addi	s0,sp,48
ffffffc050406252:	fea43423          	sd	a0,-24(s0)
ffffffc050406256:	feb43023          	sd	a1,-32(s0)
ffffffc05040625a:	87b2                	mv	a5,a2
ffffffc05040625c:	fcf42e23          	sw	a5,-36(s0)
ffffffc050406260:	a035                	j	ffffffc05040628c <kmemcpy+0x40>
ffffffc050406262:	fe043703          	ld	a4,-32(s0)
ffffffc050406266:	00170793          	addi	a5,a4,1
ffffffc05040626a:	fef43023          	sd	a5,-32(s0)
ffffffc05040626e:	fe843783          	ld	a5,-24(s0)
ffffffc050406272:	00178693          	addi	a3,a5,1
ffffffc050406276:	fed43423          	sd	a3,-24(s0)
ffffffc05040627a:	00074703          	lbu	a4,0(a4)
ffffffc05040627e:	00e78023          	sb	a4,0(a5)
ffffffc050406282:	fdc42783          	lw	a5,-36(s0)
ffffffc050406286:	37fd                	addiw	a5,a5,-1
ffffffc050406288:	fcf42e23          	sw	a5,-36(s0)
ffffffc05040628c:	fdc42783          	lw	a5,-36(s0)
ffffffc050406290:	2781                	sext.w	a5,a5
ffffffc050406292:	fbe1                	bnez	a5,ffffffc050406262 <kmemcpy+0x16>
ffffffc050406294:	0001                	nop
ffffffc050406296:	0001                	nop
ffffffc050406298:	7422                	ld	s0,40(sp)
ffffffc05040629a:	6145                	addi	sp,sp,48
ffffffc05040629c:	8082                	ret

ffffffc05040629e <kmemset>:
ffffffc05040629e:	7179                	addi	sp,sp,-48
ffffffc0504062a0:	f422                	sd	s0,40(sp)
ffffffc0504062a2:	1800                	addi	s0,sp,48
ffffffc0504062a4:	fca43c23          	sd	a0,-40(s0)
ffffffc0504062a8:	87ae                	mv	a5,a1
ffffffc0504062aa:	8732                	mv	a4,a2
ffffffc0504062ac:	fcf40ba3          	sb	a5,-41(s0)
ffffffc0504062b0:	87ba                	mv	a5,a4
ffffffc0504062b2:	fcf42823          	sw	a5,-48(s0)
ffffffc0504062b6:	fd843783          	ld	a5,-40(s0)
ffffffc0504062ba:	fef43423          	sd	a5,-24(s0)
ffffffc0504062be:	a005                	j	ffffffc0504062de <kmemset+0x40>
ffffffc0504062c0:	fe843783          	ld	a5,-24(s0)
ffffffc0504062c4:	00178713          	addi	a4,a5,1
ffffffc0504062c8:	fee43423          	sd	a4,-24(s0)
ffffffc0504062cc:	fd744703          	lbu	a4,-41(s0)
ffffffc0504062d0:	00e78023          	sb	a4,0(a5)
ffffffc0504062d4:	fd042783          	lw	a5,-48(s0)
ffffffc0504062d8:	37fd                	addiw	a5,a5,-1
ffffffc0504062da:	fcf42823          	sw	a5,-48(s0)
ffffffc0504062de:	fd042783          	lw	a5,-48(s0)
ffffffc0504062e2:	2781                	sext.w	a5,a5
ffffffc0504062e4:	fff1                	bnez	a5,ffffffc0504062c0 <kmemset+0x22>
ffffffc0504062e6:	0001                	nop
ffffffc0504062e8:	0001                	nop
ffffffc0504062ea:	7422                	ld	s0,40(sp)
ffffffc0504062ec:	6145                	addi	sp,sp,48
ffffffc0504062ee:	8082                	ret

ffffffc0504062f0 <kbzero>:
ffffffc0504062f0:	1101                	addi	sp,sp,-32
ffffffc0504062f2:	ec06                	sd	ra,24(sp)
ffffffc0504062f4:	e822                	sd	s0,16(sp)
ffffffc0504062f6:	1000                	addi	s0,sp,32
ffffffc0504062f8:	fea43423          	sd	a0,-24(s0)
ffffffc0504062fc:	87ae                	mv	a5,a1
ffffffc0504062fe:	fef42223          	sw	a5,-28(s0)
ffffffc050406302:	fe442783          	lw	a5,-28(s0)
ffffffc050406306:	863e                	mv	a2,a5
ffffffc050406308:	4581                	li	a1,0
ffffffc05040630a:	fe843503          	ld	a0,-24(s0)
ffffffc05040630e:	f91ff0ef          	jal	ra,ffffffc05040629e <kmemset>
ffffffc050406312:	0001                	nop
ffffffc050406314:	60e2                	ld	ra,24(sp)
ffffffc050406316:	6442                	ld	s0,16(sp)
ffffffc050406318:	6105                	addi	sp,sp,32
ffffffc05040631a:	8082                	ret

ffffffc05040631c <kstrcmp>:
ffffffc05040631c:	1101                	addi	sp,sp,-32
ffffffc05040631e:	ec22                	sd	s0,24(sp)
ffffffc050406320:	1000                	addi	s0,sp,32
ffffffc050406322:	fea43423          	sd	a0,-24(s0)
ffffffc050406326:	feb43023          	sd	a1,-32(s0)
ffffffc05040632a:	a0a1                	j	ffffffc050406372 <kstrcmp+0x56>
ffffffc05040632c:	fe843783          	ld	a5,-24(s0)
ffffffc050406330:	0007c703          	lbu	a4,0(a5)
ffffffc050406334:	fe043783          	ld	a5,-32(s0)
ffffffc050406338:	0007c783          	lbu	a5,0(a5)
ffffffc05040633c:	02f70163          	beq	a4,a5,ffffffc05040635e <kstrcmp+0x42>
ffffffc050406340:	fe843783          	ld	a5,-24(s0)
ffffffc050406344:	0007c783          	lbu	a5,0(a5)
ffffffc050406348:	0007871b          	sext.w	a4,a5
ffffffc05040634c:	fe043783          	ld	a5,-32(s0)
ffffffc050406350:	0007c783          	lbu	a5,0(a5)
ffffffc050406354:	2781                	sext.w	a5,a5
ffffffc050406356:	40f707bb          	subw	a5,a4,a5
ffffffc05040635a:	2781                	sext.w	a5,a5
ffffffc05040635c:	a099                	j	ffffffc0504063a2 <kstrcmp+0x86>
ffffffc05040635e:	fe843783          	ld	a5,-24(s0)
ffffffc050406362:	0785                	addi	a5,a5,1
ffffffc050406364:	fef43423          	sd	a5,-24(s0)
ffffffc050406368:	fe043783          	ld	a5,-32(s0)
ffffffc05040636c:	0785                	addi	a5,a5,1
ffffffc05040636e:	fef43023          	sd	a5,-32(s0)
ffffffc050406372:	fe843783          	ld	a5,-24(s0)
ffffffc050406376:	0007c783          	lbu	a5,0(a5)
ffffffc05040637a:	c791                	beqz	a5,ffffffc050406386 <kstrcmp+0x6a>
ffffffc05040637c:	fe043783          	ld	a5,-32(s0)
ffffffc050406380:	0007c783          	lbu	a5,0(a5)
ffffffc050406384:	f7c5                	bnez	a5,ffffffc05040632c <kstrcmp+0x10>
ffffffc050406386:	fe843783          	ld	a5,-24(s0)
ffffffc05040638a:	0007c783          	lbu	a5,0(a5)
ffffffc05040638e:	0007871b          	sext.w	a4,a5
ffffffc050406392:	fe043783          	ld	a5,-32(s0)
ffffffc050406396:	0007c783          	lbu	a5,0(a5)
ffffffc05040639a:	2781                	sext.w	a5,a5
ffffffc05040639c:	40f707bb          	subw	a5,a4,a5
ffffffc0504063a0:	2781                	sext.w	a5,a5
ffffffc0504063a2:	853e                	mv	a0,a5
ffffffc0504063a4:	6462                	ld	s0,24(sp)
ffffffc0504063a6:	6105                	addi	sp,sp,32
ffffffc0504063a8:	8082                	ret

ffffffc0504063aa <kstrcpy>:
ffffffc0504063aa:	7179                	addi	sp,sp,-48
ffffffc0504063ac:	f422                	sd	s0,40(sp)
ffffffc0504063ae:	1800                	addi	s0,sp,48
ffffffc0504063b0:	fca43c23          	sd	a0,-40(s0)
ffffffc0504063b4:	fcb43823          	sd	a1,-48(s0)
ffffffc0504063b8:	fd843783          	ld	a5,-40(s0)
ffffffc0504063bc:	fef43423          	sd	a5,-24(s0)
ffffffc0504063c0:	a00d                	j	ffffffc0504063e2 <kstrcpy+0x38>
ffffffc0504063c2:	fd043703          	ld	a4,-48(s0)
ffffffc0504063c6:	00170793          	addi	a5,a4,1
ffffffc0504063ca:	fcf43823          	sd	a5,-48(s0)
ffffffc0504063ce:	fd843783          	ld	a5,-40(s0)
ffffffc0504063d2:	00178693          	addi	a3,a5,1
ffffffc0504063d6:	fcd43c23          	sd	a3,-40(s0)
ffffffc0504063da:	00074703          	lbu	a4,0(a4)
ffffffc0504063de:	00e78023          	sb	a4,0(a5)
ffffffc0504063e2:	fd043783          	ld	a5,-48(s0)
ffffffc0504063e6:	0007c783          	lbu	a5,0(a5)
ffffffc0504063ea:	ffe1                	bnez	a5,ffffffc0504063c2 <kstrcpy+0x18>
ffffffc0504063ec:	fd843783          	ld	a5,-40(s0)
ffffffc0504063f0:	00078023          	sb	zero,0(a5)
ffffffc0504063f4:	fe843783          	ld	a5,-24(s0)
ffffffc0504063f8:	853e                	mv	a0,a5
ffffffc0504063fa:	7422                	ld	s0,40(sp)
ffffffc0504063fc:	6145                	addi	sp,sp,48
ffffffc0504063fe:	8082                	ret

ffffffc050406400 <kstrcat>:
ffffffc050406400:	7179                	addi	sp,sp,-48
ffffffc050406402:	f422                	sd	s0,40(sp)
ffffffc050406404:	1800                	addi	s0,sp,48
ffffffc050406406:	fca43c23          	sd	a0,-40(s0)
ffffffc05040640a:	fcb43823          	sd	a1,-48(s0)
ffffffc05040640e:	fd843783          	ld	a5,-40(s0)
ffffffc050406412:	fef43423          	sd	a5,-24(s0)
ffffffc050406416:	a031                	j	ffffffc050406422 <kstrcat+0x22>
ffffffc050406418:	fd843783          	ld	a5,-40(s0)
ffffffc05040641c:	0785                	addi	a5,a5,1
ffffffc05040641e:	fcf43c23          	sd	a5,-40(s0)
ffffffc050406422:	fd843783          	ld	a5,-40(s0)
ffffffc050406426:	0007c783          	lbu	a5,0(a5)
ffffffc05040642a:	f7fd                	bnez	a5,ffffffc050406418 <kstrcat+0x18>
ffffffc05040642c:	a00d                	j	ffffffc05040644e <kstrcat+0x4e>
ffffffc05040642e:	fd043703          	ld	a4,-48(s0)
ffffffc050406432:	00170793          	addi	a5,a4,1
ffffffc050406436:	fcf43823          	sd	a5,-48(s0)
ffffffc05040643a:	fd843783          	ld	a5,-40(s0)
ffffffc05040643e:	00178693          	addi	a3,a5,1
ffffffc050406442:	fcd43c23          	sd	a3,-40(s0)
ffffffc050406446:	00074703          	lbu	a4,0(a4)
ffffffc05040644a:	00e78023          	sb	a4,0(a5)
ffffffc05040644e:	fd043783          	ld	a5,-48(s0)
ffffffc050406452:	0007c783          	lbu	a5,0(a5)
ffffffc050406456:	ffe1                	bnez	a5,ffffffc05040642e <kstrcat+0x2e>
ffffffc050406458:	fd843783          	ld	a5,-40(s0)
ffffffc05040645c:	00078023          	sb	zero,0(a5)
ffffffc050406460:	fe843783          	ld	a5,-24(s0)
ffffffc050406464:	853e                	mv	a0,a5
ffffffc050406466:	7422                	ld	s0,40(sp)
ffffffc050406468:	6145                	addi	sp,sp,48
ffffffc05040646a:	8082                	ret

ffffffc05040646c <mini_strlen>:
ffffffc05040646c:	7179                	addi	sp,sp,-48
ffffffc05040646e:	f422                	sd	s0,40(sp)
ffffffc050406470:	1800                	addi	s0,sp,48
ffffffc050406472:	fca43c23          	sd	a0,-40(s0)
ffffffc050406476:	fe042623          	sw	zero,-20(s0)
ffffffc05040647a:	a031                	j	ffffffc050406486 <mini_strlen+0x1a>
ffffffc05040647c:	fec42783          	lw	a5,-20(s0)
ffffffc050406480:	2785                	addiw	a5,a5,1
ffffffc050406482:	fef42623          	sw	a5,-20(s0)
ffffffc050406486:	fec46783          	lwu	a5,-20(s0)
ffffffc05040648a:	fd843703          	ld	a4,-40(s0)
ffffffc05040648e:	97ba                	add	a5,a5,a4
ffffffc050406490:	0007c783          	lbu	a5,0(a5)
ffffffc050406494:	f7e5                	bnez	a5,ffffffc05040647c <mini_strlen+0x10>
ffffffc050406496:	fec42783          	lw	a5,-20(s0)
ffffffc05040649a:	853e                	mv	a0,a5
ffffffc05040649c:	7422                	ld	s0,40(sp)
ffffffc05040649e:	6145                	addi	sp,sp,48
ffffffc0504064a0:	8082                	ret

ffffffc0504064a2 <mini_itoa>:
ffffffc0504064a2:	715d                	addi	sp,sp,-80
ffffffc0504064a4:	e4a2                	sd	s0,72(sp)
ffffffc0504064a6:	0880                	addi	s0,sp,80
ffffffc0504064a8:	fca43423          	sd	a0,-56(s0)
ffffffc0504064ac:	fae43823          	sd	a4,-80(s0)
ffffffc0504064b0:	873e                	mv	a4,a5
ffffffc0504064b2:	87ae                	mv	a5,a1
ffffffc0504064b4:	fcf42223          	sw	a5,-60(s0)
ffffffc0504064b8:	87b2                	mv	a5,a2
ffffffc0504064ba:	fcf42023          	sw	a5,-64(s0)
ffffffc0504064be:	87b6                	mv	a5,a3
ffffffc0504064c0:	faf42e23          	sw	a5,-68(s0)
ffffffc0504064c4:	87ba                	mv	a5,a4
ffffffc0504064c6:	faf42c23          	sw	a5,-72(s0)
ffffffc0504064ca:	fb043783          	ld	a5,-80(s0)
ffffffc0504064ce:	fef43423          	sd	a5,-24(s0)
ffffffc0504064d2:	fe042223          	sw	zero,-28(s0)
ffffffc0504064d6:	fc442783          	lw	a5,-60(s0)
ffffffc0504064da:	0007871b          	sext.w	a4,a5
ffffffc0504064de:	47c1                	li	a5,16
ffffffc0504064e0:	00e7f463          	bgeu	a5,a4,ffffffc0504064e8 <mini_itoa+0x46>
ffffffc0504064e4:	4781                	li	a5,0
ffffffc0504064e6:	aae9                	j	ffffffc0504066c0 <mini_itoa+0x21e>
ffffffc0504064e8:	fc843783          	ld	a5,-56(s0)
ffffffc0504064ec:	0007df63          	bgez	a5,ffffffc05040650a <mini_itoa+0x68>
ffffffc0504064f0:	fbc42783          	lw	a5,-68(s0)
ffffffc0504064f4:	2781                	sext.w	a5,a5
ffffffc0504064f6:	eb91                	bnez	a5,ffffffc05040650a <mini_itoa+0x68>
ffffffc0504064f8:	4785                	li	a5,1
ffffffc0504064fa:	fef42223          	sw	a5,-28(s0)
ffffffc0504064fe:	fc843783          	ld	a5,-56(s0)
ffffffc050406502:	40f007b3          	neg	a5,a5
ffffffc050406506:	fcf43423          	sd	a5,-56(s0)
ffffffc05040650a:	fc042e23          	sw	zero,-36(s0)
ffffffc05040650e:	fbc42783          	lw	a5,-68(s0)
ffffffc050406512:	2781                	sext.w	a5,a5
ffffffc050406514:	cb91                	beqz	a5,ffffffc050406528 <mini_itoa+0x86>
ffffffc050406516:	fc843703          	ld	a4,-56(s0)
ffffffc05040651a:	fc446783          	lwu	a5,-60(s0)
ffffffc05040651e:	02f777b3          	remu	a5,a4,a5
ffffffc050406522:	fcf42e23          	sw	a5,-36(s0)
ffffffc050406526:	a809                	j	ffffffc050406538 <mini_itoa+0x96>
ffffffc050406528:	fc446783          	lwu	a5,-60(s0)
ffffffc05040652c:	fc843703          	ld	a4,-56(s0)
ffffffc050406530:	02f767b3          	rem	a5,a4,a5
ffffffc050406534:	fcf42e23          	sw	a5,-36(s0)
ffffffc050406538:	fdc42783          	lw	a5,-36(s0)
ffffffc05040653c:	0007871b          	sext.w	a4,a5
ffffffc050406540:	47a5                	li	a5,9
ffffffc050406542:	00e7cb63          	blt	a5,a4,ffffffc050406558 <mini_itoa+0xb6>
ffffffc050406546:	fdc42783          	lw	a5,-36(s0)
ffffffc05040654a:	0ff7f793          	andi	a5,a5,255
ffffffc05040654e:	0307879b          	addiw	a5,a5,48
ffffffc050406552:	0ff7f713          	andi	a4,a5,255
ffffffc050406556:	a025                	j	ffffffc05040657e <mini_itoa+0xdc>
ffffffc050406558:	fc042783          	lw	a5,-64(s0)
ffffffc05040655c:	2781                	sext.w	a5,a5
ffffffc05040655e:	c781                	beqz	a5,ffffffc050406566 <mini_itoa+0xc4>
ffffffc050406560:	04100793          	li	a5,65
ffffffc050406564:	a019                	j	ffffffc05040656a <mini_itoa+0xc8>
ffffffc050406566:	06100793          	li	a5,97
ffffffc05040656a:	fdc42703          	lw	a4,-36(s0)
ffffffc05040656e:	0ff77713          	andi	a4,a4,255
ffffffc050406572:	9fb9                	addw	a5,a5,a4
ffffffc050406574:	0ff7f793          	andi	a5,a5,255
ffffffc050406578:	37d9                	addiw	a5,a5,-10
ffffffc05040657a:	0ff7f713          	andi	a4,a5,255
ffffffc05040657e:	fe843783          	ld	a5,-24(s0)
ffffffc050406582:	00178693          	addi	a3,a5,1
ffffffc050406586:	fed43423          	sd	a3,-24(s0)
ffffffc05040658a:	00e78023          	sb	a4,0(a5)
ffffffc05040658e:	fbc42783          	lw	a5,-68(s0)
ffffffc050406592:	2781                	sext.w	a5,a5
ffffffc050406594:	cb91                	beqz	a5,ffffffc0504065a8 <mini_itoa+0x106>
ffffffc050406596:	fc843703          	ld	a4,-56(s0)
ffffffc05040659a:	fc446783          	lwu	a5,-60(s0)
ffffffc05040659e:	02f757b3          	divu	a5,a4,a5
ffffffc0504065a2:	fcf43423          	sd	a5,-56(s0)
ffffffc0504065a6:	a809                	j	ffffffc0504065b8 <mini_itoa+0x116>
ffffffc0504065a8:	fc446783          	lwu	a5,-60(s0)
ffffffc0504065ac:	fc843703          	ld	a4,-56(s0)
ffffffc0504065b0:	02f747b3          	div	a5,a4,a5
ffffffc0504065b4:	fcf43423          	sd	a5,-56(s0)
ffffffc0504065b8:	fc843783          	ld	a5,-56(s0)
ffffffc0504065bc:	f7b9                	bnez	a5,ffffffc05040650a <mini_itoa+0x68>
ffffffc0504065be:	fe843703          	ld	a4,-24(s0)
ffffffc0504065c2:	fb043783          	ld	a5,-80(s0)
ffffffc0504065c6:	40f707b3          	sub	a5,a4,a5
ffffffc0504065ca:	fef42023          	sw	a5,-32(s0)
ffffffc0504065ce:	a005                	j	ffffffc0504065ee <mini_itoa+0x14c>
ffffffc0504065d0:	fe843783          	ld	a5,-24(s0)
ffffffc0504065d4:	00178713          	addi	a4,a5,1
ffffffc0504065d8:	fee43423          	sd	a4,-24(s0)
ffffffc0504065dc:	03000713          	li	a4,48
ffffffc0504065e0:	00e78023          	sb	a4,0(a5)
ffffffc0504065e4:	fe042783          	lw	a5,-32(s0)
ffffffc0504065e8:	2785                	addiw	a5,a5,1
ffffffc0504065ea:	fef42023          	sw	a5,-32(s0)
ffffffc0504065ee:	fe042703          	lw	a4,-32(s0)
ffffffc0504065f2:	fb842783          	lw	a5,-72(s0)
ffffffc0504065f6:	2701                	sext.w	a4,a4
ffffffc0504065f8:	2781                	sext.w	a5,a5
ffffffc0504065fa:	fcf76be3          	bltu	a4,a5,ffffffc0504065d0 <mini_itoa+0x12e>
ffffffc0504065fe:	fe442783          	lw	a5,-28(s0)
ffffffc050406602:	2781                	sext.w	a5,a5
ffffffc050406604:	cb99                	beqz	a5,ffffffc05040661a <mini_itoa+0x178>
ffffffc050406606:	fe843783          	ld	a5,-24(s0)
ffffffc05040660a:	00178713          	addi	a4,a5,1
ffffffc05040660e:	fee43423          	sd	a4,-24(s0)
ffffffc050406612:	02d00713          	li	a4,45
ffffffc050406616:	00e78023          	sb	a4,0(a5)
ffffffc05040661a:	fe843783          	ld	a5,-24(s0)
ffffffc05040661e:	00078023          	sb	zero,0(a5)
ffffffc050406622:	fe843703          	ld	a4,-24(s0)
ffffffc050406626:	fb043783          	ld	a5,-80(s0)
ffffffc05040662a:	40f707b3          	sub	a5,a4,a5
ffffffc05040662e:	fcf42c23          	sw	a5,-40(s0)
ffffffc050406632:	fe042023          	sw	zero,-32(s0)
ffffffc050406636:	a885                	j	ffffffc0504066a6 <mini_itoa+0x204>
ffffffc050406638:	fe046783          	lwu	a5,-32(s0)
ffffffc05040663c:	fb043703          	ld	a4,-80(s0)
ffffffc050406640:	97ba                	add	a5,a5,a4
ffffffc050406642:	0007c783          	lbu	a5,0(a5)
ffffffc050406646:	fcf40ba3          	sb	a5,-41(s0)
ffffffc05040664a:	fd842703          	lw	a4,-40(s0)
ffffffc05040664e:	fe042783          	lw	a5,-32(s0)
ffffffc050406652:	40f707bb          	subw	a5,a4,a5
ffffffc050406656:	2781                	sext.w	a5,a5
ffffffc050406658:	37fd                	addiw	a5,a5,-1
ffffffc05040665a:	2781                	sext.w	a5,a5
ffffffc05040665c:	1782                	slli	a5,a5,0x20
ffffffc05040665e:	9381                	srli	a5,a5,0x20
ffffffc050406660:	fb043703          	ld	a4,-80(s0)
ffffffc050406664:	973e                	add	a4,a4,a5
ffffffc050406666:	fe046783          	lwu	a5,-32(s0)
ffffffc05040666a:	fb043683          	ld	a3,-80(s0)
ffffffc05040666e:	97b6                	add	a5,a5,a3
ffffffc050406670:	00074703          	lbu	a4,0(a4)
ffffffc050406674:	00e78023          	sb	a4,0(a5)
ffffffc050406678:	fd842703          	lw	a4,-40(s0)
ffffffc05040667c:	fe042783          	lw	a5,-32(s0)
ffffffc050406680:	40f707bb          	subw	a5,a4,a5
ffffffc050406684:	2781                	sext.w	a5,a5
ffffffc050406686:	37fd                	addiw	a5,a5,-1
ffffffc050406688:	2781                	sext.w	a5,a5
ffffffc05040668a:	1782                	slli	a5,a5,0x20
ffffffc05040668c:	9381                	srli	a5,a5,0x20
ffffffc05040668e:	fb043703          	ld	a4,-80(s0)
ffffffc050406692:	97ba                	add	a5,a5,a4
ffffffc050406694:	fd744703          	lbu	a4,-41(s0)
ffffffc050406698:	00e78023          	sb	a4,0(a5)
ffffffc05040669c:	fe042783          	lw	a5,-32(s0)
ffffffc0504066a0:	2785                	addiw	a5,a5,1
ffffffc0504066a2:	fef42023          	sw	a5,-32(s0)
ffffffc0504066a6:	fd842783          	lw	a5,-40(s0)
ffffffc0504066aa:	0017d79b          	srliw	a5,a5,0x1
ffffffc0504066ae:	0007871b          	sext.w	a4,a5
ffffffc0504066b2:	fe042783          	lw	a5,-32(s0)
ffffffc0504066b6:	2781                	sext.w	a5,a5
ffffffc0504066b8:	f8e7e0e3          	bltu	a5,a4,ffffffc050406638 <mini_itoa+0x196>
ffffffc0504066bc:	fd842783          	lw	a5,-40(s0)
ffffffc0504066c0:	853e                	mv	a0,a5
ffffffc0504066c2:	6426                	ld	s0,72(sp)
ffffffc0504066c4:	6161                	addi	sp,sp,80
ffffffc0504066c6:	8082                	ret

ffffffc0504066c8 <_putc>:
ffffffc0504066c8:	1101                	addi	sp,sp,-32
ffffffc0504066ca:	ec22                	sd	s0,24(sp)
ffffffc0504066cc:	1000                	addi	s0,sp,32
ffffffc0504066ce:	87aa                	mv	a5,a0
ffffffc0504066d0:	feb43023          	sd	a1,-32(s0)
ffffffc0504066d4:	fef42623          	sw	a5,-20(s0)
ffffffc0504066d8:	fe043783          	ld	a5,-32(s0)
ffffffc0504066dc:	6798                	ld	a4,8(a5)
ffffffc0504066de:	fe043783          	ld	a5,-32(s0)
ffffffc0504066e2:	639c                	ld	a5,0(a5)
ffffffc0504066e4:	40f707b3          	sub	a5,a4,a5
ffffffc0504066e8:	2781                	sext.w	a5,a5
ffffffc0504066ea:	2785                	addiw	a5,a5,1
ffffffc0504066ec:	0007871b          	sext.w	a4,a5
ffffffc0504066f0:	fe043783          	ld	a5,-32(s0)
ffffffc0504066f4:	4b9c                	lw	a5,16(a5)
ffffffc0504066f6:	00f76463          	bltu	a4,a5,ffffffc0504066fe <_putc+0x36>
ffffffc0504066fa:	4781                	li	a5,0
ffffffc0504066fc:	a02d                	j	ffffffc050406726 <_putc+0x5e>
ffffffc0504066fe:	fe043783          	ld	a5,-32(s0)
ffffffc050406702:	679c                	ld	a5,8(a5)
ffffffc050406704:	00178693          	addi	a3,a5,1
ffffffc050406708:	fe043703          	ld	a4,-32(s0)
ffffffc05040670c:	e714                	sd	a3,8(a4)
ffffffc05040670e:	fec42703          	lw	a4,-20(s0)
ffffffc050406712:	0ff77713          	andi	a4,a4,255
ffffffc050406716:	00e78023          	sb	a4,0(a5)
ffffffc05040671a:	fe043783          	ld	a5,-32(s0)
ffffffc05040671e:	679c                	ld	a5,8(a5)
ffffffc050406720:	00078023          	sb	zero,0(a5)
ffffffc050406724:	4785                	li	a5,1
ffffffc050406726:	853e                	mv	a0,a5
ffffffc050406728:	6462                	ld	s0,24(sp)
ffffffc05040672a:	6105                	addi	sp,sp,32
ffffffc05040672c:	8082                	ret

ffffffc05040672e <_puts>:
ffffffc05040672e:	7139                	addi	sp,sp,-64
ffffffc050406730:	fc22                	sd	s0,56(sp)
ffffffc050406732:	0080                	addi	s0,sp,64
ffffffc050406734:	fca43c23          	sd	a0,-40(s0)
ffffffc050406738:	87ae                	mv	a5,a1
ffffffc05040673a:	fcc43423          	sd	a2,-56(s0)
ffffffc05040673e:	fcf42a23          	sw	a5,-44(s0)
ffffffc050406742:	fc843783          	ld	a5,-56(s0)
ffffffc050406746:	4b9c                	lw	a5,16(a5)
ffffffc050406748:	02079713          	slli	a4,a5,0x20
ffffffc05040674c:	9301                	srli	a4,a4,0x20
ffffffc05040674e:	fc843783          	ld	a5,-56(s0)
ffffffc050406752:	6794                	ld	a3,8(a5)
ffffffc050406754:	fc843783          	ld	a5,-56(s0)
ffffffc050406758:	639c                	ld	a5,0(a5)
ffffffc05040675a:	40f687b3          	sub	a5,a3,a5
ffffffc05040675e:	8f1d                	sub	a4,a4,a5
ffffffc050406760:	fd446783          	lwu	a5,-44(s0)
ffffffc050406764:	02e7c463          	blt	a5,a4,ffffffc05040678c <_puts+0x5e>
ffffffc050406768:	fc843783          	ld	a5,-56(s0)
ffffffc05040676c:	4b98                	lw	a4,16(a5)
ffffffc05040676e:	fc843783          	ld	a5,-56(s0)
ffffffc050406772:	6794                	ld	a3,8(a5)
ffffffc050406774:	fc843783          	ld	a5,-56(s0)
ffffffc050406778:	639c                	ld	a5,0(a5)
ffffffc05040677a:	40f687b3          	sub	a5,a3,a5
ffffffc05040677e:	2781                	sext.w	a5,a5
ffffffc050406780:	40f707bb          	subw	a5,a4,a5
ffffffc050406784:	2781                	sext.w	a5,a5
ffffffc050406786:	37fd                	addiw	a5,a5,-1
ffffffc050406788:	fcf42a23          	sw	a5,-44(s0)
ffffffc05040678c:	fe042623          	sw	zero,-20(s0)
ffffffc050406790:	a03d                	j	ffffffc0504067be <_puts+0x90>
ffffffc050406792:	fec46783          	lwu	a5,-20(s0)
ffffffc050406796:	fd843703          	ld	a4,-40(s0)
ffffffc05040679a:	973e                	add	a4,a4,a5
ffffffc05040679c:	fc843783          	ld	a5,-56(s0)
ffffffc0504067a0:	679c                	ld	a5,8(a5)
ffffffc0504067a2:	00178613          	addi	a2,a5,1
ffffffc0504067a6:	fc843683          	ld	a3,-56(s0)
ffffffc0504067aa:	e690                	sd	a2,8(a3)
ffffffc0504067ac:	00074703          	lbu	a4,0(a4)
ffffffc0504067b0:	00e78023          	sb	a4,0(a5)
ffffffc0504067b4:	fec42783          	lw	a5,-20(s0)
ffffffc0504067b8:	2785                	addiw	a5,a5,1
ffffffc0504067ba:	fef42623          	sw	a5,-20(s0)
ffffffc0504067be:	fec42703          	lw	a4,-20(s0)
ffffffc0504067c2:	fd442783          	lw	a5,-44(s0)
ffffffc0504067c6:	2701                	sext.w	a4,a4
ffffffc0504067c8:	2781                	sext.w	a5,a5
ffffffc0504067ca:	fcf764e3          	bltu	a4,a5,ffffffc050406792 <_puts+0x64>
ffffffc0504067ce:	fc843783          	ld	a5,-56(s0)
ffffffc0504067d2:	679c                	ld	a5,8(a5)
ffffffc0504067d4:	00078023          	sb	zero,0(a5)
ffffffc0504067d8:	fd442783          	lw	a5,-44(s0)
ffffffc0504067dc:	853e                	mv	a0,a5
ffffffc0504067de:	7462                	ld	s0,56(sp)
ffffffc0504067e0:	6121                	addi	sp,sp,64
ffffffc0504067e2:	8082                	ret

ffffffc0504067e4 <mini_vsnprintf>:
ffffffc0504067e4:	7119                	addi	sp,sp,-128
ffffffc0504067e6:	fc86                	sd	ra,120(sp)
ffffffc0504067e8:	f8a2                	sd	s0,112(sp)
ffffffc0504067ea:	0100                	addi	s0,sp,128
ffffffc0504067ec:	f8a43c23          	sd	a0,-104(s0)
ffffffc0504067f0:	87ae                	mv	a5,a1
ffffffc0504067f2:	f8c43423          	sd	a2,-120(s0)
ffffffc0504067f6:	f8d43023          	sd	a3,-128(s0)
ffffffc0504067fa:	f8f42a23          	sw	a5,-108(s0)
ffffffc0504067fe:	f9843783          	ld	a5,-104(s0)
ffffffc050406802:	fcf43023          	sd	a5,-64(s0)
ffffffc050406806:	f9843783          	ld	a5,-104(s0)
ffffffc05040680a:	fcf43423          	sd	a5,-56(s0)
ffffffc05040680e:	f9442783          	lw	a5,-108(s0)
ffffffc050406812:	fcf42823          	sw	a5,-48(s0)
ffffffc050406816:	a4f9                	j	ffffffc050406ae4 <mini_vsnprintf+0x300>
ffffffc050406818:	fc843703          	ld	a4,-56(s0)
ffffffc05040681c:	fc043783          	ld	a5,-64(s0)
ffffffc050406820:	40f707b3          	sub	a5,a4,a5
ffffffc050406824:	2781                	sext.w	a5,a5
ffffffc050406826:	2785                	addiw	a5,a5,1
ffffffc050406828:	0007871b          	sext.w	a4,a5
ffffffc05040682c:	fd042783          	lw	a5,-48(s0)
ffffffc050406830:	2cf77b63          	bgeu	a4,a5,ffffffc050406b06 <mini_vsnprintf+0x322>
ffffffc050406834:	fef44783          	lbu	a5,-17(s0)
ffffffc050406838:	0ff7f713          	andi	a4,a5,255
ffffffc05040683c:	02500793          	li	a5,37
ffffffc050406840:	00f70c63          	beq	a4,a5,ffffffc050406858 <mini_vsnprintf+0x74>
ffffffc050406844:	fef44783          	lbu	a5,-17(s0)
ffffffc050406848:	2781                	sext.w	a5,a5
ffffffc05040684a:	fc040713          	addi	a4,s0,-64
ffffffc05040684e:	85ba                	mv	a1,a4
ffffffc050406850:	853e                	mv	a0,a5
ffffffc050406852:	e77ff0ef          	jal	ra,ffffffc0504066c8 <_putc>
ffffffc050406856:	a479                	j	ffffffc050406ae4 <mini_vsnprintf+0x300>
ffffffc050406858:	fe040723          	sb	zero,-18(s0)
ffffffc05040685c:	fe042423          	sw	zero,-24(s0)
ffffffc050406860:	f8843783          	ld	a5,-120(s0)
ffffffc050406864:	00178713          	addi	a4,a5,1
ffffffc050406868:	f8e43423          	sd	a4,-120(s0)
ffffffc05040686c:	0007c783          	lbu	a5,0(a5)
ffffffc050406870:	fef407a3          	sb	a5,-17(s0)
ffffffc050406874:	fef44783          	lbu	a5,-17(s0)
ffffffc050406878:	0ff7f713          	andi	a4,a5,255
ffffffc05040687c:	03000793          	li	a5,48
ffffffc050406880:	06f71b63          	bne	a4,a5,ffffffc0504068f6 <mini_vsnprintf+0x112>
ffffffc050406884:	a891                	j	ffffffc0504068d8 <mini_vsnprintf+0xf4>
ffffffc050406886:	fef44783          	lbu	a5,-17(s0)
ffffffc05040688a:	0ff7f793          	andi	a5,a5,255
ffffffc05040688e:	26078e63          	beqz	a5,ffffffc050406b0a <mini_vsnprintf+0x326>
ffffffc050406892:	fef44783          	lbu	a5,-17(s0)
ffffffc050406896:	0ff7f713          	andi	a4,a5,255
ffffffc05040689a:	02f00793          	li	a5,47
ffffffc05040689e:	04e7fc63          	bgeu	a5,a4,ffffffc0504068f6 <mini_vsnprintf+0x112>
ffffffc0504068a2:	fef44783          	lbu	a5,-17(s0)
ffffffc0504068a6:	0ff7f713          	andi	a4,a5,255
ffffffc0504068aa:	03900793          	li	a5,57
ffffffc0504068ae:	04e7e463          	bltu	a5,a4,ffffffc0504068f6 <mini_vsnprintf+0x112>
ffffffc0504068b2:	fee44703          	lbu	a4,-18(s0)
ffffffc0504068b6:	87ba                	mv	a5,a4
ffffffc0504068b8:	0027979b          	slliw	a5,a5,0x2
ffffffc0504068bc:	9fb9                	addw	a5,a5,a4
ffffffc0504068be:	0017979b          	slliw	a5,a5,0x1
ffffffc0504068c2:	0ff7f793          	andi	a5,a5,255
ffffffc0504068c6:	fef44703          	lbu	a4,-17(s0)
ffffffc0504068ca:	9fb9                	addw	a5,a5,a4
ffffffc0504068cc:	0ff7f793          	andi	a5,a5,255
ffffffc0504068d0:	fd07879b          	addiw	a5,a5,-48
ffffffc0504068d4:	fef40723          	sb	a5,-18(s0)
ffffffc0504068d8:	f8843783          	ld	a5,-120(s0)
ffffffc0504068dc:	00178713          	addi	a4,a5,1
ffffffc0504068e0:	f8e43423          	sd	a4,-120(s0)
ffffffc0504068e4:	0007c783          	lbu	a5,0(a5)
ffffffc0504068e8:	fef407a3          	sb	a5,-17(s0)
ffffffc0504068ec:	fef44783          	lbu	a5,-17(s0)
ffffffc0504068f0:	0ff7f793          	andi	a5,a5,255
ffffffc0504068f4:	fbc9                	bnez	a5,ffffffc050406886 <mini_vsnprintf+0xa2>
ffffffc0504068f6:	fef44783          	lbu	a5,-17(s0)
ffffffc0504068fa:	0ff7f713          	andi	a4,a5,255
ffffffc0504068fe:	06c00793          	li	a5,108
ffffffc050406902:	00f71f63          	bne	a4,a5,ffffffc050406920 <mini_vsnprintf+0x13c>
ffffffc050406906:	4785                	li	a5,1
ffffffc050406908:	fef42423          	sw	a5,-24(s0)
ffffffc05040690c:	f8843783          	ld	a5,-120(s0)
ffffffc050406910:	00178713          	addi	a4,a5,1
ffffffc050406914:	f8e43423          	sd	a4,-120(s0)
ffffffc050406918:	0007c783          	lbu	a5,0(a5)
ffffffc05040691c:	fef407a3          	sb	a5,-17(s0)
ffffffc050406920:	fef44783          	lbu	a5,-17(s0)
ffffffc050406924:	2781                	sext.w	a5,a5
ffffffc050406926:	1e078463          	beqz	a5,ffffffc050406b0e <mini_vsnprintf+0x32a>
ffffffc05040692a:	873e                	mv	a4,a5
ffffffc05040692c:	1a074263          	bltz	a4,ffffffc050406ad0 <mini_vsnprintf+0x2ec>
ffffffc050406930:	86be                	mv	a3,a5
ffffffc050406932:	07800713          	li	a4,120
ffffffc050406936:	18d74d63          	blt	a4,a3,ffffffc050406ad0 <mini_vsnprintf+0x2ec>
ffffffc05040693a:	86be                	mv	a3,a5
ffffffc05040693c:	05800713          	li	a4,88
ffffffc050406940:	18e6c863          	blt	a3,a4,ffffffc050406ad0 <mini_vsnprintf+0x2ec>
ffffffc050406944:	fa87869b          	addiw	a3,a5,-88
ffffffc050406948:	0006871b          	sext.w	a4,a3
ffffffc05040694c:	02000793          	li	a5,32
ffffffc050406950:	18e7e063          	bltu	a5,a4,ffffffc050406ad0 <mini_vsnprintf+0x2ec>
ffffffc050406954:	02069793          	slli	a5,a3,0x20
ffffffc050406958:	9381                	srli	a5,a5,0x20
ffffffc05040695a:	00279713          	slli	a4,a5,0x2
ffffffc05040695e:	00001797          	auipc	a5,0x1
ffffffc050406962:	dfa78793          	addi	a5,a5,-518 # ffffffc050407758 <__FUNCTION__.1619+0x520>
ffffffc050406966:	97ba                	add	a5,a5,a4
ffffffc050406968:	439c                	lw	a5,0(a5)
ffffffc05040696a:	0007871b          	sext.w	a4,a5
ffffffc05040696e:	00001797          	auipc	a5,0x1
ffffffc050406972:	dea78793          	addi	a5,a5,-534 # ffffffc050407758 <__FUNCTION__.1619+0x520>
ffffffc050406976:	97ba                	add	a5,a5,a4
ffffffc050406978:	8782                	jr	a5
ffffffc05040697a:	4785                	li	a5,1
ffffffc05040697c:	fef42423          	sw	a5,-24(s0)
ffffffc050406980:	a295                	j	ffffffc050406ae4 <mini_vsnprintf+0x300>
ffffffc050406982:	fe842783          	lw	a5,-24(s0)
ffffffc050406986:	2781                	sext.w	a5,a5
ffffffc050406988:	ef81                	bnez	a5,ffffffc0504069a0 <mini_vsnprintf+0x1bc>
ffffffc05040698a:	f8043783          	ld	a5,-128(s0)
ffffffc05040698e:	00878713          	addi	a4,a5,8
ffffffc050406992:	f8e43023          	sd	a4,-128(s0)
ffffffc050406996:	439c                	lw	a5,0(a5)
ffffffc050406998:	02079513          	slli	a0,a5,0x20
ffffffc05040699c:	9101                	srli	a0,a0,0x20
ffffffc05040699e:	a809                	j	ffffffc0504069b0 <mini_vsnprintf+0x1cc>
ffffffc0504069a0:	f8043783          	ld	a5,-128(s0)
ffffffc0504069a4:	00878713          	addi	a4,a5,8
ffffffc0504069a8:	f8e43023          	sd	a4,-128(s0)
ffffffc0504069ac:	639c                	ld	a5,0(a5)
ffffffc0504069ae:	853e                	mv	a0,a5
ffffffc0504069b0:	fef44783          	lbu	a5,-17(s0)
ffffffc0504069b4:	0007871b          	sext.w	a4,a5
ffffffc0504069b8:	07500793          	li	a5,117
ffffffc0504069bc:	40f707b3          	sub	a5,a4,a5
ffffffc0504069c0:	0017b793          	seqz	a5,a5
ffffffc0504069c4:	0ff7f793          	andi	a5,a5,255
ffffffc0504069c8:	0007869b          	sext.w	a3,a5
ffffffc0504069cc:	fee44783          	lbu	a5,-18(s0)
ffffffc0504069d0:	2781                	sext.w	a5,a5
ffffffc0504069d2:	fa840713          	addi	a4,s0,-88
ffffffc0504069d6:	4601                	li	a2,0
ffffffc0504069d8:	45a9                	li	a1,10
ffffffc0504069da:	ac9ff0ef          	jal	ra,ffffffc0504064a2 <mini_itoa>
ffffffc0504069de:	87aa                	mv	a5,a0
ffffffc0504069e0:	fcf42e23          	sw	a5,-36(s0)
ffffffc0504069e4:	fc040693          	addi	a3,s0,-64
ffffffc0504069e8:	fdc42703          	lw	a4,-36(s0)
ffffffc0504069ec:	fa840793          	addi	a5,s0,-88
ffffffc0504069f0:	8636                	mv	a2,a3
ffffffc0504069f2:	85ba                	mv	a1,a4
ffffffc0504069f4:	853e                	mv	a0,a5
ffffffc0504069f6:	d39ff0ef          	jal	ra,ffffffc05040672e <_puts>
ffffffc0504069fa:	fe042423          	sw	zero,-24(s0)
ffffffc0504069fe:	a0dd                	j	ffffffc050406ae4 <mini_vsnprintf+0x300>
ffffffc050406a00:	fe842783          	lw	a5,-24(s0)
ffffffc050406a04:	2781                	sext.w	a5,a5
ffffffc050406a06:	ef81                	bnez	a5,ffffffc050406a1e <mini_vsnprintf+0x23a>
ffffffc050406a08:	f8043783          	ld	a5,-128(s0)
ffffffc050406a0c:	00878713          	addi	a4,a5,8
ffffffc050406a10:	f8e43023          	sd	a4,-128(s0)
ffffffc050406a14:	439c                	lw	a5,0(a5)
ffffffc050406a16:	02079513          	slli	a0,a5,0x20
ffffffc050406a1a:	9101                	srli	a0,a0,0x20
ffffffc050406a1c:	a809                	j	ffffffc050406a2e <mini_vsnprintf+0x24a>
ffffffc050406a1e:	f8043783          	ld	a5,-128(s0)
ffffffc050406a22:	00878713          	addi	a4,a5,8
ffffffc050406a26:	f8e43023          	sd	a4,-128(s0)
ffffffc050406a2a:	639c                	ld	a5,0(a5)
ffffffc050406a2c:	853e                	mv	a0,a5
ffffffc050406a2e:	fef44783          	lbu	a5,-17(s0)
ffffffc050406a32:	0007871b          	sext.w	a4,a5
ffffffc050406a36:	05800793          	li	a5,88
ffffffc050406a3a:	40f707b3          	sub	a5,a4,a5
ffffffc050406a3e:	0017b793          	seqz	a5,a5
ffffffc050406a42:	0ff7f793          	andi	a5,a5,255
ffffffc050406a46:	0007861b          	sext.w	a2,a5
ffffffc050406a4a:	fee44783          	lbu	a5,-18(s0)
ffffffc050406a4e:	2781                	sext.w	a5,a5
ffffffc050406a50:	fa840713          	addi	a4,s0,-88
ffffffc050406a54:	4685                	li	a3,1
ffffffc050406a56:	45c1                	li	a1,16
ffffffc050406a58:	a4bff0ef          	jal	ra,ffffffc0504064a2 <mini_itoa>
ffffffc050406a5c:	87aa                	mv	a5,a0
ffffffc050406a5e:	fcf42e23          	sw	a5,-36(s0)
ffffffc050406a62:	fc040693          	addi	a3,s0,-64
ffffffc050406a66:	fdc42703          	lw	a4,-36(s0)
ffffffc050406a6a:	fa840793          	addi	a5,s0,-88
ffffffc050406a6e:	8636                	mv	a2,a3
ffffffc050406a70:	85ba                	mv	a1,a4
ffffffc050406a72:	853e                	mv	a0,a5
ffffffc050406a74:	cbbff0ef          	jal	ra,ffffffc05040672e <_puts>
ffffffc050406a78:	fe042423          	sw	zero,-24(s0)
ffffffc050406a7c:	a0a5                	j	ffffffc050406ae4 <mini_vsnprintf+0x300>
ffffffc050406a7e:	f8043783          	ld	a5,-128(s0)
ffffffc050406a82:	00878713          	addi	a4,a5,8
ffffffc050406a86:	f8e43023          	sd	a4,-128(s0)
ffffffc050406a8a:	439c                	lw	a5,0(a5)
ffffffc050406a8c:	0ff7f793          	andi	a5,a5,255
ffffffc050406a90:	2781                	sext.w	a5,a5
ffffffc050406a92:	fc040713          	addi	a4,s0,-64
ffffffc050406a96:	85ba                	mv	a1,a4
ffffffc050406a98:	853e                	mv	a0,a5
ffffffc050406a9a:	c2fff0ef          	jal	ra,ffffffc0504066c8 <_putc>
ffffffc050406a9e:	a099                	j	ffffffc050406ae4 <mini_vsnprintf+0x300>
ffffffc050406aa0:	f8043783          	ld	a5,-128(s0)
ffffffc050406aa4:	00878713          	addi	a4,a5,8
ffffffc050406aa8:	f8e43023          	sd	a4,-128(s0)
ffffffc050406aac:	639c                	ld	a5,0(a5)
ffffffc050406aae:	fef43023          	sd	a5,-32(s0)
ffffffc050406ab2:	fe043503          	ld	a0,-32(s0)
ffffffc050406ab6:	9b7ff0ef          	jal	ra,ffffffc05040646c <mini_strlen>
ffffffc050406aba:	87aa                	mv	a5,a0
ffffffc050406abc:	2781                	sext.w	a5,a5
ffffffc050406abe:	fc040713          	addi	a4,s0,-64
ffffffc050406ac2:	863a                	mv	a2,a4
ffffffc050406ac4:	85be                	mv	a1,a5
ffffffc050406ac6:	fe043503          	ld	a0,-32(s0)
ffffffc050406aca:	c65ff0ef          	jal	ra,ffffffc05040672e <_puts>
ffffffc050406ace:	a819                	j	ffffffc050406ae4 <mini_vsnprintf+0x300>
ffffffc050406ad0:	fef44783          	lbu	a5,-17(s0)
ffffffc050406ad4:	2781                	sext.w	a5,a5
ffffffc050406ad6:	fc040713          	addi	a4,s0,-64
ffffffc050406ada:	85ba                	mv	a1,a4
ffffffc050406adc:	853e                	mv	a0,a5
ffffffc050406ade:	bebff0ef          	jal	ra,ffffffc0504066c8 <_putc>
ffffffc050406ae2:	0001                	nop
ffffffc050406ae4:	f8843783          	ld	a5,-120(s0)
ffffffc050406ae8:	00178713          	addi	a4,a5,1
ffffffc050406aec:	f8e43423          	sd	a4,-120(s0)
ffffffc050406af0:	0007c783          	lbu	a5,0(a5)
ffffffc050406af4:	fef407a3          	sb	a5,-17(s0)
ffffffc050406af8:	fef44783          	lbu	a5,-17(s0)
ffffffc050406afc:	0ff7f793          	andi	a5,a5,255
ffffffc050406b00:	d0079ce3          	bnez	a5,ffffffc050406818 <mini_vsnprintf+0x34>
ffffffc050406b04:	a031                	j	ffffffc050406b10 <mini_vsnprintf+0x32c>
ffffffc050406b06:	0001                	nop
ffffffc050406b08:	a021                	j	ffffffc050406b10 <mini_vsnprintf+0x32c>
ffffffc050406b0a:	0001                	nop
ffffffc050406b0c:	a011                	j	ffffffc050406b10 <mini_vsnprintf+0x32c>
ffffffc050406b0e:	0001                	nop
ffffffc050406b10:	fc843703          	ld	a4,-56(s0)
ffffffc050406b14:	fc043783          	ld	a5,-64(s0)
ffffffc050406b18:	40f707b3          	sub	a5,a4,a5
ffffffc050406b1c:	2781                	sext.w	a5,a5
ffffffc050406b1e:	853e                	mv	a0,a5
ffffffc050406b20:	70e6                	ld	ra,120(sp)
ffffffc050406b22:	7446                	ld	s0,112(sp)
ffffffc050406b24:	6109                	addi	sp,sp,128
ffffffc050406b26:	8082                	ret

ffffffc050406b28 <_vprint>:
ffffffc050406b28:	7129                	addi	sp,sp,-320
ffffffc050406b2a:	fe06                	sd	ra,312(sp)
ffffffc050406b2c:	fa22                	sd	s0,304(sp)
ffffffc050406b2e:	0280                	addi	s0,sp,320
ffffffc050406b30:	eca43c23          	sd	a0,-296(s0)
ffffffc050406b34:	ecb43823          	sd	a1,-304(s0)
ffffffc050406b38:	ecc43423          	sd	a2,-312(s0)
ffffffc050406b3c:	87b6                	mv	a5,a3
ffffffc050406b3e:	ecf42223          	sw	a5,-316(s0)
ffffffc050406b42:	f8af90ef          	jal	ra,ffffffc0504002cc <get_current_cpu_id>
ffffffc050406b46:	87aa                	mv	a5,a0
ffffffc050406b48:	c791                	beqz	a5,ffffffc050406b54 <_vprint+0x2c>
ffffffc050406b4a:	00099797          	auipc	a5,0x99
ffffffc050406b4e:	07678793          	addi	a5,a5,118 # ffffffc05049fbc0 <current_running_1>
ffffffc050406b52:	a029                	j	ffffffc050406b5c <_vprint+0x34>
ffffffc050406b54:	00098797          	auipc	a5,0x98
ffffffc050406b58:	64c78793          	addi	a5,a5,1612 # ffffffc05049f1a0 <current_running_0>
ffffffc050406b5c:	00098717          	auipc	a4,0x98
ffffffc050406b60:	65c70713          	addi	a4,a4,1628 # ffffffc05049f1b8 <current_running>
ffffffc050406b64:	e31c                	sd	a5,0(a4)
ffffffc050406b66:	ed043783          	ld	a5,-304(s0)
ffffffc050406b6a:	fef43023          	sd	a5,-32(s0)
ffffffc050406b6e:	fe043703          	ld	a4,-32(s0)
ffffffc050406b72:	ee040793          	addi	a5,s0,-288
ffffffc050406b76:	86ba                	mv	a3,a4
ffffffc050406b78:	ed843603          	ld	a2,-296(s0)
ffffffc050406b7c:	10000593          	li	a1,256
ffffffc050406b80:	853e                	mv	a0,a5
ffffffc050406b82:	c63ff0ef          	jal	ra,ffffffc0504067e4 <mini_vsnprintf>
ffffffc050406b86:	87aa                	mv	a5,a0
ffffffc050406b88:	fef42423          	sw	a5,-24(s0)
ffffffc050406b8c:	fe842783          	lw	a5,-24(s0)
ffffffc050406b90:	ff040713          	addi	a4,s0,-16
ffffffc050406b94:	97ba                	add	a5,a5,a4
ffffffc050406b96:	ee078823          	sb	zero,-272(a5)
ffffffc050406b9a:	d32f90ef          	jal	ra,ffffffc0504000cc <disable_preempt>
ffffffc050406b9e:	ee040793          	addi	a5,s0,-288
ffffffc050406ba2:	ec843703          	ld	a4,-312(s0)
ffffffc050406ba6:	853e                	mv	a0,a5
ffffffc050406ba8:	9702                	jalr	a4
ffffffc050406baa:	ec442783          	lw	a5,-316(s0)
ffffffc050406bae:	2781                	sext.w	a5,a5
ffffffc050406bb0:	c7c9                	beqz	a5,ffffffc050406c3a <_vprint+0x112>
ffffffc050406bb2:	fe042623          	sw	zero,-20(s0)
ffffffc050406bb6:	a895                	j	ffffffc050406c2a <_vprint+0x102>
ffffffc050406bb8:	fec42783          	lw	a5,-20(s0)
ffffffc050406bbc:	ff040713          	addi	a4,s0,-16
ffffffc050406bc0:	97ba                	add	a5,a5,a4
ffffffc050406bc2:	ef07c783          	lbu	a5,-272(a5)
ffffffc050406bc6:	873e                	mv	a4,a5
ffffffc050406bc8:	47a9                	li	a5,10
ffffffc050406bca:	00f71d63          	bne	a4,a5,ffffffc050406be4 <_vprint+0xbc>
ffffffc050406bce:	00098797          	auipc	a5,0x98
ffffffc050406bd2:	5ea78793          	addi	a5,a5,1514 # ffffffc05049f1b8 <current_running>
ffffffc050406bd6:	639c                	ld	a5,0(a5)
ffffffc050406bd8:	639c                	ld	a5,0(a5)
ffffffc050406bda:	4ff8                	lw	a4,92(a5)
ffffffc050406bdc:	2705                	addiw	a4,a4,1
ffffffc050406bde:	2701                	sext.w	a4,a4
ffffffc050406be0:	cff8                	sw	a4,92(a5)
ffffffc050406be2:	a83d                	j	ffffffc050406c20 <_vprint+0xf8>
ffffffc050406be4:	fec42783          	lw	a5,-20(s0)
ffffffc050406be8:	ff040713          	addi	a4,s0,-16
ffffffc050406bec:	97ba                	add	a5,a5,a4
ffffffc050406bee:	ef07c783          	lbu	a5,-272(a5)
ffffffc050406bf2:	873e                	mv	a4,a5
ffffffc050406bf4:	47b5                	li	a5,13
ffffffc050406bf6:	00f71b63          	bne	a4,a5,ffffffc050406c0c <_vprint+0xe4>
ffffffc050406bfa:	00098797          	auipc	a5,0x98
ffffffc050406bfe:	5be78793          	addi	a5,a5,1470 # ffffffc05049f1b8 <current_running>
ffffffc050406c02:	639c                	ld	a5,0(a5)
ffffffc050406c04:	639c                	ld	a5,0(a5)
ffffffc050406c06:	4705                	li	a4,1
ffffffc050406c08:	cfb8                	sw	a4,88(a5)
ffffffc050406c0a:	a819                	j	ffffffc050406c20 <_vprint+0xf8>
ffffffc050406c0c:	00098797          	auipc	a5,0x98
ffffffc050406c10:	5ac78793          	addi	a5,a5,1452 # ffffffc05049f1b8 <current_running>
ffffffc050406c14:	639c                	ld	a5,0(a5)
ffffffc050406c16:	639c                	ld	a5,0(a5)
ffffffc050406c18:	4fb8                	lw	a4,88(a5)
ffffffc050406c1a:	2705                	addiw	a4,a4,1
ffffffc050406c1c:	2701                	sext.w	a4,a4
ffffffc050406c1e:	cfb8                	sw	a4,88(a5)
ffffffc050406c20:	fec42783          	lw	a5,-20(s0)
ffffffc050406c24:	2785                	addiw	a5,a5,1
ffffffc050406c26:	fef42623          	sw	a5,-20(s0)
ffffffc050406c2a:	fec42703          	lw	a4,-20(s0)
ffffffc050406c2e:	fe842783          	lw	a5,-24(s0)
ffffffc050406c32:	2701                	sext.w	a4,a4
ffffffc050406c34:	2781                	sext.w	a5,a5
ffffffc050406c36:	f8f741e3          	blt	a4,a5,ffffffc050406bb8 <_vprint+0x90>
ffffffc050406c3a:	c5af90ef          	jal	ra,ffffffc050400094 <enable_preempt>
ffffffc050406c3e:	fe842783          	lw	a5,-24(s0)
ffffffc050406c42:	853e                	mv	a0,a5
ffffffc050406c44:	70f2                	ld	ra,312(sp)
ffffffc050406c46:	7452                	ld	s0,304(sp)
ffffffc050406c48:	6131                	addi	sp,sp,320
ffffffc050406c4a:	8082                	ret

ffffffc050406c4c <vprintk>:
ffffffc050406c4c:	1101                	addi	sp,sp,-32
ffffffc050406c4e:	ec06                	sd	ra,24(sp)
ffffffc050406c50:	e822                	sd	s0,16(sp)
ffffffc050406c52:	1000                	addi	s0,sp,32
ffffffc050406c54:	fea43423          	sd	a0,-24(s0)
ffffffc050406c58:	feb43023          	sd	a1,-32(s0)
ffffffc050406c5c:	4685                	li	a3,1
ffffffc050406c5e:	ffff9617          	auipc	a2,0xffff9
ffffffc050406c62:	6f860613          	addi	a2,a2,1784 # ffffffc050400356 <port_write>
ffffffc050406c66:	fe043583          	ld	a1,-32(s0)
ffffffc050406c6a:	fe843503          	ld	a0,-24(s0)
ffffffc050406c6e:	ebbff0ef          	jal	ra,ffffffc050406b28 <_vprint>
ffffffc050406c72:	87aa                	mv	a5,a0
ffffffc050406c74:	853e                	mv	a0,a5
ffffffc050406c76:	60e2                	ld	ra,24(sp)
ffffffc050406c78:	6442                	ld	s0,16(sp)
ffffffc050406c7a:	6105                	addi	sp,sp,32
ffffffc050406c7c:	8082                	ret

ffffffc050406c7e <printk>:
ffffffc050406c7e:	7159                	addi	sp,sp,-112
ffffffc050406c80:	f406                	sd	ra,40(sp)
ffffffc050406c82:	f022                	sd	s0,32(sp)
ffffffc050406c84:	1800                	addi	s0,sp,48
ffffffc050406c86:	fca43c23          	sd	a0,-40(s0)
ffffffc050406c8a:	e40c                	sd	a1,8(s0)
ffffffc050406c8c:	e810                	sd	a2,16(s0)
ffffffc050406c8e:	ec14                	sd	a3,24(s0)
ffffffc050406c90:	f018                	sd	a4,32(s0)
ffffffc050406c92:	f41c                	sd	a5,40(s0)
ffffffc050406c94:	03043823          	sd	a6,48(s0)
ffffffc050406c98:	03143c23          	sd	a7,56(s0)
ffffffc050406c9c:	fe042623          	sw	zero,-20(s0)
ffffffc050406ca0:	04040793          	addi	a5,s0,64
ffffffc050406ca4:	fcf43823          	sd	a5,-48(s0)
ffffffc050406ca8:	fd043783          	ld	a5,-48(s0)
ffffffc050406cac:	fc878793          	addi	a5,a5,-56
ffffffc050406cb0:	fef43023          	sd	a5,-32(s0)
ffffffc050406cb4:	fe043783          	ld	a5,-32(s0)
ffffffc050406cb8:	85be                	mv	a1,a5
ffffffc050406cba:	fd843503          	ld	a0,-40(s0)
ffffffc050406cbe:	f8fff0ef          	jal	ra,ffffffc050406c4c <vprintk>
ffffffc050406cc2:	87aa                	mv	a5,a0
ffffffc050406cc4:	fef42623          	sw	a5,-20(s0)
ffffffc050406cc8:	fec42783          	lw	a5,-20(s0)
ffffffc050406ccc:	853e                	mv	a0,a5
ffffffc050406cce:	70a2                	ld	ra,40(sp)
ffffffc050406cd0:	7402                	ld	s0,32(sp)
ffffffc050406cd2:	6165                	addi	sp,sp,112
ffffffc050406cd4:	8082                	ret

ffffffc050406cd6 <vprints>:
ffffffc050406cd6:	1101                	addi	sp,sp,-32
ffffffc050406cd8:	ec06                	sd	ra,24(sp)
ffffffc050406cda:	e822                	sd	s0,16(sp)
ffffffc050406cdc:	1000                	addi	s0,sp,32
ffffffc050406cde:	fea43423          	sd	a0,-24(s0)
ffffffc050406ce2:	feb43023          	sd	a1,-32(s0)
ffffffc050406ce6:	4681                	li	a3,0
ffffffc050406ce8:	ffffb617          	auipc	a2,0xffffb
ffffffc050406cec:	e6060613          	addi	a2,a2,-416 # ffffffc050401b48 <screen_write>
ffffffc050406cf0:	fe043583          	ld	a1,-32(s0)
ffffffc050406cf4:	fe843503          	ld	a0,-24(s0)
ffffffc050406cf8:	e31ff0ef          	jal	ra,ffffffc050406b28 <_vprint>
ffffffc050406cfc:	87aa                	mv	a5,a0
ffffffc050406cfe:	853e                	mv	a0,a5
ffffffc050406d00:	60e2                	ld	ra,24(sp)
ffffffc050406d02:	6442                	ld	s0,16(sp)
ffffffc050406d04:	6105                	addi	sp,sp,32
ffffffc050406d06:	8082                	ret

ffffffc050406d08 <prints>:
ffffffc050406d08:	7159                	addi	sp,sp,-112
ffffffc050406d0a:	f406                	sd	ra,40(sp)
ffffffc050406d0c:	f022                	sd	s0,32(sp)
ffffffc050406d0e:	1800                	addi	s0,sp,48
ffffffc050406d10:	fca43c23          	sd	a0,-40(s0)
ffffffc050406d14:	e40c                	sd	a1,8(s0)
ffffffc050406d16:	e810                	sd	a2,16(s0)
ffffffc050406d18:	ec14                	sd	a3,24(s0)
ffffffc050406d1a:	f018                	sd	a4,32(s0)
ffffffc050406d1c:	f41c                	sd	a5,40(s0)
ffffffc050406d1e:	03043823          	sd	a6,48(s0)
ffffffc050406d22:	03143c23          	sd	a7,56(s0)
ffffffc050406d26:	fe042623          	sw	zero,-20(s0)
ffffffc050406d2a:	04040793          	addi	a5,s0,64
ffffffc050406d2e:	fcf43823          	sd	a5,-48(s0)
ffffffc050406d32:	fd043783          	ld	a5,-48(s0)
ffffffc050406d36:	fc878793          	addi	a5,a5,-56
ffffffc050406d3a:	fef43023          	sd	a5,-32(s0)
ffffffc050406d3e:	fe043783          	ld	a5,-32(s0)
ffffffc050406d42:	85be                	mv	a1,a5
ffffffc050406d44:	fd843503          	ld	a0,-40(s0)
ffffffc050406d48:	f8fff0ef          	jal	ra,ffffffc050406cd6 <vprints>
ffffffc050406d4c:	87aa                	mv	a5,a0
ffffffc050406d4e:	fef42623          	sw	a5,-20(s0)
ffffffc050406d52:	fec42783          	lw	a5,-20(s0)
ffffffc050406d56:	853e                	mv	a0,a5
ffffffc050406d58:	70a2                	ld	ra,40(sp)
ffffffc050406d5a:	7402                	ld	s0,32(sp)
ffffffc050406d5c:	6165                	addi	sp,sp,112
ffffffc050406d5e:	8082                	ret

ffffffc050406d60 <get_elf_file>:
ffffffc050406d60:	7139                	addi	sp,sp,-64
ffffffc050406d62:	fc06                	sd	ra,56(sp)
ffffffc050406d64:	f822                	sd	s0,48(sp)
ffffffc050406d66:	0080                	addi	s0,sp,64
ffffffc050406d68:	fca43c23          	sd	a0,-40(s0)
ffffffc050406d6c:	fcb43823          	sd	a1,-48(s0)
ffffffc050406d70:	fcc43423          	sd	a2,-56(s0)
ffffffc050406d74:	fe042623          	sw	zero,-20(s0)
ffffffc050406d78:	a895                	j	ffffffc050406dec <get_elf_file+0x8c>
ffffffc050406d7a:	0004e697          	auipc	a3,0x4e
ffffffc050406d7e:	5a668693          	addi	a3,a3,1446 # ffffffc050455320 <elf_files>
ffffffc050406d82:	fec42703          	lw	a4,-20(s0)
ffffffc050406d86:	87ba                	mv	a5,a4
ffffffc050406d88:	0786                	slli	a5,a5,0x1
ffffffc050406d8a:	97ba                	add	a5,a5,a4
ffffffc050406d8c:	078e                	slli	a5,a5,0x3
ffffffc050406d8e:	97b6                	add	a5,a5,a3
ffffffc050406d90:	639c                	ld	a5,0(a5)
ffffffc050406d92:	fd843583          	ld	a1,-40(s0)
ffffffc050406d96:	853e                	mv	a0,a5
ffffffc050406d98:	d84ff0ef          	jal	ra,ffffffc05040631c <kstrcmp>
ffffffc050406d9c:	87aa                	mv	a5,a0
ffffffc050406d9e:	e3b1                	bnez	a5,ffffffc050406de2 <get_elf_file+0x82>
ffffffc050406da0:	0004e697          	auipc	a3,0x4e
ffffffc050406da4:	58068693          	addi	a3,a3,1408 # ffffffc050455320 <elf_files>
ffffffc050406da8:	fec42703          	lw	a4,-20(s0)
ffffffc050406dac:	87ba                	mv	a5,a4
ffffffc050406dae:	0786                	slli	a5,a5,0x1
ffffffc050406db0:	97ba                	add	a5,a5,a4
ffffffc050406db2:	078e                	slli	a5,a5,0x3
ffffffc050406db4:	97b6                	add	a5,a5,a3
ffffffc050406db6:	6798                	ld	a4,8(a5)
ffffffc050406db8:	fd043783          	ld	a5,-48(s0)
ffffffc050406dbc:	e398                	sd	a4,0(a5)
ffffffc050406dbe:	0004e697          	auipc	a3,0x4e
ffffffc050406dc2:	56268693          	addi	a3,a3,1378 # ffffffc050455320 <elf_files>
ffffffc050406dc6:	fec42703          	lw	a4,-20(s0)
ffffffc050406dca:	87ba                	mv	a5,a4
ffffffc050406dcc:	0786                	slli	a5,a5,0x1
ffffffc050406dce:	97ba                	add	a5,a5,a4
ffffffc050406dd0:	078e                	slli	a5,a5,0x3
ffffffc050406dd2:	97b6                	add	a5,a5,a3
ffffffc050406dd4:	6b9c                	ld	a5,16(a5)
ffffffc050406dd6:	4398                	lw	a4,0(a5)
ffffffc050406dd8:	fc843783          	ld	a5,-56(s0)
ffffffc050406ddc:	c398                	sw	a4,0(a5)
ffffffc050406dde:	4785                	li	a5,1
ffffffc050406de0:	a831                	j	ffffffc050406dfc <get_elf_file+0x9c>
ffffffc050406de2:	fec42783          	lw	a5,-20(s0)
ffffffc050406de6:	2785                	addiw	a5,a5,1
ffffffc050406de8:	fef42623          	sw	a5,-20(s0)
ffffffc050406dec:	fec42783          	lw	a5,-20(s0)
ffffffc050406df0:	0007871b          	sext.w	a4,a5
ffffffc050406df4:	4799                	li	a5,6
ffffffc050406df6:	f8e7d2e3          	bge	a5,a4,ffffffc050406d7a <get_elf_file+0x1a>
ffffffc050406dfa:	4781                	li	a5,0
ffffffc050406dfc:	853e                	mv	a0,a5
ffffffc050406dfe:	70e2                	ld	ra,56(sp)
ffffffc050406e00:	7442                	ld	s0,48(sp)
ffffffc050406e02:	6121                	addi	sp,sp,64
ffffffc050406e04:	8082                	ret
